 handmade

 Timestamp is 6632c8de (Wed May  1 19:57:34 2024)

 Preferred load address is 0000000180000000

 Start         Length     Name                   Class
 0001:00000000 0004a4f0H .text$mn                CODE
 0001:0004a4f0 00000040H .text$mn$00             CODE
 0001:0004a530 00000a70H .text$mn$21             CODE
 0001:0004afa0 000006adH .text$x                 CODE
 0002:00000000 00000268H .idata$5                DATA
 0002:00000268 00000038H .00cfg                  DATA
 0002:000002a0 00000008H .CRT$XCA                DATA
 0002:000002a8 00000008H .CRT$XCZ                DATA
 0002:000002b0 00000008H .CRT$XIA                DATA
 0002:000002b8 00000018H .CRT$XIC                DATA
 0002:000002d0 00000008H .CRT$XIZ                DATA
 0002:000002d8 00000008H .CRT$XPA                DATA
 0002:000002e0 00000010H .CRT$XPX                DATA
 0002:000002f0 00000008H .CRT$XPXA               DATA
 0002:000002f8 00000008H .CRT$XPZ                DATA
 0002:00000300 00000008H .CRT$XTA                DATA
 0002:00000308 00000008H .CRT$XTZ                DATA
 0002:00000310 00000000H .gehcont$y              DATA
 0002:00000310 00000000H .gfids$y                DATA
 0002:00000310 00011210H .rdata                  DATA
 0002:00011520 00000160H .rdata$00               DATA
 0002:00011680 00000000H .rdata$CastGuardVftablesA DATA
 0002:00011680 00000000H .rdata$CastGuardVftablesC DATA
 0002:00011680 0000016cH .rdata$r                DATA
 0002:000117ec 00000594H .rdata$voltmd           DATA
 0002:00011d80 00000368H .rdata$zzzdbg           DATA
 0002:000120e8 00000008H .rtc$IAA                DATA
 0002:000120f0 00000008H .rtc$IZZ                DATA
 0002:000120f8 00000008H .rtc$TAA                DATA
 0002:00012100 00000008H .rtc$TZZ                DATA
 0002:00012108 00001748H .xdata                  DATA
 0002:00013850 00000090H .xdata$x                DATA
 0002:000138e0 00000074H .edata                  DATA
 0002:00013954 00000014H .idata$2                DATA
 0002:00013968 00000018H .idata$3                DATA
 0002:00013980 00000268H .idata$4                DATA
 0002:00013be8 0000058cH .idata$6                DATA
 0003:00000000 00004a80H .data                   DATA
 0003:00004a80 00000050H .data$r                 DATA
 0003:00004ad0 00000020H .data$rs                DATA
 0003:00004af0 00001850H .bss                    DATA
 0004:00000000 00003618H .pdata                  DATA
 0005:00000000 000001f4H _RDATA                  DATA

  Address         Publics by Value              Rva+Base               Lib:Object

 0000:00000000       __AbsoluteZero             0000000000000000     <absolute>
 0000:00000000       ___safe_se_handler_count   0000000000000000     <absolute>
 0000:00000000       ___safe_se_handler_table   0000000000000000     <absolute>
 0000:00000000       __arm64x_extra_rfe_table   0000000000000000     <absolute>
 0000:00000000       __arm64x_extra_rfe_table_size 0000000000000000     <absolute>
 0000:00000000       __arm64x_native_entrypoint 0000000000000000     <absolute>
 0000:00000000       __arm64x_redirection_metadata 0000000000000000     <absolute>
 0000:00000000       __arm64x_redirection_metadata_count 0000000000000000     <absolute>
 0000:00000000       __dynamic_value_reloc_table 0000000000000000     <absolute>
 0000:00000000       __enclave_config           0000000000000000     <absolute>
 0000:00000000       __guard_check_icall_a64n_fptr 0000000000000000     <absolute>
 0000:00000000       __guard_eh_cont_count      0000000000000000     <absolute>
 0000:00000000       __guard_eh_cont_table      0000000000000000     <absolute>
 0000:00000000       __guard_fids_count         0000000000000000     <absolute>
 0000:00000000       __guard_fids_table         0000000000000000     <absolute>
 0000:00000000       __guard_iat_count          0000000000000000     <absolute>
 0000:00000000       __guard_iat_table          0000000000000000     <absolute>
 0000:00000000       __guard_longjmp_count      0000000000000000     <absolute>
 0000:00000000       __guard_longjmp_table      0000000000000000     <absolute>
 0000:00000000       __hybrid_auxiliary_delayload_iat 0000000000000000     <absolute>
 0000:00000000       __hybrid_auxiliary_delayload_iat_copy 0000000000000000     <absolute>
 0000:00000000       __hybrid_auxiliary_iat     0000000000000000     <absolute>
 0000:00000000       __hybrid_auxiliary_iat_copy 0000000000000000     <absolute>
 0000:00000000       __hybrid_code_map          0000000000000000     <absolute>
 0000:00000000       __hybrid_code_map_count    0000000000000000     <absolute>
 0000:00000000       __hybrid_image_info_bitfield 0000000000000000     <absolute>
 0000:00000000       __x64_code_ranges_to_entry_points 0000000000000000     <absolute>
 0000:00000000       __x64_code_ranges_to_entry_points_count 0000000000000000     <absolute>
 0000:00000100       __guard_flags              0000000000000100     <absolute>
 0000:00000000       __ImageBase                0000000180000000     <linker-defined>
 0001:00005750       ?MakeSimpleGroundedCollision@@YAPEAUsim_entity_collision_volume_group@@PEAUgame_state@@MMM@Z 0000000180006750 f   handmade.obj
 0001:000058b0       ?MakeNullCollision@@YAPEAUsim_entity_collision_volume_group@@PEAUgame_state@@@Z 00000001800068b0 f   handmade.obj
 0001:000061b0       GameUpdateAndRender        00000001800071b0 f   handmade.obj
 0001:00009c40       GameGetSoundSamples        000000018000ac40 f   handmade.obj
 0001:00009c80       ??D@YA?ATv2@@MT0@@Z        000000018000ac80 f i handmade.obj
 0001:00009ce0       ??D@YA?ATv3@@MT0@@Z        000000018000ace0 f i handmade.obj
 0001:00009d80       ??D@YA?ATv3@@T0@M@Z        000000018000ad80 f i handmade.obj
 0001:00009e30       ??G@YA?ATv2@@T0@0@Z        000000018000ae30 f i handmade.obj
 0001:00009e90       ??G@YA?ATv3@@T0@0@Z        000000018000ae90 f i handmade.obj
 0001:00009f30       ??H@YA?ATv2@@T0@0@Z        000000018000af30 f i handmade.obj
 0001:00009f90       ??H@YA?ATv3@@T0@0@Z        000000018000af90 f i handmade.obj
 0001:0000a030       ??X@YAAEATv3@@AEAT0@M@Z    000000018000b030 f i handmade.obj
 0001:0000a0d0       ??Y@YAAEATv2@@AEAT0@T0@@Z  000000018000b0d0 f i handmade.obj
 0001:0000a130       ??Y@YAAEATv3@@AEAT0@T0@@Z  000000018000b130 f i handmade.obj
 0001:0000a1e0       ?AbsoluteValue@@YAMM@Z     000000018000b1e0 f i handmade.obj
 0001:0000a210       ?AddFlags@@YAXPEAUsim_entity@@I@Z 000000018000b210 f i handmade.obj
 0001:0000a230       ?AddRadiusTo@@YA?AUrectangle3@@U1@Tv3@@@Z 000000018000b230 f i handmade.obj
 0001:0000a390       ?AreInSameChunk@@YAHPEAUworld@@PEAUworld_position@@1@Z 000000018000b390 f i handmade.obj
 0001:0000a480       ?BeginTemporaryMemory@@YA?AUtemporary_memory@@PEAUmemory_arena@@@Z 000000018000b480 f i handmade.obj
 0001:0000a4e0       ?CenteredChunkPoint@@YA?AUworld_position@@III@Z 000000018000b4e0 f i handmade.obj
 0001:0000a560       ?ChangeEntityLocationRaw@@YAXPEAUmemory_arena@@PEAUworld@@IPEAUworld_position@@2@Z 000000018000b560 f i handmade.obj
 0001:0000a930       ?CheckArena@@YAXPEAUmemory_arena@@@Z 000000018000b930 f i handmade.obj
 0001:0000a950       ?ChunkPositionFromTilePosition@@YA?AUworld_position@@PEAUworld@@HHHTv3@@@Z 000000018000b950 f i handmade.obj
 0001:0000ac40       ?Clamp01@@YA?ATv2@@T1@@Z   000000018000bc40 f i handmade.obj
 0001:0000aca0       ?Clamp01@@YAMM@Z           000000018000bca0 f i handmade.obj
 0001:0000acd0       ?Clamp@@YAMMMM@Z           000000018000bcd0 f i handmade.obj
 0001:0000ad30       ?Clear@@YAXPEAUrender_group@@Tv4@@@Z 000000018000bd30 f i handmade.obj
 0001:0000ad80       ?ClearFlags@@YAXPEAUsim_entity@@I@Z 000000018000bd80 f i handmade.obj
 0001:0000adb0       ?Cos@@YAMM@Z               000000018000bdb0 f i handmade.obj
 0001:0000ade0       ?DefaultMoveSpec@@YA?AUmove_spec@@XZ 000000018000bde0 f i handmade.obj
 0001:0000ae50       ?DrawHitpoints@@YAXPEAUsim_entity@@PEAUrender_group@@@Z 000000018000be50 f i handmade.obj
 0001:0000b060       ?EndTemporaryMemory@@YAXUtemporary_memory@@@Z 000000018000c060 f i handmade.obj
 0001:0000b0d0       ?EntityOverlapsRectangle@@YAHTv3@@Usim_entity_collision_volume@@Urectangle3@@@Z 000000018000c0d0 f i handmade.obj
 0001:0000b290       ?FindLeastSignificantSetBit@@YA?AUbit_scan_result@@I@Z 000000018000c290 f i handmade.obj
 0001:0000b2d0       ?GetBarycentric@@YA?ATv2@@Urectangle2@@T1@@Z 000000018000c2d0 f i handmade.obj
 0001:0000b380       ?GetEntityGroundPoint@@YA?ATv3@@PEAUsim_entity@@@Z 000000018000c380 f i handmade.obj
 0001:0000b430       ?GetEntityGroundPoint@@YA?ATv3@@PEAUsim_entity@@T1@@Z 000000018000c430 f i handmade.obj
 0001:0000b4a0       ?GetLowEntity@@YAPEAUlow_entity@@PEAUgame_state@@I@Z 000000018000c4a0 f i handmade.obj
 0001:0000b500       ?GetMaxCorner@@YA?ATv3@@Urectangle3@@@Z 000000018000c500 f i handmade.obj
 0001:0000b570       ?GetMinCorner@@YA?ATv3@@Urectangle3@@@Z 000000018000c570 f i handmade.obj
 0001:0000b5d0       ?GetRenderEntityBasisP@@YA?ATv2@@PEAUrender_group@@PEAUrender_entity_basis@@T1@@Z 000000018000c5d0 f i handmade.obj
 0001:0000b710       ?GetSimSpaceP@@YA?ATv3@@PEAUsim_region@@PEAUlow_entity@@@Z 000000018000c710 f i handmade.obj
 0001:0000b830       ?GetStairGround@@YAMPEAUsim_entity@@Tv3@@@Z 000000018000c830 f i handmade.obj
 0001:0000b950       ?GetWorldChunk@@YAPEAUworld_chunk@@PEAUworld@@HHHPEAUmemory_arena@@@Z 000000018000c950 f i handmade.obj
 0001:0000bb30       ?Hadamard@@YA?ATv3@@T1@0@Z 000000018000cb30 f i handmade.obj
 0001:0000bbd0       ?InitializeArena@@YAXPEAUmemory_arena@@_KPEAX@Z 000000018000cbd0 f i handmade.obj
 0001:0000bc20       ?Inner@@YAMTv2@@0@Z        000000018000cc20 f i handmade.obj
 0001:0000bc60       ?Inner@@YAMTv3@@0@Z        000000018000cc60 f i handmade.obj
 0001:0000bcc0       ?IsCanonical@@YAHMM@Z      000000018000ccc0 f i handmade.obj
 0001:0000bd50       ?IsCanonical@@YAHPEAUworld@@Tv3@@@Z 000000018000cd50 f i handmade.obj
 0001:0000bde0       ?IsInRectangle@@YAHUrectangle3@@Tv3@@@Z 000000018000cde0 f i handmade.obj
 0001:0000be90       ?IsSet@@YAHPEAUsim_entity@@I@Z 000000018000ce90 f i handmade.obj
 0001:0000bec0       ?IsValid@@YAHUworld_position@@@Z 000000018000cec0 f i handmade.obj
 0001:0000bf00       ?Length@@YAMTv3@@@Z        000000018000cf00 f i handmade.obj
 0001:0000bf50       ?LengthSq@@YAMTv2@@@Z      000000018000cf50 f i handmade.obj
 0001:0000bf80       ?LengthSq@@YAMTv3@@@Z      000000018000cf80 f i handmade.obj
 0001:0000bfe0       ?LoadEntityReference@@YAXPEAUgame_state@@PEAUsim_region@@PEATentity_reference@@@Z 000000018000cfe0 f i handmade.obj
 0001:0000c120       ?MakeEntityNonSpatial@@YAXPEAUsim_entity@@@Z 000000018000d120 f i handmade.obj
 0001:0000c1b0       ?MakeEntitySpatial@@YAXPEAUsim_entity@@Tv3@@1@Z 000000018000d1b0 f i handmade.obj
 0001:0000c210       ?MapIntoChunkSpace@@YA?AUworld_position@@PEAUworld@@U1@Tv3@@@Z 000000018000d210 f i handmade.obj
 0001:0000c2f0       ?NullPosition@@YA?AUworld_position@@XZ 000000018000d2f0 f i handmade.obj
 0001:0000c350       ?PushBitmap@@YAXPEAUrender_group@@PEAUloaded_bitmap@@Tv2@@M2MM@Z 000000018000d350 f i handmade.obj
 0001:0000c460       ?PushCoordninateSystem@@YAPEAUrender_entry_coordinate_system@@PEAUrender_group@@Tv2@@11Tv4@@@Z 000000018000d460 f i handmade.obj
 0001:0000c4f0       ?PushPiece@@YAXPEAUrender_group@@PEAUloaded_bitmap@@Tv2@@M22Tv4@@M@Z 000000018000d4f0 f i handmade.obj
 0001:0000c650       ?PushRect@@YAXPEAUrender_group@@Tv2@@M1Tv4@@M@Z 000000018000d650 f i handmade.obj
 0001:0000c800       ?PushRectOutline@@YAXPEAUrender_group@@Tv2@@M1Tv4@@M@Z 000000018000d800 f i handmade.obj
 0001:0000cb20       ?PushRenderElement_@@YAPEAUrender_group_entry_header@@PEAUrender_group@@IW4render_group_entry_type@@@Z 000000018000db20 f i handmade.obj
 0001:0000cbb0       ?PushSize_@@YAPEAXPEAUmemory_arena@@_K@Z 000000018000dbb0 f i handmade.obj
 0001:0000cc20       ?RandomBetween@@YAHPEAUrandom_series@@HH@Z 000000018000dc20 f i handmade.obj
 0001:0000cc70       ?RandomChoice@@YAHPEAUrandom_series@@I@Z 000000018000dc70 f i handmade.obj
 0001:0000cca0       ?RandomNextUInt32@@YAIPEAUrandom_series@@@Z 000000018000dca0 f i handmade.obj
 0001:0000ccf0       ?RandomSeed@@YA?AUrandom_series@@I@Z 000000018000dcf0 f i handmade.obj
 0001:0000cd20       ?RandomUnilateral@@YAMPEAUrandom_series@@@Z 000000018000dd20 f i handmade.obj
 0001:0000cd70       ?RecanonicalizeCoord@@YAXMPEAHPEAM@Z 000000018000dd70 f i handmade.obj
 0001:0000ce00       ?RectCenterDim@@YA?AUrectangle2@@Tv2@@0@Z 000000018000de00 f i handmade.obj
 0001:0000cec0       ?RectCenterDim@@YA?AUrectangle3@@Tv3@@0@Z 000000018000dec0 f i handmade.obj
 0001:0000cfe0       ?RectCenterHalfDim@@YA?AUrectangle2@@Tv2@@0@Z 000000018000dfe0 f i handmade.obj
 0001:0000d080       ?RectCenterHalfDim@@YA?AUrectangle3@@Tv3@@0@Z 000000018000e080 f i handmade.obj
 0001:0000d1d0       ?RectanglesIntersect@@YAHUrectangle3@@0@Z 000000018000e1d0 f i handmade.obj
 0001:0000d280       ?RoundReal32ToInt32@@YAHM@Z 000000018000e280 f i handmade.obj
 0001:0000d2b0       ?RoundReal32ToUInt32@@YAIM@Z 000000018000e2b0 f i handmade.obj
 0001:0000d2e0       ?SafeRatio0@@YAMMM@Z       000000018000e2e0 f i handmade.obj
 0001:0000d310       ?SafeRatioN@@YAMMMM@Z      000000018000e310 f i handmade.obj
 0001:0000d360       ?Sin@@YAMM@Z               000000018000e360 f i handmade.obj
 0001:0000d390       ?Square@@YAMM@Z            000000018000e390 f i handmade.obj
 0001:0000d3c0       ?SquareRoot@@YAMM@Z        000000018000e3c0 f i handmade.obj
 0001:0000d3f0       ?StoreEntityReference@@YAXPEATentity_reference@@@Z 000000018000e3f0 f i handmade.obj
 0001:0000d420       ?Subtract@@YA?ATv3@@PEAUworld@@PEAUworld_position@@1@Z 000000018000e420 f i handmade.obj
 0001:0000d640       ?V2@@YA?ATv2@@MM@Z         000000018000e640 f i handmade.obj
 0001:0000d690       ?V2i@@YA?ATv2@@HH@Z        000000018000e690 f i handmade.obj
 0001:0000d6e0       ?V3@@YA?ATv3@@MMM@Z        000000018000e6e0 f i handmade.obj
 0001:0000d760       ?V3@@YA?ATv3@@Tv2@@M@Z     000000018000e760 f i handmade.obj
 0001:0000d7e0       ?V4@@YA?ATv4@@MMMM@Z       000000018000e7e0 f i handmade.obj
 0001:0000d870       ?ZeroSize@@YAX_KPEAX@Z     000000018000e870 f i handmade.obj
 0001:0000d8c0       GetController              000000018000e8c0 f i handmade.obj
 0001:0000d910       __GSHandlerCheck           000000018000e910 f   LIBCMTD:gshandler.obj
 0001:0000d950       __GSHandlerCheckCommon     000000018000e950 f   LIBCMTD:gshandler.obj
 0001:0000da60       __chkstk                   000000018000ea60 f   LIBCMTD:chkstk.obj
 0001:0000da60       _alloca_probe              000000018000ea60 f   LIBCMTD:chkstk.obj
 0001:0000dac0       __security_check_cookie    000000018000eac0 f   LIBCMTD:amdsecgs.obj
 0001:0000def0       _DllMainCRTStartup         000000018000eef0 f   LIBCMTD:dll_dllmain.obj
 0001:0000df30       __raise_securityfailure    000000018000ef30 f   LIBCMTD:gs_report.obj
 0001:0000df70       __report_gsfailure         000000018000ef70 f   LIBCMTD:gs_report.obj
 0001:0000e050       __report_rangecheckfailure 000000018000f050 f   LIBCMTD:gs_report.obj
 0001:0000e070       __report_securityfailure   000000018000f070 f   LIBCMTD:gs_report.obj
 0001:0000e330       __security_init_cookie     000000018000f330 f   LIBCMTD:gs_support.obj
 0001:0000e3b0       DllMain                    000000018000f3b0 f   LIBCMTD:dll_dllmain_stub.obj
 0001:0000e3d0       ?__scrt_initialize_type_info@@YAXXZ 000000018000f3d0 f   LIBCMTD:tncleanup.obj
 0001:0000e3f0       ?__scrt_uninitialize_type_info@@YAXXZ 000000018000f3f0 f   LIBCMTD:tncleanup.obj
 0001:0000e410       __local_stdio_printf_options 000000018000f410 f i LIBCMTD:default_local_stdio_options.obj
 0001:0000e420       __local_stdio_scanf_options 000000018000f420 f i LIBCMTD:default_local_stdio_options.obj
 0001:0000e430       __scrt_initialize_default_local_stdio_options 000000018000f430 f   LIBCMTD:default_local_stdio_options.obj
 0001:0000e480       ?configure_argv@__scrt_narrow_argv_policy@@SAHXZ 000000018000f480 f i LIBCMTD:utility.obj
 0001:0000e570       ?initialize_environment@__scrt_narrow_environment_policy@@SAHXZ 000000018000f570 f i LIBCMTD:utility.obj
 0001:0000e610       NtCurrentTeb               000000018000f610 f i LIBCMTD:utility.obj
 0001:0000e620       __scrt_acquire_startup_lock 000000018000f620 f   LIBCMTD:utility.obj
 0001:0000e690       __scrt_dllmain_after_initialize_c 000000018000f690 f   LIBCMTD:utility.obj
 0001:0000e6c0       __scrt_dllmain_before_initialize_c 000000018000f6c0 f   LIBCMTD:utility.obj
 0001:0000e6e0       __scrt_dllmain_crt_thread_attach 000000018000f6e0 f   LIBCMTD:utility.obj
 0001:0000e710       __scrt_dllmain_crt_thread_detach 000000018000f710 f   LIBCMTD:utility.obj
 0001:0000e730       __scrt_dllmain_exception_filter 000000018000f730 f   LIBCMTD:utility.obj
 0001:0000e7a0       __scrt_dllmain_uninitialize_c 000000018000f7a0 f   LIBCMTD:utility.obj
 0001:0000e7d0       __scrt_dllmain_uninitialize_critical 000000018000f7d0 f   LIBCMTD:utility.obj
 0001:0000e7f0       __scrt_initialize_crt      000000018000f7f0 f   LIBCMTD:utility.obj
 0001:0000e840       __scrt_initialize_onexit_tables 000000018000f840 f   LIBCMTD:utility.obj
 0001:0000e950       __scrt_is_nonwritable_in_current_image 000000018000f950 f   LIBCMTD:utility.obj
 0001:0000e9e0       __scrt_release_startup_lock 000000018000f9e0 f   LIBCMTD:utility.obj
 0001:0000ea10       __scrt_uninitialize_crt    000000018000fa10 f   LIBCMTD:utility.obj
 0001:0000ea50       __scrt_get_dyn_tls_init_callback 000000018000fa50 f   LIBCMTD:dyn_tls_init.obj
 0001:0000ea60       __crt_debugger_hook        000000018000fa60 f   LIBCMTD:utility_desktop.obj
 0001:0000ea70       __scrt_fastfail            000000018000fa70 f   LIBCMTD:utility_desktop.obj
 0001:0000ec10       _RTC_Initialize            000000018000fc10 f   LIBCMTD:initsect.obj
 0001:0000ec60       _RTC_Terminate             000000018000fc60 f   LIBCMTD:initsect.obj
 0001:0000ecb0       ??1?$__crt_simd_cleanup_guard@$0A@@@QEAA@XZ 000000018000fcb0 f i libucrtd:strnlen.obj
 0001:0000ecb0       ??1scoped_global_state_reset@__crt_state_management@@QEAA@XZ 000000018000fcb0 f i libucrtd:onexit.obj
 0001:0000ecb0       _guard_check_icall_nop     000000018000fcb0 f i LIBCMTD:guard_support.obj
 0001:0000ecc0       ReadNoFence64              000000018000fcc0 f i LIBCMTD:guard_support.obj
 0001:0000ece0       ReadPointerNoFence         000000018000fce0 f i LIBCMTD:guard_support.obj
 0001:0000ed00       _guard_icall_checks_enforced 000000018000fd00 f i LIBCMTD:guard_support.obj
 0001:0000ed40       __isa_available_init       000000018000fd40 f   LIBCMTD:cpu_disp.obj
 0001:0000f0f0       _get_startup_argv_mode     00000001800100f0 f   LIBCMTD:argv_mode.obj
 0001:0000f100       __scrt_is_ucrt_dll_in_use  0000000180010100 f   LIBCMTD:ucrt_detection.obj
 0001:0000f130       __C_specific_handler       0000000180010130 f   libvcruntimed:riscchandler.obj
 0001:0000f5a0       ??$?RD@__crt_internal_free_policy@@QEBAXQEBD@Z 00000001800105a0 f i libvcruntimed:std_type_info.obj
 0001:0000f5a0       ??$?RE@__crt_internal_free_policy@@QEBAXQEBE@Z 00000001800105a0 f i libucrtd:argv_parsing.obj
 0001:0000f5a0       ??$?RPEAD@__crt_internal_free_policy@@QEBAXQEBQEAD@Z 00000001800105a0 f i libucrtd:argv_parsing.obj
 0001:0000f5a0       ??$?RPEAU__crt_stdio_stream_data@@@__crt_internal_free_policy@@QEBAXQEBQEAU__crt_stdio_stream_data@@@Z 00000001800105a0 f i libucrtd:_file.obj
 0001:0000f5a0       ??$?RU__acrt_ptd@@@__crt_internal_free_policy@@QEBAXQEBU__acrt_ptd@@@Z 00000001800105a0 f i libucrtd:per_thread_data.obj
 0001:0000f5a0       ??$?RU__crt_lowio_handle_data@@@__crt_internal_free_policy@@QEBAXQEBU__crt_lowio_handle_data@@@Z 00000001800105a0 f i libucrtd:osfinfo.obj
 0001:0000f5a0       ??$?RU__crt_multibyte_data@@@__crt_internal_free_policy@@QEBAXQEBU__crt_multibyte_data@@@Z 00000001800105a0 f i libucrtd:mbctype.obj
 0001:0000f5a0       ??$?RU__vcrt_ptd@@@__crt_internal_free_policy@@QEBAXQEBU__vcrt_ptd@@@Z 00000001800105a0 f i libvcruntimed:per_thread_data.obj
 0001:0000f5d0       ??0?$__crt_scoped_stack_ptr@_W@@QEAA@U?$__crt_scoped_stack_ptr_tag@_W@@@Z 00000001800105d0 f i libucrtd:getstringtypea.obj
 0001:0000f5d0       ??0?$__crt_scoped_stack_ptr_tag@_W@@QEAA@QEA_W@Z 00000001800105d0 f i libucrtd:getstringtypea.obj
 0001:0000f5d0       ??0?$__crt_unique_handle_t@U__crt_findfile_traits@@@@QEAA@QEAX@Z 00000001800105d0 f i libucrtd:argv_wildcards.obj
 0001:0000f5d0       ??0?$__crt_unique_handle_t@U__crt_hmodule_traits@@@@QEAA@QEAUHINSTANCE__@@@Z 00000001800105d0 f i libucrtd:exit.obj
 0001:0000f5d0       ??0?$__crt_unique_heap_ptr@DU__crt_internal_free_policy@@@@QEAA@QEAD@Z 00000001800105d0 f i libvcruntimed:std_type_info.obj
 0001:0000f5d0       ??0?$__crt_unique_heap_ptr@DU__crt_public_free_policy@@@@QEAA@QEAD@Z 00000001800105d0 f i libvcruntimed:std_exception.obj
 0001:0000f5d0       ??0?$__crt_unique_heap_ptr@EU__crt_internal_free_policy@@@@QEAA@QEAE@Z 00000001800105d0 f i libucrtd:argv_parsing.obj
 0001:0000f5d0       ??0?$__crt_unique_heap_ptr@PEADU__crt_internal_free_policy@@@@QEAA@QEAPEAD@Z 00000001800105d0 f i libucrtd:argv_parsing.obj
 0001:0000f5d0       ??0?$__crt_unique_heap_ptr@PEAU__crt_stdio_stream_data@@U__crt_internal_free_policy@@@@QEAA@QEAPEAU__crt_stdio_stream_data@@@Z 00000001800105d0 f i libucrtd:_file.obj
 0001:0000f5d0       ??0?$__crt_unique_heap_ptr@U__acrt_ptd@@U__crt_internal_free_policy@@@@QEAA@QEAU__acrt_ptd@@@Z 00000001800105d0 f i libucrtd:per_thread_data.obj
 0001:0000f5d0       ??0?$__crt_unique_heap_ptr@U__crt_lowio_handle_data@@U__crt_internal_free_policy@@@@QEAA@QEAU__crt_lowio_handle_data@@@Z 00000001800105d0 f i libucrtd:osfinfo.obj
 0001:0000f5d0       ??0?$__crt_unique_heap_ptr@U__crt_multibyte_data@@U__crt_internal_free_policy@@@@QEAA@QEAU__crt_multibyte_data@@@Z 00000001800105d0 f i libucrtd:mbctype.obj
 0001:0000f5d0       ??0?$__crt_unique_heap_ptr@U__vcrt_ptd@@U__crt_internal_free_policy@@@@QEAA@QEAU__vcrt_ptd@@@Z 00000001800105d0 f i libvcruntimed:per_thread_data.obj
 0001:0000f5d0       ??0?$string_output_adapter@D@__crt_stdio_output@@QEAA@QEAU?$string_output_adapter_context@D@1@@Z 00000001800105d0 f i libucrtd:output.obj
 0001:0000f5d0       ??0?$string_output_adapter@_W@__crt_stdio_output@@QEAA@QEAU?$string_output_adapter_context@_W@1@@Z 00000001800105d0 f i libucrtd:output.obj
 0001:0000f5d0       ??0__crt_stdio_stream@@QEAA@QEAU__crt_stdio_stream_data@@@Z 00000001800105d0 f i libucrtd:fflush.obj
 0001:0000f5d0       ??0__crt_stdio_stream@@QEAA@QEAU_iobuf@@@Z 00000001800105d0 f i libucrtd:output.obj
 0001:0000f5f0       ??1?$__crt_unique_heap_ptr@DU__crt_internal_free_policy@@@@QEAA@XZ 00000001800105f0 f i libvcruntimed:std_type_info.obj
 0001:0000f5f0       ??1?$__crt_unique_heap_ptr@EU__crt_internal_free_policy@@@@QEAA@XZ 00000001800105f0 f i libucrtd:argv_parsing.obj
 0001:0000f5f0       ??1?$__crt_unique_heap_ptr@PEADU__crt_internal_free_policy@@@@QEAA@XZ 00000001800105f0 f i libucrtd:argv_parsing.obj
 0001:0000f5f0       ??1?$__crt_unique_heap_ptr@PEAU__crt_stdio_stream_data@@U__crt_internal_free_policy@@@@QEAA@XZ 00000001800105f0 f i libucrtd:_file.obj
 0001:0000f5f0       ??1?$__crt_unique_heap_ptr@U__acrt_ptd@@U__crt_internal_free_policy@@@@QEAA@XZ 00000001800105f0 f i libucrtd:per_thread_data.obj
 0001:0000f5f0       ??1?$__crt_unique_heap_ptr@U__crt_lowio_handle_data@@U__crt_internal_free_policy@@@@QEAA@XZ 00000001800105f0 f i libucrtd:osfinfo.obj
 0001:0000f5f0       ??1?$__crt_unique_heap_ptr@U__crt_multibyte_data@@U__crt_internal_free_policy@@@@QEAA@XZ 00000001800105f0 f i libucrtd:mbctype.obj
 0001:0000f5f0       ??1?$__crt_unique_heap_ptr@U__vcrt_ptd@@U__crt_internal_free_policy@@@@QEAA@XZ 00000001800105f0 f i libvcruntimed:per_thread_data.obj
 0001:0000f610       ??B?$__crt_unique_heap_ptr@DU__crt_internal_free_policy@@@@QEBA_NXZ 0000000180010610 f i libvcruntimed:std_type_info.obj
 0001:0000f610       ??B?$__crt_unique_heap_ptr@DU__crt_public_free_policy@@@@QEBA_NXZ 0000000180010610 f i libvcruntimed:std_exception.obj
 0001:0000f610       ??B?$__crt_unique_heap_ptr@EU__crt_internal_free_policy@@@@QEBA_NXZ 0000000180010610 f i libucrtd:argv_parsing.obj
 0001:0000f610       ??B?$__crt_unique_heap_ptr@PEADU__crt_internal_free_policy@@@@QEBA_NXZ 0000000180010610 f i libucrtd:environment_initialization.obj
 0001:0000f610       ??B?$__crt_unique_heap_ptr@U__acrt_ptd@@U__crt_internal_free_policy@@@@QEBA_NXZ 0000000180010610 f i libucrtd:per_thread_data.obj
 0001:0000f610       ??B?$__crt_unique_heap_ptr@U__crt_lowio_handle_data@@U__crt_internal_free_policy@@@@QEBA_NXZ 0000000180010610 f i libucrtd:osfinfo.obj
 0001:0000f610       ??B?$__crt_unique_heap_ptr@U__crt_multibyte_data@@U__crt_internal_free_policy@@@@QEBA_NXZ 0000000180010610 f i libucrtd:mbctype.obj
 0001:0000f610       ??B?$__crt_unique_heap_ptr@U__vcrt_ptd@@U__crt_internal_free_policy@@@@QEBA_NXZ 0000000180010610 f i libvcruntimed:per_thread_data.obj
 0001:0000f630       ?__crt_interlocked_read_64@@YA_JPED_J@Z 0000000180010630 f i libvcruntimed:std_type_info.obj
 0001:0000f650       ??C__crt_stdio_stream@@QEBAPEAU__crt_stdio_stream_data@@XZ 0000000180010650 f i libucrtd:output.obj
 0001:0000f650       ?get@?$__crt_scoped_stack_ptr@_W@@QEBAPEA_WXZ 0000000180010650 f i libucrtd:getstringtypea.obj
 0001:0000f650       ?get@?$__crt_unique_handle_t@U__crt_findfile_traits@@@@QEBAPEAXXZ 0000000180010650 f i libucrtd:argv_wildcards.obj
 0001:0000f650       ?get@?$__crt_unique_handle_t@U__crt_hmodule_traits@@@@QEBAPEAUHINSTANCE__@@XZ 0000000180010650 f i libucrtd:exit.obj
 0001:0000f650       ?get@?$__crt_unique_heap_ptr@DU__crt_internal_free_policy@@@@QEBAPEADXZ 0000000180010650 f i libvcruntimed:std_type_info.obj
 0001:0000f650       ?get@?$__crt_unique_heap_ptr@DU__crt_public_free_policy@@@@QEBAPEADXZ 0000000180010650 f i libvcruntimed:std_exception.obj
 0001:0000f650       ?get@?$__crt_unique_heap_ptr@EU__crt_internal_free_policy@@@@QEBAPEAEXZ 0000000180010650 f i libucrtd:argv_parsing.obj
 0001:0000f650       ?get@?$__crt_unique_heap_ptr@PEADU__crt_internal_free_policy@@@@QEBAPEAPEADXZ 0000000180010650 f i libucrtd:argv_parsing.obj
 0001:0000f650       ?get@?$__crt_unique_heap_ptr@U__acrt_ptd@@U__crt_internal_free_policy@@@@QEBAPEAU__acrt_ptd@@XZ 0000000180010650 f i libucrtd:per_thread_data.obj
 0001:0000f650       ?get@?$__crt_unique_heap_ptr@U__crt_lowio_handle_data@@U__crt_internal_free_policy@@@@QEBAPEAU__crt_lowio_handle_data@@XZ 0000000180010650 f i libucrtd:osfinfo.obj
 0001:0000f650       ?get@?$__crt_unique_heap_ptr@U__crt_multibyte_data@@U__crt_internal_free_policy@@@@QEBAPEAU__crt_multibyte_data@@XZ 0000000180010650 f i libucrtd:mbctype.obj
 0001:0000f650       ?get@?$__crt_unique_heap_ptr@U__vcrt_ptd@@U__crt_internal_free_policy@@@@QEBAPEAU__vcrt_ptd@@XZ 0000000180010650 f i libvcruntimed:per_thread_data.obj
 0001:0000f650       ?public_stream@__crt_stdio_stream@@QEBAPEAU_iobuf@@XZ 0000000180010650 f i libucrtd:output.obj
 0001:0000f650       ?save_state@?$c_string_character_source@D@__crt_strtox@@QEBAPEBDXZ 0000000180010650 f i libucrtd:output.obj
 0001:0000f650       ?save_state@?$c_string_character_source@_W@__crt_strtox@@QEBAPEB_WXZ 0000000180010650 f i libucrtd:output.obj
 0001:0000f660       ??B?$__crt_scoped_stack_ptr@_W@@QEBA_NXZ 0000000180010660 f i libucrtd:lcmapstringa.obj
 0001:0000f660       ?is_valid@?$__crt_unique_heap_ptr@DU__crt_internal_free_policy@@@@QEBA_NXZ 0000000180010660 f i libvcruntimed:std_type_info.obj
 0001:0000f660       ?is_valid@?$__crt_unique_heap_ptr@DU__crt_public_free_policy@@@@QEBA_NXZ 0000000180010660 f i libvcruntimed:std_exception.obj
 0001:0000f660       ?is_valid@?$__crt_unique_heap_ptr@EU__crt_internal_free_policy@@@@QEBA_NXZ 0000000180010660 f i libucrtd:argv_parsing.obj
 0001:0000f660       ?is_valid@?$__crt_unique_heap_ptr@PEADU__crt_internal_free_policy@@@@QEBA_NXZ 0000000180010660 f i libucrtd:environment_initialization.obj
 0001:0000f660       ?is_valid@?$__crt_unique_heap_ptr@U__acrt_ptd@@U__crt_internal_free_policy@@@@QEBA_NXZ 0000000180010660 f i libucrtd:per_thread_data.obj
 0001:0000f660       ?is_valid@?$__crt_unique_heap_ptr@U__crt_lowio_handle_data@@U__crt_internal_free_policy@@@@QEBA_NXZ 0000000180010660 f i libucrtd:osfinfo.obj
 0001:0000f660       ?is_valid@?$__crt_unique_heap_ptr@U__crt_multibyte_data@@U__crt_internal_free_policy@@@@QEBA_NXZ 0000000180010660 f i libucrtd:mbctype.obj
 0001:0000f660       ?is_valid@?$__crt_unique_heap_ptr@U__vcrt_ptd@@U__crt_internal_free_policy@@@@QEBA_NXZ 0000000180010660 f i libvcruntimed:per_thread_data.obj
 0001:0000f660       ?valid@__crt_stdio_stream@@QEBA_NXZ 0000000180010660 f i libucrtd:output.obj
 0001:0000f690       ?release@?$__crt_unique_heap_ptr@DU__crt_internal_free_policy@@@@QEAAXXZ 0000000180010690 f i libvcruntimed:std_type_info.obj
 0001:0000f690       ?release@?$__crt_unique_heap_ptr@EU__crt_internal_free_policy@@@@QEAAXXZ 0000000180010690 f i libucrtd:argv_parsing.obj
 0001:0000f690       ?release@?$__crt_unique_heap_ptr@PEADU__crt_internal_free_policy@@@@QEAAXXZ 0000000180010690 f i libucrtd:argv_parsing.obj
 0001:0000f690       ?release@?$__crt_unique_heap_ptr@PEAU__crt_stdio_stream_data@@U__crt_internal_free_policy@@@@QEAAXXZ 0000000180010690 f i libucrtd:_file.obj
 0001:0000f690       ?release@?$__crt_unique_heap_ptr@U__acrt_ptd@@U__crt_internal_free_policy@@@@QEAAXXZ 0000000180010690 f i libucrtd:per_thread_data.obj
 0001:0000f690       ?release@?$__crt_unique_heap_ptr@U__crt_lowio_handle_data@@U__crt_internal_free_policy@@@@QEAAXXZ 0000000180010690 f i libucrtd:osfinfo.obj
 0001:0000f690       ?release@?$__crt_unique_heap_ptr@U__crt_multibyte_data@@U__crt_internal_free_policy@@@@QEAAXXZ 0000000180010690 f i libucrtd:mbctype.obj
 0001:0000f690       ?release@?$__crt_unique_heap_ptr@U__vcrt_ptd@@U__crt_internal_free_policy@@@@QEAAXXZ 0000000180010690 f i libvcruntimed:per_thread_data.obj
 0001:0000f6c0       __std_type_info_compare    00000001800106c0 f   libvcruntimed:std_type_info.obj
 0001:0000f700       __std_type_info_destroy_list 0000000180010700 f   libvcruntimed:std_type_info.obj
 0001:0000f760       __vcrt_initialize          0000000180010760 f   libvcruntimed:initialization.obj
 0001:0000f7a0       __vcrt_thread_attach       00000001800107a0 f   libvcruntimed:initialization.obj
 0001:0000f7c0       __vcrt_thread_detach       00000001800107c0 f   libvcruntimed:initialization.obj
 0001:0000f7d0       __vcrt_uninitialize        00000001800107d0 f   libvcruntimed:initialization.obj
 0001:0000f7f0       __vcrt_uninitialize_critical 00000001800107f0 f   libvcruntimed:initialization.obj
 0001:0000f810       __DestructExceptionObject  0000000180010810 f   libvcruntimed:ehhelpers.obj
 0001:0000f910       ?_CallMemberFunction0@@YAXQEAX0@Z 0000000180010910 f i libvcruntimed:ehhelpers.obj
 0001:0000f9e0       _IsExceptionObjectToBeDestroyed 00000001800109e0 f   libvcruntimed:ehhelpers.obj
 0001:0000fa30       __AdjustPointer            0000000180010a30 f   libvcruntimed:ehhelpers.obj
 0001:0000fab0       __FrameUnwindFilter        0000000180010ab0 f   libvcruntimed:ehhelpers.obj
 0001:0000fb90       _NLG_Notify                0000000180010b90 f   libvcruntimed:notify.obj
 0001:0000fbb0       __NLG_Dispatch2            0000000180010bb0 f   libvcruntimed:notify.obj
 0001:0000fbc0       __NLG_Return2              0000000180010bc0 f   libvcruntimed:notify.obj
 0001:0000fbd0       __except_validate_context_record 0000000180010bd0 f   libvcruntimed:jbcxrval.obj
 0001:0000fc30       _vsprintf_s_l              0000000180010c30 f i libvcruntimed:undname.obj
 0001:0000fca0       sprintf_s                  0000000180010ca0 f i libvcruntimed:undname.obj
 0001:0000fd40       ?detach@?$__crt_unique_heap_ptr@DU__crt_internal_free_policy@@@@QEAAPEADXZ 0000000180010d40 f i libucrtd:environment_initialization.obj
 0001:0000fd40       ?detach@?$__crt_unique_heap_ptr@DU__crt_public_free_policy@@@@QEAAPEADXZ 0000000180010d40 f i libvcruntimed:std_exception.obj
 0001:0000fd40       ?detach@?$__crt_unique_heap_ptr@EU__crt_internal_free_policy@@@@QEAAPEAEXZ 0000000180010d40 f i libucrtd:argv_parsing.obj
 0001:0000fd40       ?detach@?$__crt_unique_heap_ptr@PEADU__crt_internal_free_policy@@@@QEAAPEAPEADXZ 0000000180010d40 f i libucrtd:argv_parsing.obj
 0001:0000fd40       ?detach@?$__crt_unique_heap_ptr@PEAU__crt_stdio_stream_data@@U__crt_internal_free_policy@@@@QEAAPEAPEAU__crt_stdio_stream_data@@XZ 0000000180010d40 f i libucrtd:_file.obj
 0001:0000fd40       ?detach@?$__crt_unique_heap_ptr@U__acrt_ptd@@U__crt_internal_free_policy@@@@QEAAPEAU__acrt_ptd@@XZ 0000000180010d40 f i libucrtd:per_thread_data.obj
 0001:0000fd40       ?detach@?$__crt_unique_heap_ptr@U__crt_lowio_handle_data@@U__crt_internal_free_policy@@@@QEAAPEAU__crt_lowio_handle_data@@XZ 0000000180010d40 f i libucrtd:osfinfo.obj
 0001:0000fd40       ?detach@?$__crt_unique_heap_ptr@U__crt_multibyte_data@@U__crt_internal_free_policy@@@@QEAAPEAU__crt_multibyte_data@@XZ 0000000180010d40 f i libucrtd:mbctype.obj
 0001:0000fd40       ?detach@?$__crt_unique_heap_ptr@U__vcrt_ptd@@U__crt_internal_free_policy@@@@QEAAPEAU__vcrt_ptd@@XZ 0000000180010d40 f i libvcruntimed:per_thread_data.obj
 0001:0000fdb0       __vcrt_freefls             0000000180010db0 f   libvcruntimed:per_thread_data.obj
 0001:0000fdf0       __vcrt_freeptd_for_this_thread 0000000180010df0 f   libvcruntimed:per_thread_data.obj
 0001:0000fe30       __vcrt_getptd              0000000180010e30 f   libvcruntimed:per_thread_data.obj
 0001:0000fe60       __vcrt_getptd_noexit       0000000180010e60 f   libvcruntimed:per_thread_data.obj
 0001:00010000       __vcrt_initialize_ptd      0000000180011000 f   libvcruntimed:per_thread_data.obj
 0001:00010050       __vcrt_uninitialize_ptd    0000000180011050 f   libvcruntimed:per_thread_data.obj
 0001:00010080       __vcrt_initialize_locks    0000000180011080 f   libvcruntimed:locks.obj
 0001:000100f0       __vcrt_uninitialize_locks  00000001800110f0 f   libvcruntimed:locks.obj
 0001:00010150       ??$?0AEAViterator@TryBlockMap@__FrameHandler3@@AEAV012@$0A@@?$pair@Viterator@TryBlockMap@__FrameHandler3@@V123@@std@@QEAA@AEAViterator@TryBlockMap@__FrameHandler3@@0@Z 0000000180011150 f i libvcruntimed:risctrnsctrl.obj
 0001:00010260       ??$_CallSETranslator@V__FrameHandler3@@@@YAHPEAUEHExceptionRecord@@PEA_KPEAU_CONTEXT@@PEAU_xDISPATCHER_CONTEXT@@PEBU_s_FuncInfo@@K1H@Z 0000000180011260 f i libvcruntimed:risctrnsctrl.obj
 0001:000102f0       ??0iterator@HandlerMap@__FrameHandler3@@QEAA@AEAV12@I@Z 00000001800112f0 f i libvcruntimed:frame.obj
 0001:000102f0       ??0iterator@TryBlockMap@__FrameHandler3@@QEAA@AEAV12@I@Z 00000001800112f0 f i libvcruntimed:risctrnsctrl.obj
 0001:00010320       ?CatchTryBlock@__FrameHandler3@@SAPEBU_s_TryBlockMapEntry@@PEBU_s_FuncInfo@@H@Z 0000000180011320 f   libvcruntimed:risctrnsctrl.obj
 0001:000103b0       ?ExecutionInCatch@__FrameHandler3@@SA_NPEAU_xDISPATCHER_CONTEXT@@PEBU_s_FuncInfo@@@Z 00000001800113b0 f   libvcruntimed:risctrnsctrl.obj
 0001:00010400       ?FrameUnwindToEmptyState@__FrameHandler3@@SAXPEA_KPEAU_xDISPATCHER_CONTEXT@@PEBU_s_FuncInfo@@@Z 0000000180011400 f   libvcruntimed:risctrnsctrl.obj
 0001:000104a0       ?GetEstablisherFrame@__FrameHandler3@@SAPEA_KPEA_KPEAU_xDISPATCHER_CONTEXT@@PEBU_s_FuncInfo@@0@Z 00000001800114a0 f   libvcruntimed:risctrnsctrl.obj
 0001:00010610       ?GetRangeOfTrysToCheck@__FrameHandler3@@SA?AU?$pair@Viterator@TryBlockMap@__FrameHandler3@@V123@@std@@AEAVTryBlockMap@1@HPEAU_xDISPATCHER_CONTEXT@@PEBU_s_FuncInfo@@H@Z 0000000180011610 f   libvcruntimed:risctrnsctrl.obj
 0001:00010850       ?UnwindNestedFrames@__FrameHandler3@@SAXPEA_KPEAUEHExceptionRecord@@PEAU_CONTEXT@@0PEAXPEBU_s_FuncInfo@@HHPEBU_s_HandlerType@@PEAU_xDISPATCHER_CONTEXT@@E@Z 0000000180011850 f   libvcruntimed:risctrnsctrl.obj
 0001:000109c0       _CreateFrameInfo           00000001800119c0 f   libvcruntimed:risctrnsctrl.obj
 0001:00010a30       _FindAndUnlinkFrame        0000000180011a30 f   libvcruntimed:risctrnsctrl.obj
 0001:00010ab0       _GetImageBase              0000000180011ab0 f   libvcruntimed:risctrnsctrl.obj
 0001:00010ad0       _GetThrowImageBase         0000000180011ad0 f   libvcruntimed:risctrnsctrl.obj
 0001:00010af0       _SetImageBase              0000000180011af0 f   libvcruntimed:risctrnsctrl.obj
 0001:00010b10       _SetThrowImageBase         0000000180011b10 f   libvcruntimed:risctrnsctrl.obj
 0001:00010b30       __CxxFrameHandler3         0000000180011b30 f   libvcruntimed:risctrnsctrl.obj
 0001:00010c10       ??$__crt_interlocked_exchange_pointer@UHINSTANCE__@@PEAU1@@@YAPEAUHINSTANCE__@@PEDSEAU0@QEAU0@@Z 0000000180011c10 f i libvcruntimed:winapi_downlevel.obj
 0001:00010c10       ??$__crt_interlocked_exchange_pointer@UHINSTANCE__@@PEAX@@YAPEAUHINSTANCE__@@PEDSEAU0@QEAX@Z 0000000180011c10 f i libvcruntimed:winapi_downlevel.obj
 0001:00010c10       ??$__crt_interlocked_exchange_pointer@XPEAX@@YAPEAXPEDSEAXQEAX@Z 0000000180011c10 f i libvcruntimed:winapi_downlevel.obj
 0001:00010c30       ??$__crt_interlocked_read_pointer@UHINSTANCE__@@@@YAPEAUHINSTANCE__@@PEDSEAU0@@Z 0000000180011c30 f i libvcruntimed:winapi_downlevel.obj
 0001:00010c30       ??$__crt_interlocked_read_pointer@X@@YAPEAXPEDSEAX@Z 0000000180011c30 f i libvcruntimed:winapi_downlevel.obj
 0001:00010c50       ?get_invalid_value@__crt_findfile_traits@@SAPEAXXZ 0000000180011c50 f   libucrtd:argv_wildcards.obj
 0001:00011140       __vcrt_FlsAlloc            0000000180012140 f   libvcruntimed:winapi_downlevel.obj
 0001:00011190       __vcrt_FlsFree             0000000180012190 f   libvcruntimed:winapi_downlevel.obj
 0001:000111e0       __vcrt_FlsGetValue         00000001800121e0 f   libvcruntimed:winapi_downlevel.obj
 0001:00011230       __vcrt_FlsSetValue         0000000180012230 f   libvcruntimed:winapi_downlevel.obj
 0001:00011290       __vcrt_InitializeCriticalSectionEx 0000000180012290 f   libvcruntimed:winapi_downlevel.obj
 0001:00011300       ?GetCurrentState@__FrameHandler3@@SAHPEA_KPEAU_xDISPATCHER_CONTEXT@@PEBU_s_FuncInfo@@@Z 0000000180012300 f   libvcruntimed:ehstate.obj
 0001:00011360       ?GetUnwindTryBlock@__FrameHandler3@@SAHPEA_KPEAU_xDISPATCHER_CONTEXT@@PEBU_s_FuncInfo@@@Z 0000000180012360 f   libvcruntimed:ehstate.obj
 0001:000113b0       ?SetState@__FrameHandler3@@SAXPEA_KPEBU_s_FuncInfo@@H@Z 00000001800123b0 f   libvcruntimed:ehstate.obj
 0001:000113e0       ?SetUnwindTryBlock@__FrameHandler3@@SAXPEA_KPEAU_xDISPATCHER_CONTEXT@@PEBU_s_FuncInfo@@H@Z 00000001800123e0 f   libvcruntimed:ehstate.obj
 0001:00011450       ?StateFromControlPc@__FrameHandler3@@SAHPEBU_s_FuncInfo@@PEAU_xDISPATCHER_CONTEXT@@@Z 0000000180012450 f   libvcruntimed:ehstate.obj
 0001:00011490       ?StateFromIp@__FrameHandler3@@SAHPEBU_s_FuncInfo@@PEAU_xDISPATCHER_CONTEXT@@_K@Z 0000000180012490 f   libvcruntimed:ehstate.obj
 0001:00011580       ?__RVAtoRealOffset@@YA_KPEAU_xDISPATCHER_CONTEXT@@H@Z 0000000180012580 f i libvcruntimed:ehstate.obj
 0001:00012750       ??$TypeMatchHelper@V__FrameHandler3@@@@YAHPEBU_s_HandlerType@@PEBU_s_CatchableType@@PEBU_s_ThrowInfo@@@Z 0000000180013750 f i libvcruntimed:frame.obj
 0001:00012950       ??$__InternalCxxFrameHandler@V__FrameHandler3@@@@YA?AW4_EXCEPTION_DISPOSITION@@PEAUEHExceptionRecord@@PEA_KPEAU_CONTEXT@@PEAU_xDISPATCHER_CONTEXT@@PEBU_s_FuncInfo@@H1E@Z 0000000180013950 f i libvcruntimed:frame.obj
 0001:00012dc0       ??$__InternalCxxFrameHandlerWrapper@V__FrameHandler3@@@@YA?AW4_EXCEPTION_DISPOSITION@@PEAUEHExceptionRecord@@PEA_KPEAU_CONTEXT@@PEAU_xDISPATCHER_CONTEXT@@PEBU_s_FuncInfo@@H1E@Z 0000000180013dc0 f i libvcruntimed:frame.obj
 0001:00012e30       ??0HandlerMap@__FrameHandler3@@QEAA@PEBU_s_TryBlockMapEntry@@_KI@Z 0000000180013e30 f i libvcruntimed:frame.obj
 0001:00012e80       ??0TryBlockMap@__FrameHandler3@@QEAA@PEBU_s_FuncInfo@@_K@Z 0000000180013e80 f i libvcruntimed:frame.obj
 0001:00012eb0       ??0bad_exception@std@@QEAA@AEBV01@@Z 0000000180013eb0 f i libvcruntimed:frame.obj
 0001:00012ef0       ??0bad_exception@std@@QEAA@XZ 0000000180013ef0 f i libvcruntimed:frame.obj
 0001:00012f30       ??0exception@std@@QEAA@AEBV01@@Z 0000000180013f30 f i libvcruntimed:frame.obj
 0001:00012f90       ??0exception@std@@QEAA@QEBDH@Z 0000000180013f90 f i libvcruntimed:frame.obj
 0001:00012fe0       ??1bad_exception@std@@UEAA@XZ 0000000180013fe0 f i libvcruntimed:frame.obj
 0001:00013000       ??1exception@std@@UEAA@XZ  0000000180014000 f i libvcruntimed:frame.obj
 0001:00013030       ??8iterator@HandlerMap@__FrameHandler3@@QEBA_NAEBV012@@Z 0000000180014030 f i libvcruntimed:frame.obj
 0001:00013070       ??8type_info@@QEBA_NAEBV0@@Z 0000000180014070 f i libvcruntimed:frame.obj
 0001:000130f0       ??9iterator@HandlerMap@__FrameHandler3@@QEBA_NAEBV012@@Z 00000001800140f0 f i libvcruntimed:frame.obj
 0001:00013130       ??Diterator@HandlerMap@__FrameHandler3@@QEAA?BU_s_HandlerType@@XZ 0000000180014130 f i libvcruntimed:frame.obj
 0001:00013170       ??Diterator@TryBlockMap@__FrameHandler3@@QEAA?BU_s_TryBlockMapEntry@@XZ 0000000180014170 f i libvcruntimed:frame.obj
 0001:000131c0       ??Eiterator@HandlerMap@__FrameHandler3@@QEAAAEAV012@XZ 00000001800141c0 f i libvcruntimed:frame.obj
 0001:000131c0       ??Eiterator@TryBlockMap@__FrameHandler3@@QEAAAEAV012@XZ 00000001800141c0 f i libvcruntimed:frame.obj
 0001:000131e0       ??Miterator@TryBlockMap@__FrameHandler3@@QEBA_NAEBV012@@Z 00000001800141e0 f i libvcruntimed:frame.obj
 0001:00013220       ??_Ebad_exception@std@@UEAAPEAXI@Z 0000000180014220 f i libvcruntimed:frame.obj
 0001:00013220       ??_Gbad_exception@std@@UEAAPEAXI@Z 0000000180014220 f i libvcruntimed:frame.obj
 0001:00013260       ??_Eexception@std@@UEAAPEAXI@Z 0000000180014260 f i libvcruntimed:frame.obj
 0001:00013260       ??_Gexception@std@@UEAAPEAXI@Z 0000000180014260 f i libvcruntimed:frame.obj
 0001:000132a0       ?BuildCatchObject@__FrameHandler3@@SAXPEAUEHExceptionRecord@@PEAXPEBU_s_HandlerType@@PEBU_s_CatchableType@@@Z 00000001800142a0 f   libvcruntimed:frame.obj
 0001:000132e0       ?CxxCallCatchBlock@__FrameHandler3@@SAPEAXPEAU_EXCEPTION_RECORD@@@Z 00000001800142e0 f   libvcruntimed:frame.obj
 0001:00013640       ?FrameUnwindToState@__FrameHandler3@@SAXPEA_KPEAU_xDISPATCHER_CONTEXT@@PEBU_s_FuncInfo@@H@Z 0000000180014640 f   libvcruntimed:frame.obj
 0001:00013890       ?GetHandlerSearchState@__FrameHandler3@@SAHPEA_KPEAU_xDISPATCHER_CONTEXT@@PEBU_s_FuncInfo@@@Z 0000000180014890 f i libvcruntimed:frame.obj
 0001:00013940       ?GetMaxState@__FrameHandler3@@SAHPEAU_xDISPATCHER_CONTEXT@@PEBU_s_FuncInfo@@@Z 0000000180014940 f i libvcruntimed:frame.obj
 0001:00013b40       ?TypeMatch@__FrameHandler3@@SAHPEBU_s_HandlerType@@PEBU_s_CatchableType@@PEBU_s_ThrowInfo@@@Z 0000000180014b40 f   libvcruntimed:frame.obj
 0001:00013b40       __TypeMatch                0000000180014b40 f   libvcruntimed:frame.obj
 0001:00013b70       ?_CallMemberFunction1@@YAXQEAX00@Z 0000000180014b70 f i libvcruntimed:frame.obj
 0001:00013bb0       ?_CallMemberFunction2@@YAXQEAX00H@Z 0000000180014bb0 f i libvcruntimed:frame.obj
 0001:00013c40       ?begin@HandlerMap@__FrameHandler3@@QEAA?AViterator@12@XZ 0000000180014c40 f i libvcruntimed:frame.obj
 0001:00013c70       ?end@HandlerMap@__FrameHandler3@@QEAA?AViterator@12@XZ 0000000180014c70 f i libvcruntimed:frame.obj
 0001:00013ca0       ?getESTypes@__FrameHandler3@@SAPEBU_s_ESTypeList@@PEBU_s_FuncInfo@@@Z 0000000180014ca0 f i libvcruntimed:frame.obj
 0001:00013ce0       ?getLastEntry@HandlerMap@__FrameHandler3@@QEAAPEBU_s_HandlerType@@XZ 0000000180014ce0 f i libvcruntimed:frame.obj
 0001:00013d00       ?getMagicNum@__FrameHandler3@@SAIPEBU_s_FuncInfo@@@Z 0000000180014d00 f i libvcruntimed:frame.obj
 0001:00013d20       ?getNumTryBlocks@TryBlockMap@__FrameHandler3@@QEAAIXZ 0000000180014d20 f i libvcruntimed:frame.obj
 0001:00013d40       ?isEHs@__FrameHandler3@@SA_NPEBU_s_FuncInfo@@@Z 0000000180014d40 f i libvcruntimed:frame.obj
 0001:00013d80       ?isNoExcept@__FrameHandler3@@SA_NPEBU_s_FuncInfo@@@Z 0000000180014d80 f i libvcruntimed:frame.obj
 0001:00013dc0       ?what@exception@std@@UEBAPEBDXZ 0000000180014dc0 f i libvcruntimed:frame.obj
 0001:00013e00       __vcrt_EncodePointer       0000000180014e00 f i libvcruntimed:frame.obj
 0001:00013e30       memcpy_avx_ermsb_Intel     0000000180014e30 f   libvcruntimed:memcpy_avx_ermsb_aligned.obj
 0001:00014260       memcpy_avx_ermsb_amd       0000000180015260 f   libvcruntimed:memcpy_avx_ermsb_aligned_amd.obj
 0001:00014690       memcpy_sse2_ermsb_Intel    0000000180015690 f   libvcruntimed:memcpy_sse2_ermsb_aligned.obj
 0001:00014940       memcpy_sse2_ermsb_amd      0000000180015940 f   libvcruntimed:memcpy_sse2_ermsb_aligned_amd.obj
 0001:00014c20       _CallSettingFrame          0000000180015c20 f   libvcruntimed:handlers.obj
 0001:00014c60       ??$?RD@__crt_public_free_policy@@QEBAXQEBD@Z 0000000180015c60 f i libvcruntimed:std_exception.obj
 0001:00014c80       ??1?$__crt_unique_heap_ptr@DU__crt_public_free_policy@@@@QEAA@XZ 0000000180015c80 f i libvcruntimed:std_exception.obj
 0001:00014ca0       ?release@?$__crt_unique_heap_ptr@DU__crt_public_free_policy@@@@QEAAXXZ 0000000180015ca0 f i libvcruntimed:std_exception.obj
 0001:00014cd0       __std_exception_copy       0000000180015cd0 f   libvcruntimed:std_exception.obj
 0001:00014e10       __std_exception_destroy    0000000180015e10 f   libvcruntimed:std_exception.obj
 0001:00014e50       _CxxThrowException         0000000180015e50 f   libvcruntimed:throw.obj
 0001:00014fa0       memcpy_repmovs_Intel       0000000180015fa0 f   libvcruntimed:memcpy_repmovs.obj
 0001:00014fc0       memcpy_CopyDown_Intel      0000000180015fc0 f   libvcruntimed:memcpy_CopyDown.obj
 0001:000150b0       memcpy_repmovs_amd         00000001800160b0 f   libvcruntimed:memcpy_repmovs_amd.obj
 0001:000150d0       memcpy_CopyDown_amd        00000001800160d0 f   libvcruntimed:memcpy_CopyDown_amd.obj
 0001:000151b0       roundf                     00000001800161b0 f   libucrtd:roundf.obj
 0001:00015240       cosf                       0000000180016240 f   libucrtd:cosf.obj
 0001:00015740       sinf                       0000000180016740 f   libucrtd:sinf.obj
 0001:00015e40       sqrtf                      0000000180016e40 f   libucrtd:sqrtf.obj
 0001:00015f80       _initterm                  0000000180016f80 f   libucrtd:initterm.obj
 0001:00015ff0       _initterm_e                0000000180016ff0 f   libucrtd:initterm.obj
 0001:000160e0       _seh_filter_dll            00000001800170e0 f   libucrtd:exception_filter.obj
 0001:00016110       _seh_filter_exe            0000000180017110 f   libucrtd:exception_filter.obj
 0001:000163e0       ??$?B$$A6AXH@Z@__crt_fast_encoded_nullptr_t@@QEBAP6AXH@ZXZ 00000001800173e0 f i libucrtd:signal.obj
 0001:000163e0       ??$?B$$A6AXPEAXK0@Z@__crt_fast_encoded_nullptr_t@@QEBAP6AXPEAXK0@ZXZ 00000001800173e0 f i libucrtd:exit.obj
 0001:000163e0       ??$?B$$A6AXXZ@__crt_fast_encoded_nullptr_t@@QEBAP6AXXZXZ 00000001800173e0 f i libucrtd:onexit.obj
 0001:000163e0       ??$?BP6AXXZ@__crt_fast_encoded_nullptr_t@@QEBAPEAP6AXXZXZ 00000001800173e0 f i libucrtd:onexit.obj
 0001:000163e0       ??$?BX@__crt_fast_encoded_nullptr_t@@QEBAPEAXXZ 00000001800173e0 f i libucrtd:initialization.obj
 0001:000164a0       ??$__crt_fast_decode_pointer@P6AHPEAU_exception@@@Z@@YAP6AHPEAU_exception@@@ZQ6AH0@Z@Z 00000001800174a0 f i libucrtd:matherr.obj
 0001:000164a0       ??$__crt_fast_decode_pointer@P6AH_K@Z@@YAP6AH_K@ZQ6AH0@Z@Z 00000001800174a0 f i libucrtd:new_handler.obj
 0001:000164a0       ??$__crt_fast_decode_pointer@P6AXH@Z@@YAP6AXH@ZQ6AXH@Z@Z 00000001800174a0 f i libucrtd:signal.obj
 0001:000164a0       ??$__crt_fast_decode_pointer@P6AXPEAXK0@Z@@YAP6AXPEAXK0@ZQ6AX0K0@Z@Z 00000001800174a0 f i libucrtd:exit.obj
 0001:000164a0       ??$__crt_fast_decode_pointer@P6AXPEB_W00I_K@Z@@YAP6AXPEB_W00I_K@ZQ6AX000I1@Z@Z 00000001800174a0 f i libucrtd:invalid_parameter.obj
 0001:000164a0       ??$__crt_fast_decode_pointer@P6AXXZ@@YAP6AXXZQ6AXXZ@Z 00000001800174a0 f i libucrtd:onexit.obj
 0001:000164a0       ??$__crt_fast_decode_pointer@PEAP6AXXZ@@YAPEAP6AXXZQEAP6AXXZ@Z 00000001800174a0 f i libucrtd:onexit.obj
 0001:000164a0       ??$__crt_fast_decode_pointer@PEAX@@YAPEAXQEAX@Z 00000001800174a0 f i libucrtd:winapi_thunks.obj
 0001:000164e0       ??$__crt_fast_encode_pointer@P6AXH@Z@@YAP6AXH@ZQ6AXH@Z@Z 00000001800174e0 f i libucrtd:signal.obj
 0001:000164e0       ??$__crt_fast_encode_pointer@P6AXPEAXK0@Z@@YAP6AXPEAXK0@ZQ6AX0K0@Z@Z 00000001800174e0 f i libucrtd:exit.obj
 0001:000164e0       ??$__crt_fast_encode_pointer@P6AXXZ@@YAP6AXXZQ6AXXZ@Z 00000001800174e0 f i libucrtd:onexit.obj
 0001:000164e0       ??$__crt_fast_encode_pointer@PEAP6AXXZ@@YAPEAP6AXXZQEAP6AXXZ@Z 00000001800174e0 f i libucrtd:onexit.obj
 0001:000164e0       ??$__crt_fast_encode_pointer@PEAX@@YAPEAXQEAX@Z 00000001800174e0 f i libucrtd:initialization.obj
 0001:00016520       ??$__crt_get_proc_address@P6AXI@Z@@YAP6AXI@ZQEAUHINSTANCE__@@QEBD@Z 0000000180017520 f i libucrtd:exit.obj
 0001:00016550       ??$__crt_interlocked_read@J@@YAJPEDJ@Z 0000000180017550 f i libucrtd:exit.obj
 0001:000165e0       ??1?$__crt_unique_handle_t@U__crt_hmodule_traits@@@@QEAA@XZ 00000001800175e0 f i libucrtd:exit.obj
 0001:00016760       ?__acrt_select_exit_lock@@YA?AW4__acrt_lock_id@@XZ 0000000180017760 f i libucrtd:exit.obj
 0001:00016770       ?__crt_fast_encode_pointer@@YA?AU__crt_fast_encoded_nullptr_t@@$$T@Z 0000000180017770 f i libucrtd:exit.obj
 0001:00016790       ?__crt_interlocked_read_32@@YAHPEDH@Z 0000000180017790 f i libucrtd:exit.obj
 0001:000167b0       ?__crt_rotate_pointer_value@@YA_K_KH@Z 00000001800177b0 f i libucrtd:exit.obj
 0001:000167f0       ?close@?$__crt_unique_handle_t@U__crt_hmodule_traits@@@@QEAAXXZ 00000001800177f0 f i libucrtd:exit.obj
 0001:00016830       ?close@__crt_hmodule_traits@@SA_NPEAUHINSTANCE__@@@Z 0000000180017830 f i libucrtd:exit.obj
 0001:00016950       ?dangerous_get_state_array@?$dual_state_global@P6AXPEB_W00I_K@Z@__crt_state_management@@QEAAPEAP6AXPEB_W00I_K@ZXZ 0000000180017950 f i libucrtd:invalid_parameter.obj
 0001:00016950       ?dangerous_get_state_array@?$dual_state_global@PEAE@__crt_state_management@@QEAAPEAPEAEXZ 0000000180017950 f i libucrtd:mbctype.obj
 0001:00016950       ?dangerous_get_state_array@?$dual_state_global@PEAU__crt_locale_data@@@__crt_state_management@@QEAAPEAPEAU__crt_locale_data@@XZ 0000000180017950 f i libucrtd:per_thread_data.obj
 0001:00016950       ?dangerous_get_state_array@?$dual_state_global@PEAU__crt_multibyte_data@@@__crt_state_management@@QEAAPEAPEAU__crt_multibyte_data@@XZ 0000000180017950 f i libucrtd:mbctype.obj
 0001:00016950       ?debug_info@?$__crt_win32_buffer@DU__crt_win32_buffer_internal_dynamic_resizing@@@@QEBAAEBV__crt_win32_buffer_empty_debug_info@@XZ 0000000180017950 f i libucrtd:argv_wildcards.obj
 0001:00016950       ?debug_info@?$__crt_win32_buffer@DU__crt_win32_buffer_no_resizing@@@@QEBAAEBV__crt_win32_buffer_empty_debug_info@@XZ 0000000180017950 f i libucrtd:getmodulefilenamea.obj
 0001:00016950       ?debug_info@?$__crt_win32_buffer@_WU__crt_win32_buffer_internal_dynamic_resizing@@@@QEBAAEBV__crt_win32_buffer_empty_debug_info@@XZ 0000000180017950 f i libucrtd:argv_wildcards.obj
 0001:00016950       ?get_address_of@?$__crt_unique_handle_t@U__crt_hmodule_traits@@@@QEAAPEAPEAUHINSTANCE__@@XZ 0000000180017950 f i libucrtd:exit.obj
 0001:00016950       ?get_address_of@?$__crt_unique_heap_ptr@PEADU__crt_internal_free_policy@@@@QEAAPEAPEAPEADXZ 0000000180017950 f i libucrtd:argv_parsing.obj
 0001:00016960       ?get_current_state_index@__crt_state_management@@YA_KXZ 0000000180017960 f i libucrtd:environment_initialization.obj
 0001:00016960       ?get_invalid_value@__crt_hmodule_traits@@SAPEAUHINSTANCE__@@XZ 0000000180017960 f i libucrtd:exit.obj
 0001:00016b10       __acrt_initialize_thread_local_exit_callback 0000000180017b10 f   libucrtd:exit.obj
 0001:00016b30       _cexit                     0000000180017b30 f   libucrtd:exit.obj
 0001:00016b50       _exit                      0000000180017b50 f   libucrtd:exit.obj
 0001:00016b70       _is_c_termination_complete 0000000180017b70 f   libucrtd:exit.obj
 0001:00016f20       ??$get_module_file_name@$$TAEAY0BAF@DH@?$__crt_char_traits@D@@SAK$$QEA$$TAEAY0BAF@D$$QEAH@Z 0000000180017f20 f i libucrtd:argv_parsing.obj
 0001:00016f20       ??$get_module_file_name@AEAPEAUHINSTANCE__@@AEAY0BAF@DK@?$__crt_char_traits@D@@SAKAEAPEAUHINSTANCE__@@AEAY0BAF@D$$QEAK@Z 0000000180017f20 f i libucrtd:dbgrpt.obj
 0001:00017430       ??$set_program_name@PEAD@?$__crt_char_traits@D@@SAX$$QEAPEAD@Z 0000000180018430 f i libucrtd:argv_parsing.obj
 0001:00017560       __acrt_allocate_buffer_for_argv 0000000180018560 f   libucrtd:argv_parsing.obj
 0001:00017680       _configure_narrow_argv     0000000180018680 f   libucrtd:argv_parsing.obj
 0001:000176a0       _set_pgmptr                00000001800186a0 f i libucrtd:argv_parsing.obj
 0001:00017ad0       ??$get_environment_from_os@$$V@?$__crt_char_traits@D@@SAPEADXZ 0000000180018ad0 f i libucrtd:environment_initialization.obj
 0001:00017ae0       ??$tcscpy_s@PEADAEB_KAEAPEAD@?$__crt_char_traits@D@@SAH$$QEAPEADAEB_KAEAPEAD@Z 0000000180018ae0 f i libucrtd:environment_initialization.obj
 0001:00017b20       ??$tcslen@AEAPEAD@?$__crt_char_traits@D@@SA_KAEAPEAD@Z 0000000180018b20 f i libucrtd:environment_initialization.obj
 0001:00017b20       ??$tcslen@AEBQEBD@?$__crt_char_traits@D@@SA_KAEBQEBD@Z 0000000180018b20 f i libucrtd:dbgrpt.obj
 0001:00017b40       ??$uninitialize@A6AXAEAPEAPEAD@_E@?$dual_state_global@PEAPEAD@__crt_state_management@@QEAAXA6AXAEAPEAPEAD@_E@Z 0000000180018b40 f i libucrtd:environment_initialization.obj
 0001:00017bc0       ??$uninitialize@A6AXAEAPEAPEA_W@_E@?$dual_state_global@PEAPEA_W@__crt_state_management@@QEAAXA6AXAEAPEAPEA_W@_E@Z 0000000180018bc0 f i libucrtd:environment_initialization.obj
 0001:00017d10       ?initialize@?$dual_state_global@P6AHPEAU_exception@@@Z@__crt_state_management@@QEAAXQ6AHPEAU_exception@@@Z@Z 0000000180018d10 f i libucrtd:matherr.obj
 0001:00017d10       ?initialize@?$dual_state_global@P6AH_K@Z@__crt_state_management@@QEAAXQ6AH_K@Z@Z 0000000180018d10 f i libucrtd:new_handler.obj
 0001:00017d10       ?initialize@?$dual_state_global@P6AXH@Z@__crt_state_management@@QEAAXQ6AXH@Z@Z 0000000180018d10 f i libucrtd:signal.obj
 0001:00017d10       ?initialize@?$dual_state_global@PEAPEAD@__crt_state_management@@QEAAXQEAPEAD@Z 0000000180018d10 f i libucrtd:environment_initialization.obj
 0001:00017d10       ?initialize@?$dual_state_global@PEAU__crt_locale_data@@@__crt_state_management@@QEAAXQEAU__crt_locale_data@@@Z 0000000180018d10 f i libucrtd:initialization.obj
 0001:00017d10       ?initialize@?$dual_state_global@PEAU__crt_multibyte_data@@@__crt_state_management@@QEAAXQEAU__crt_multibyte_data@@@Z 0000000180018d10 f i libucrtd:mbctype.obj
 0001:00017d60       ?value@?$dual_state_global@P6AHPEAU_exception@@@Z@__crt_state_management@@QEAAAEAP6AHPEAU_exception@@@ZXZ 0000000180018d60 f i libucrtd:matherr.obj
 0001:00017d60       ?value@?$dual_state_global@P6AH_K@Z@__crt_state_management@@QEAAAEAP6AH_K@ZXZ 0000000180018d60 f i libucrtd:new_handler.obj
 0001:00017d60       ?value@?$dual_state_global@P6AXH@Z@__crt_state_management@@QEAAAEAP6AXH@ZXZ 0000000180018d60 f i libucrtd:signal.obj
 0001:00017d60       ?value@?$dual_state_global@PEAE@__crt_state_management@@QEAAAEAPEAEXZ 0000000180018d60 f i libucrtd:mbctype.obj
 0001:00017d60       ?value@?$dual_state_global@PEAPEAD@__crt_state_management@@QEAAAEAPEAPEADXZ 0000000180018d60 f i libucrtd:environment_initialization.obj
 0001:00017d60       ?value@?$dual_state_global@PEAU__crt_locale_data@@@__crt_state_management@@QEAAAEAPEAU__crt_locale_data@@XZ 0000000180018d60 f i libucrtd:per_thread_data.obj
 0001:00017d60       ?value@?$dual_state_global@PEAU__crt_multibyte_data@@@__crt_state_management@@QEAAAEAPEAU__crt_multibyte_data@@XZ 0000000180018d60 f i libucrtd:mbctype.obj
 0001:00017d80       __dcrt_uninitialize_environments_nolock 0000000180018d80 f   libucrtd:environment_initialization.obj
 0001:00017dd0       _initialize_narrow_environment 0000000180018dd0 f   libucrtd:environment_initialization.obj
 0001:00017de0       _invoke_watson_if_error    0000000180018de0 f i libucrtd:environment_initialization.obj
 0001:00018110       _execute_onexit_table      0000000180019110 f   libucrtd:onexit.obj
 0001:00018150       _initialize_onexit_table   0000000180019150 f   libucrtd:onexit.obj
 0001:00018220       __acrt_uninitialize_command_line 0000000180019220 f   libucrtd:argv_data.obj
 0001:000184a0       __acrt_initialize          00000001800194a0 f   libucrtd:initialization.obj
 0001:000184d0       __acrt_thread_attach       00000001800194d0 f   libucrtd:initialization.obj
 0001:000184f0       __acrt_thread_detach       00000001800194f0 f   libucrtd:initialization.obj
 0001:00018500       __acrt_uninitialize        0000000180019500 f   libucrtd:initialization.obj
 0001:00018530       __acrt_uninitialize_critical 0000000180019530 f   libucrtd:initialization.obj
 0001:00018550       terminate                  0000000180019550 f   libucrtd:terminate.obj
 0001:000185a0       ??0_LocaleUpdate@@QEAA@QEAU__crt_locale_pointers@@@Z 00000001800195a0 f i libucrtd:debug_heap.obj
 0001:000186c0       ??1_LocaleUpdate@@QEAA@XZ  00000001800196c0 f i libucrtd:debug_heap.obj
 0001:000186f0       ?GetLocaleT@_LocaleUpdate@@QEAAPEAU__crt_locale_pointers@@XZ 00000001800196f0 f i libucrtd:debug_heap.obj
 0001:0001aaa0       _CrtCheckMemory            000000018001baa0 f   libucrtd:debug_heap.obj
 0001:0001ac30       _CrtDumpMemoryLeaks        000000018001bc30 f   libucrtd:debug_heap.obj
 0001:0001acf0       _CrtIsValidHeapPointer     000000018001bcf0 f   libucrtd:debug_heap.obj
 0001:0001ad40       _CrtIsValidPointer         000000018001bd40 f   libucrtd:debug_heap.obj
 0001:0001ad80       _CrtMemCheckpoint          000000018001bd80 f   libucrtd:debug_heap.obj
 0001:0001b000       _CrtMemDumpAllObjectsSince 000000018001c000 f   libucrtd:debug_heap.obj
 0001:0001b060       _CrtSetDbgFlag             000000018001c060 f   libucrtd:debug_heap.obj
 0001:0001b1c0       _CrtSetDumpClient          000000018001c1c0 f   libucrtd:debug_heap.obj
 0001:0001b1f0       __acrt_disable_global_locale_sync 000000018001c1f0 f i libucrtd:debug_heap.obj
 0001:0001b220       __acrt_enable_global_locale_sync 000000018001c220 f i libucrtd:debug_heap.obj
 0001:0001b250       __acrt_get_locale_data_prefix 000000018001c250 f i libucrtd:debug_heap.obj
 0001:0001b270       __acrt_locale_changed      000000018001c270 f i libucrtd:debug_heap.obj
 0001:0001b2a0       _calloc_dbg                000000018001c2a0 f   libucrtd:debug_heap.obj
 0001:0001b340       _chvalidchk_l              000000018001c340 f i libucrtd:debug_heap.obj
 0001:0001b370       _free_dbg                  000000018001c370 f   libucrtd:debug_heap.obj
 0001:0001b3e0       _invoke_watson_if_oneof    000000018001c3e0 f i libucrtd:debug_heap.obj
 0001:0001b440       _ischartype_l              000000018001c440 f i libucrtd:debug_heap.obj
 0001:0001b4d0       _malloc_dbg                000000018001c4d0 f   libucrtd:debug_heap.obj
 0001:0001b510       _msize_dbg                 000000018001c510 f   libucrtd:debug_heap.obj
 0001:0001b6b0       _realloc_dbg               000000018001c6b0 f   libucrtd:debug_heap.obj
 0001:0001b720       _recalloc_dbg              000000018001c720 f   libucrtd:debug_heap.obj
 0001:0001bd00       strcpy_s                   000000018001cd00 f   libucrtd:strcpy_s.obj
 0001:0001bd40       strcmp                     000000018001cd40 f   libucrtd:strcmp.obj
 0001:0001bdc0       strlen                     000000018001cdc0 f   libucrtd:strlen.obj
 0001:0001be70       abort                      000000018001ce70 f   libucrtd:abort.obj
 0001:0001bef0       ??$initialize_from_array@$$BY00Q6AXPEB_W00I_K@Z@?$dual_state_global@P6AXPEB_W00I_K@Z@__crt_state_management@@QEAAXAEAY00Q6AXPEB_W00I_K@Z@Z 000000018001cef0 f i libucrtd:invalid_parameter.obj
 0001:0001bf50       ??0?$cached@H@__crt_cached_ptd_host@@QEAA@XZ 000000018001cf50 f i libucrtd:invalid_parameter.obj
 0001:0001bf50       ??0?$cached@K@__crt_cached_ptd_host@@QEAA@XZ 000000018001cf50 f i libucrtd:invalid_parameter.obj
 0001:0001bf70       ??0__crt_cached_ptd_host@@QEAA@QEAU__crt_locale_pointers@@@Z 000000018001cf70 f i libucrtd:invalid_parameter.obj
 0001:0001c030       ??0__crt_scoped_get_last_error_reset@@QEAA@XZ 000000018001d030 f i libucrtd:invalid_parameter.obj
 0001:0001c050       ??1__crt_cached_ptd_host@@QEAA@XZ 000000018001d050 f i libucrtd:invalid_parameter.obj
 0001:0001c100       ??1__crt_scoped_get_last_error_reset@@QEAA@XZ 000000018001d100 f i libucrtd:invalid_parameter.obj
 0001:0001c120       ?check_synchronize_global_state_index@__crt_cached_ptd_host@@AEAA_KAEBV__crt_scoped_get_last_error_reset@@@Z 000000018001d120 f i libucrtd:invalid_parameter.obj
 0001:0001c160       ?check_synchronize_global_state_index@__crt_cached_ptd_host@@AEAA_KXZ 000000018001d160 f i libucrtd:invalid_parameter.obj
 0001:0001c1c0       ?check_synchronize_per_thread_data@__crt_cached_ptd_host@@AEAAPEAU__acrt_ptd@@XZ 000000018001d1c0 f i libucrtd:invalid_parameter.obj
 0001:0001c200       ?force_synchronize_global_state_index@__crt_cached_ptd_host@@AEAA_KAEBV__crt_scoped_get_last_error_reset@@@Z 000000018001d200 f i libucrtd:invalid_parameter.obj
 0001:0001c240       ?force_synchronize_per_thread_data@__crt_cached_ptd_host@@AEAAPEAU__acrt_ptd@@XZ 000000018001d240 f i libucrtd:invalid_parameter.obj
 0001:0001c2a0       ?get_current_global_state_index@__crt_cached_ptd_host@@QEAA_KXZ 000000018001d2a0 f i libucrtd:invalid_parameter.obj
 0001:0001c2c0       ?get_current_state_index@__crt_state_management@@YA_KAEBV__crt_scoped_get_last_error_reset@@@Z 000000018001d2c0 f i libucrtd:invalid_parameter.obj
 0001:0001c2d0       ?get_raw_ptd@__crt_cached_ptd_host@@QEAAPEAU__acrt_ptd@@XZ 000000018001d2d0 f i libucrtd:invalid_parameter.obj
 0001:0001c2f0       ?get_raw_ptd_noexit@__crt_cached_ptd_host@@QEAAPEAU__acrt_ptd@@XZ 000000018001d2f0 f i libucrtd:invalid_parameter.obj
 0001:0001c310       ?try_synchronize_per_thread_data@__crt_cached_ptd_host@@AEAAPEAU__acrt_ptd@@XZ 000000018001d310 f i libucrtd:invalid_parameter.obj
 0001:0001c340       ?unsafe_value@?$cached@H@__crt_cached_ptd_host@@QEAAHXZ 000000018001d340 f i libucrtd:invalid_parameter.obj
 0001:0001c340       ?unsafe_value@?$cached@K@__crt_cached_ptd_host@@QEAAKXZ 000000018001d340 f i libucrtd:invalid_parameter.obj
 0001:0001c350       ?valid@?$cached@H@__crt_cached_ptd_host@@QEBA_NXZ 000000018001d350 f i libucrtd:invalid_parameter.obj
 0001:0001c350       ?valid@?$cached@K@__crt_cached_ptd_host@@QEBA_NXZ 000000018001d350 f i libucrtd:invalid_parameter.obj
 0001:0001c360       ?value@?$dual_state_global@P6AXPEB_W00I_K@Z@__crt_state_management@@QEAAAEAP6AXPEB_W00I_K@ZAEAV__crt_cached_ptd_host@@@Z 000000018001d360 f i libucrtd:invalid_parameter.obj
 0001:0001c390       __acrt_call_reportfault    000000018001d390 f   libucrtd:invalid_parameter.obj
 0001:0001c4c0       __acrt_initialize_invalid_parameter_handler 000000018001d4c0 f   libucrtd:invalid_parameter.obj
 0001:0001c4f0       _invalid_parameter         000000018001d4f0 f   libucrtd:invalid_parameter.obj
 0001:0001c560       _invalid_parameter_internal 000000018001d560 f   libucrtd:invalid_parameter.obj
 0001:0001c6b0       _invalid_parameter_noinfo  000000018001d6b0 f   libucrtd:invalid_parameter.obj
 0001:0001c6e0       _invoke_watson             000000018001d6e0 f   libucrtd:invalid_parameter.obj
 0001:0001c740       ??$?0AEBV?$string_output_adapter@D@__crt_stdio_output@@AEB_KAEBQEBDAEAV__crt_cached_ptd_host@@AEBQEAD@?$format_validation_base@DV?$string_output_adapter@D@__crt_stdio_output@@@__crt_stdio_output@@IEAA@AEBV?$string_output_adapter@D@1@AEB_KAEBQEBDAEAV__crt_cached_ptd_host@@AEBQEAD@Z 000000018001d740 f i libucrtd:output.obj
 0001:0001c790       ??$?0AEBV?$string_output_adapter@D@__crt_stdio_output@@AEB_KAEBQEBDAEAV__crt_cached_ptd_host@@AEBQEAD@?$standard_base@DV?$string_output_adapter@D@__crt_stdio_output@@@__crt_stdio_output@@IEAA@AEBV?$string_output_adapter@D@1@AEB_KAEBQEBDAEAV__crt_cached_ptd_host@@AEBQEAD@Z 000000018001d790 f i libucrtd:output.obj
 0001:0001c800       ??$?0AEBV?$string_output_adapter@_W@__crt_stdio_output@@AEB_KAEBQEB_WAEAV__crt_cached_ptd_host@@AEBQEAD@?$format_validation_base@_WV?$string_output_adapter@_W@__crt_stdio_output@@@__crt_stdio_output@@IEAA@AEBV?$string_output_adapter@_W@1@AEB_KAEBQEB_WAEAV__crt_cached_ptd_host@@AEBQEAD@Z 000000018001d800 f i libucrtd:output.obj
 0001:0001c850       ??$?0AEBV?$string_output_adapter@_W@__crt_stdio_output@@AEB_KAEBQEB_WAEAV__crt_cached_ptd_host@@AEBQEAD@?$standard_base@_WV?$string_output_adapter@_W@__crt_stdio_output@@@__crt_stdio_output@@IEAA@AEBV?$string_output_adapter@_W@1@AEB_KAEBQEB_WAEAV__crt_cached_ptd_host@@AEBQEAD@Z 000000018001d850 f i libucrtd:output.obj
 0001:0001c8c0       ??$_tcstol_internal@DPEAPEAD$0A@@@YAJAEAV__crt_cached_ptd_host@@QEBDQEAPEADH@Z 000000018001d8c0 f i libucrtd:output.obj
 0001:0001c910       ??$_tcstol_internal@_WPEAPEA_W$0A@@@YAJAEAV__crt_cached_ptd_host@@QEB_WQEAPEA_WH@Z 000000018001d910 f i libucrtd:output.obj
 0001:0001e4e0       ??$count@D@formatting_buffer@__crt_stdio_output@@QEBA_KXZ 000000018001f4e0 f i libucrtd:output.obj
 0001:0001e530       ??$count@_W@formatting_buffer@__crt_stdio_output@@QEBA_KXZ 000000018001f530 f i libucrtd:output.obj
 0001:0001e580       ??$data@D@formatting_buffer@__crt_stdio_output@@QEAAPEADXZ 000000018001f580 f i libucrtd:output.obj
 0001:0001e580       ??$data@_W@formatting_buffer@__crt_stdio_output@@QEAAPEA_WXZ 000000018001f580 f i libucrtd:output.obj
 0001:0001e5d0       ??$ensure_buffer_is_big_enough@D@formatting_buffer@__crt_stdio_output@@QEAA_N_KAEAV__crt_cached_ptd_host@@@Z 000000018001f5d0 f i libucrtd:output.obj
 0001:0001e710       ??$ensure_buffer_is_big_enough@_W@formatting_buffer@__crt_stdio_output@@QEAA_N_KAEAV__crt_cached_ptd_host@@@Z 000000018001f710 f i libucrtd:output.obj
 0001:0001e850       ??$extract_argument_from_va_list@C_J@?$standard_base@DV?$string_output_adapter@D@__crt_stdio_output@@@__crt_stdio_output@@IEAA_NAEA_J@Z 000000018001f850 f i libucrtd:output.obj
 0001:0001e850       ??$extract_argument_from_va_list@C_J@?$standard_base@_WV?$string_output_adapter@_W@__crt_stdio_output@@@__crt_stdio_output@@IEAA_NAEA_J@Z 000000018001f850 f i libucrtd:output.obj
 0001:0001e890       ??$extract_argument_from_va_list@E_J@?$standard_base@DV?$string_output_adapter@D@__crt_stdio_output@@@__crt_stdio_output@@IEAA_NAEA_J@Z 000000018001f890 f i libucrtd:output.obj
 0001:0001e890       ??$extract_argument_from_va_list@E_J@?$standard_base@_WV?$string_output_adapter@_W@__crt_stdio_output@@@__crt_stdio_output@@IEAA_NAEA_J@Z 000000018001f890 f i libucrtd:output.obj
 0001:0001e8d0       ??$extract_argument_from_va_list@F_J@?$standard_base@DV?$string_output_adapter@D@__crt_stdio_output@@@__crt_stdio_output@@IEAA_NAEA_J@Z 000000018001f8d0 f i libucrtd:output.obj
 0001:0001e8d0       ??$extract_argument_from_va_list@F_J@?$standard_base@_WV?$string_output_adapter@_W@__crt_stdio_output@@@__crt_stdio_output@@IEAA_NAEA_J@Z 000000018001f8d0 f i libucrtd:output.obj
 0001:0001e910       ??$extract_argument_from_va_list@GD@?$standard_base@DV?$string_output_adapter@D@__crt_stdio_output@@@__crt_stdio_output@@IEAA_NAEAD@Z 000000018001f910 f i libucrtd:output.obj
 0001:0001e940       ??$extract_argument_from_va_list@G_J@?$standard_base@DV?$string_output_adapter@D@__crt_stdio_output@@@__crt_stdio_output@@IEAA_NAEA_J@Z 000000018001f940 f i libucrtd:output.obj
 0001:0001e940       ??$extract_argument_from_va_list@G_J@?$standard_base@_WV?$string_output_adapter@_W@__crt_stdio_output@@@__crt_stdio_output@@IEAA_NAEA_J@Z 000000018001f940 f i libucrtd:output.obj
 0001:0001e980       ??$extract_argument_from_va_list@H_J@?$standard_base@DV?$string_output_adapter@D@__crt_stdio_output@@@__crt_stdio_output@@IEAA_NAEA_J@Z 000000018001f980 f i libucrtd:output.obj
 0001:0001e980       ??$extract_argument_from_va_list@H_J@?$standard_base@_WV?$string_output_adapter@_W@__crt_stdio_output@@@__crt_stdio_output@@IEAA_NAEA_J@Z 000000018001f980 f i libucrtd:output.obj
 0001:0001e9b0       ??$extract_argument_from_va_list@I_J@?$standard_base@DV?$string_output_adapter@D@__crt_stdio_output@@@__crt_stdio_output@@IEAA_NAEA_J@Z 000000018001f9b0 f i libucrtd:output.obj
 0001:0001e9b0       ??$extract_argument_from_va_list@I_J@?$standard_base@_WV?$string_output_adapter@_W@__crt_stdio_output@@@__crt_stdio_output@@IEAA_NAEA_J@Z 000000018001f9b0 f i libucrtd:output.obj
 0001:0001e9e0       ??$extract_argument_from_va_list@PEADPEAD@?$standard_base@DV?$string_output_adapter@D@__crt_stdio_output@@@__crt_stdio_output@@IEAA_NAEAPEAD@Z 000000018001f9e0 f i libucrtd:output.obj
 0001:0001e9e0       ??$extract_argument_from_va_list@PEADPEAD@?$standard_base@_WV?$string_output_adapter@_W@__crt_stdio_output@@@__crt_stdio_output@@IEAA_NAEAPEAD@Z 000000018001f9e0 f i libucrtd:output.obj
 0001:0001e9e0       ??$extract_argument_from_va_list@PEAUansi_string@?1??type_case_Z@?$output_processor@DV?$string_output_adapter@D@__crt_stdio_output@@V?$format_validation_base@DV?$string_output_adapter@D@__crt_stdio_output@@@2@@__crt_stdio_output@@AEAA_NXZ@PEAU1?1??234@AEAA_NXZ@@?$standard_base@DV?$string_output_adapter@D@__crt_stdio_output@@@__crt_stdio_output@@IEAA_NAEAPEAUansi_string@?1??type_case_Z@?$output_processor@DV?$string_output_adapter@D@__crt_stdio_output@@V?$format_validation_base@DV?$string_output_adapter@D@__crt_stdio_output@@@2@@1@AEAA_NXZ@@Z 000000018001f9e0 f i libucrtd:output.obj
 0001:0001e9e0       ??$extract_argument_from_va_list@PEAUansi_string@?1??type_case_Z@?$output_processor@_WV?$string_output_adapter@_W@__crt_stdio_output@@V?$format_validation_base@_WV?$string_output_adapter@_W@__crt_stdio_output@@@2@@__crt_stdio_output@@AEAA_NXZ@PEAU1?1??234@AEAA_NXZ@@?$standard_base@_WV?$string_output_adapter@_W@__crt_stdio_output@@@__crt_stdio_output@@IEAA_NAEAPEAUansi_string@?1??type_case_Z@?$output_processor@_WV?$string_output_adapter@_W@__crt_stdio_output@@V?$format_validation_base@_WV?$string_output_adapter@_W@__crt_stdio_output@@@2@@1@AEAA_NXZ@@Z 000000018001f9e0 f i libucrtd:output.obj
 0001:0001e9e0       ??$extract_argument_from_va_list@PEAXPEAX@?$standard_base@DV?$string_output_adapter@D@__crt_stdio_output@@@__crt_stdio_output@@IEAA_NAEAPEAX@Z 000000018001f9e0 f i libucrtd:output.obj
 0001:0001e9e0       ??$extract_argument_from_va_list@PEAXPEAX@?$standard_base@_WV?$string_output_adapter@_W@__crt_stdio_output@@@__crt_stdio_output@@IEAA_NAEAPEAX@Z 000000018001f9e0 f i libucrtd:output.obj
 0001:0001e9e0       ??$extract_argument_from_va_list@_J_J@?$standard_base@DV?$string_output_adapter@D@__crt_stdio_output@@@__crt_stdio_output@@IEAA_NAEA_J@Z 000000018001f9e0 f i libucrtd:output.obj
 0001:0001e9e0       ??$extract_argument_from_va_list@_J_J@?$standard_base@_WV?$string_output_adapter@_W@__crt_stdio_output@@@__crt_stdio_output@@IEAA_NAEA_J@Z 000000018001f9e0 f i libucrtd:output.obj
 0001:0001e9e0       ??$extract_argument_from_va_list@_K_J@?$standard_base@DV?$string_output_adapter@D@__crt_stdio_output@@@__crt_stdio_output@@IEAA_NAEA_J@Z 000000018001f9e0 f i libucrtd:output.obj
 0001:0001e9e0       ??$extract_argument_from_va_list@_K_J@?$standard_base@_WV?$string_output_adapter@_W@__crt_stdio_output@@@__crt_stdio_output@@IEAA_NAEA_J@Z 000000018001f9e0 f i libucrtd:output.obj
 0001:0001ea10       ??$extract_argument_from_va_list@U_CRT_DOUBLE@@U1@@?$standard_base@DV?$string_output_adapter@D@__crt_stdio_output@@@__crt_stdio_output@@IEAA_NAEAU_CRT_DOUBLE@@@Z 000000018001fa10 f i libucrtd:output.obj
 0001:0001ea10       ??$extract_argument_from_va_list@U_CRT_DOUBLE@@U1@@?$standard_base@_WV?$string_output_adapter@_W@__crt_stdio_output@@@__crt_stdio_output@@IEAA_NAEAU_CRT_DOUBLE@@@Z 000000018001fa10 f i libucrtd:output.obj
 0001:0001ea60       ??$extract_argument_from_va_list@_W_W@?$standard_base@DV?$string_output_adapter@D@__crt_stdio_output@@@__crt_stdio_output@@IEAA_NAEA_W@Z 000000018001fa60 f i libucrtd:output.obj
 0001:0001ea60       ??$extract_argument_from_va_list@_W_W@?$standard_base@_WV?$string_output_adapter@_W@__crt_stdio_output@@@__crt_stdio_output@@IEAA_NAEA_W@Z 000000018001fa60 f i libucrtd:output.obj
 0001:0001ea90       ??$is_overflow_condition@K@__crt_strtox@@YA_NIK@Z 000000018001fa90 f i libucrtd:output.obj
 0001:0001eb00       ??$is_wide_character_specifier@D@__crt_stdio_output@@YA_N_KDW4length_modifier@0@@Z 000000018001fb00 f i libucrtd:output.obj
 0001:0001eba0       ??$is_wide_character_specifier@_W@__crt_stdio_output@@YA_N_K_WW4length_modifier@0@@Z 000000018001fba0 f i libucrtd:output.obj
 0001:0001ec70       ??$make_c_string_character_source@DPEAPEAD@__crt_strtox@@YA?AV?$c_string_character_source@D@0@QEBDQEAPEAD@Z 000000018001fc70 f i libucrtd:output.obj
 0001:0001ec70       ??$make_c_string_character_source@_WPEAPEA_W@__crt_strtox@@YA?AV?$c_string_character_source@_W@0@QEB_WQEAPEA_W@Z 000000018001fc70 f i libucrtd:output.obj
 0001:0001ecb0       ??$parse_integer@KV?$c_string_character_source@D@__crt_strtox@@$0A@@__crt_strtox@@YAKAEAV__crt_cached_ptd_host@@V?$c_string_character_source@D@0@H_N@Z 000000018001fcb0 f i libucrtd:output.obj
 0001:0001f130       ??$parse_integer@KV?$c_string_character_source@_W@__crt_strtox@@$0A@@__crt_strtox@@YAKAEAV__crt_cached_ptd_host@@V?$c_string_character_source@_W@0@H_N@Z 0000000180020130 f i libucrtd:output.obj
 0001:0001f5b0       ??$read_va_arg@C@__crt_stdio_output@@YACAEAPEAD@Z 00000001800205b0 f i libucrtd:output.obj
 0001:0001f5b0       ??$read_va_arg@E@__crt_stdio_output@@YAEAEAPEAD@Z 00000001800205b0 f i libucrtd:output.obj
 0001:0001f620       ??$read_va_arg@F@__crt_stdio_output@@YAFAEAPEAD@Z 0000000180020620 f i libucrtd:output.obj
 0001:0001f620       ??$read_va_arg@G@__crt_stdio_output@@YAGAEAPEAD@Z 0000000180020620 f i libucrtd:output.obj
 0001:0001f620       ??$read_va_arg@_W@__crt_stdio_output@@YA_WAEAPEAD@Z 0000000180020620 f i libucrtd:output.obj
 0001:0001f690       ??$read_va_arg@H@__crt_stdio_output@@YAHAEAPEAD@Z 0000000180020690 f i libucrtd:output.obj
 0001:0001f690       ??$read_va_arg@I@__crt_stdio_output@@YAIAEAPEAD@Z 0000000180020690 f i libucrtd:output.obj
 0001:0001f6f0       ??$read_va_arg@PEAD@__crt_stdio_output@@YAPEADAEAPEAD@Z 00000001800206f0 f i libucrtd:output.obj
 0001:0001f6f0       ??$read_va_arg@PEAUansi_string@?1??type_case_Z@?$output_processor@DV?$string_output_adapter@D@__crt_stdio_output@@V?$format_validation_base@DV?$string_output_adapter@D@__crt_stdio_output@@@2@@__crt_stdio_output@@AEAA_NXZ@@__crt_stdio_output@@YAPEAUansi_string@?1??type_case_Z@?$output_processor@DV?$string_output_adapter@D@__crt_stdio_output@@V?$format_validation_base@DV?$string_output_adapter@D@__crt_stdio_output@@@2@@0@AEAA_NXZ@AEAPEAD@Z 00000001800206f0 f i libucrtd:output.obj
 0001:0001f6f0       ??$read_va_arg@PEAUansi_string@?1??type_case_Z@?$output_processor@_WV?$string_output_adapter@_W@__crt_stdio_output@@V?$format_validation_base@_WV?$string_output_adapter@_W@__crt_stdio_output@@@2@@__crt_stdio_output@@AEAA_NXZ@@__crt_stdio_output@@YAPEAUansi_string@?1??type_case_Z@?$output_processor@_WV?$string_output_adapter@_W@__crt_stdio_output@@V?$format_validation_base@_WV?$string_output_adapter@_W@__crt_stdio_output@@@2@@0@AEAA_NXZ@AEAPEAD@Z 00000001800206f0 f i libucrtd:output.obj
 0001:0001f6f0       ??$read_va_arg@PEAX@__crt_stdio_output@@YAPEAXAEAPEAD@Z 00000001800206f0 f i libucrtd:output.obj
 0001:0001f6f0       ??$read_va_arg@U_CRT_DOUBLE@@@__crt_stdio_output@@YA?AU_CRT_DOUBLE@@AEAPEAD@Z 00000001800206f0 f i libucrtd:output.obj
 0001:0001f6f0       ??$read_va_arg@_J@__crt_stdio_output@@YA_JAEAPEAD@Z 00000001800206f0 f i libucrtd:output.obj
 0001:0001f6f0       ??$read_va_arg@_K@__crt_stdio_output@@YA_KAEAPEAD@Z 00000001800206f0 f i libucrtd:output.obj
 0001:0001f760       ??$scratch_count@D@formatting_buffer@__crt_stdio_output@@QEBA_KXZ 0000000180020760 f i libucrtd:output.obj
 0001:0001f780       ??$scratch_data@D@formatting_buffer@__crt_stdio_output@@QEAAPEADXZ 0000000180020780 f i libucrtd:output.obj
 0001:0001f7f0       ??$type_case_integer@$07@?$output_processor@DV?$string_output_adapter@D@__crt_stdio_output@@V?$format_validation_base@DV?$string_output_adapter@D@__crt_stdio_output@@@2@@__crt_stdio_output@@AEAA_N_N@Z 00000001800207f0 f i libucrtd:output.obj
 0001:0001fc70       ??$type_case_integer@$07@?$output_processor@_WV?$string_output_adapter@_W@__crt_stdio_output@@V?$format_validation_base@_WV?$string_output_adapter@_W@__crt_stdio_output@@@2@@__crt_stdio_output@@AEAA_N_N@Z 0000000180020c70 f i libucrtd:output.obj
 0001:000200f0       ??$type_case_integer@$09@?$output_processor@DV?$string_output_adapter@D@__crt_stdio_output@@V?$format_validation_base@DV?$string_output_adapter@D@__crt_stdio_output@@@2@@__crt_stdio_output@@AEAA_N_N@Z 00000001800210f0 f i libucrtd:output.obj
 0001:00020570       ??$type_case_integer@$09@?$output_processor@_WV?$string_output_adapter@_W@__crt_stdio_output@@V?$format_validation_base@_WV?$string_output_adapter@_W@__crt_stdio_output@@@2@@__crt_stdio_output@@AEAA_N_N@Z 0000000180021570 f i libucrtd:output.obj
 0001:000209f0       ??$type_case_integer@$0BA@@?$output_processor@DV?$string_output_adapter@D@__crt_stdio_output@@V?$format_validation_base@DV?$string_output_adapter@D@__crt_stdio_output@@@2@@__crt_stdio_output@@AEAA_N_N@Z 00000001800219f0 f i libucrtd:output.obj
 0001:00020e70       ??$type_case_integer@$0BA@@?$output_processor@_WV?$string_output_adapter@_W@__crt_stdio_output@@V?$format_validation_base@_WV?$string_output_adapter@_W@__crt_stdio_output@@@2@@__crt_stdio_output@@AEAA_N_N@Z 0000000180021e70 f i libucrtd:output.obj
 0001:000212f0       ??$type_case_integer_parse_into_buffer@I$07@?$output_processor@DV?$string_output_adapter@D@__crt_stdio_output@@V?$format_validation_base@DV?$string_output_adapter@D@__crt_stdio_output@@@2@@__crt_stdio_output@@AEAAXI_N@Z 00000001800222f0 f i libucrtd:output.obj
 0001:00021420       ??$type_case_integer_parse_into_buffer@I$07@?$output_processor@_WV?$string_output_adapter@_W@__crt_stdio_output@@V?$format_validation_base@_WV?$string_output_adapter@_W@__crt_stdio_output@@@2@@__crt_stdio_output@@AEAAXI_N@Z 0000000180022420 f i libucrtd:output.obj
 0001:00021560       ??$type_case_integer_parse_into_buffer@I$09@?$output_processor@DV?$string_output_adapter@D@__crt_stdio_output@@V?$format_validation_base@DV?$string_output_adapter@D@__crt_stdio_output@@@2@@__crt_stdio_output@@AEAAXI_N@Z 0000000180022560 f i libucrtd:output.obj
 0001:00021690       ??$type_case_integer_parse_into_buffer@I$09@?$output_processor@_WV?$string_output_adapter@_W@__crt_stdio_output@@V?$format_validation_base@_WV?$string_output_adapter@_W@__crt_stdio_output@@@2@@__crt_stdio_output@@AEAAXI_N@Z 0000000180022690 f i libucrtd:output.obj
 0001:000217d0       ??$type_case_integer_parse_into_buffer@I$0BA@@?$output_processor@DV?$string_output_adapter@D@__crt_stdio_output@@V?$format_validation_base@DV?$string_output_adapter@D@__crt_stdio_output@@@2@@__crt_stdio_output@@AEAAXI_N@Z 00000001800227d0 f i libucrtd:output.obj
 0001:00021900       ??$type_case_integer_parse_into_buffer@I$0BA@@?$output_processor@_WV?$string_output_adapter@_W@__crt_stdio_output@@V?$format_validation_base@_WV?$string_output_adapter@_W@__crt_stdio_output@@@2@@__crt_stdio_output@@AEAAXI_N@Z 0000000180022900 f i libucrtd:output.obj
 0001:00021a40       ??$type_case_integer_parse_into_buffer@_K$07@?$output_processor@DV?$string_output_adapter@D@__crt_stdio_output@@V?$format_validation_base@DV?$string_output_adapter@D@__crt_stdio_output@@@2@@__crt_stdio_output@@AEAAX_K_N@Z 0000000180022a40 f i libucrtd:output.obj
 0001:00021b80       ??$type_case_integer_parse_into_buffer@_K$07@?$output_processor@_WV?$string_output_adapter@_W@__crt_stdio_output@@V?$format_validation_base@_WV?$string_output_adapter@_W@__crt_stdio_output@@@2@@__crt_stdio_output@@AEAAX_K_N@Z 0000000180022b80 f i libucrtd:output.obj
 0001:00021cc0       ??$type_case_integer_parse_into_buffer@_K$09@?$output_processor@DV?$string_output_adapter@D@__crt_stdio_output@@V?$format_validation_base@DV?$string_output_adapter@D@__crt_stdio_output@@@2@@__crt_stdio_output@@AEAAX_K_N@Z 0000000180022cc0 f i libucrtd:output.obj
 0001:00021e00       ??$type_case_integer_parse_into_buffer@_K$09@?$output_processor@_WV?$string_output_adapter@_W@__crt_stdio_output@@V?$format_validation_base@_WV?$string_output_adapter@_W@__crt_stdio_output@@@2@@__crt_stdio_output@@AEAAX_K_N@Z 0000000180022e00 f i libucrtd:output.obj
 0001:00021f40       ??$type_case_integer_parse_into_buffer@_K$0BA@@?$output_processor@DV?$string_output_adapter@D@__crt_stdio_output@@V?$format_validation_base@DV?$string_output_adapter@D@__crt_stdio_output@@@2@@__crt_stdio_output@@AEAAX_K_N@Z 0000000180022f40 f i libucrtd:output.obj
 0001:00022080       ??$type_case_integer_parse_into_buffer@_K$0BA@@?$output_processor@_WV?$string_output_adapter@_W@__crt_stdio_output@@V?$format_validation_base@_WV?$string_output_adapter@_W@__crt_stdio_output@@@2@@__crt_stdio_output@@AEAAX_K_N@Z 0000000180023080 f i libucrtd:output.obj
 0001:000221c0       ??$write_multiple_characters@V?$string_output_adapter@D@__crt_stdio_output@@D@__crt_stdio_output@@YAXAEBV?$string_output_adapter@D@0@DHQEAHAEAV__crt_cached_ptd_host@@@Z 00000001800231c0 f i libucrtd:output.obj
 0001:00022230       ??$write_multiple_characters@V?$string_output_adapter@_W@__crt_stdio_output@@D@__crt_stdio_output@@YAXAEBV?$string_output_adapter@_W@0@DHQEAHAEAV__crt_cached_ptd_host@@@Z 0000000180023230 f i libucrtd:output.obj
 0001:000222a0       ??0?$c_string_character_source@D@__crt_strtox@@QEAA@QEBDQEAPEBD@Z 00000001800232a0 f i libucrtd:output.obj
 0001:000222a0       ??0?$c_string_character_source@_W@__crt_strtox@@QEAA@QEB_WQEAPEB_W@Z 00000001800232a0 f i libucrtd:output.obj
 0001:000222f0       ??0?$common_data@D@__crt_stdio_output@@IEAA@AEAV__crt_cached_ptd_host@@@Z 00000001800232f0 f i libucrtd:output.obj
 0001:000223b0       ??0?$common_data@_W@__crt_stdio_output@@IEAA@AEAV__crt_cached_ptd_host@@@Z 00000001800233b0 f i libucrtd:output.obj
 0001:00022470       ??0?$output_adapter_data@DV?$string_output_adapter@D@__crt_stdio_output@@@__crt_stdio_output@@IEAA@AEBV?$string_output_adapter@D@1@_KQEBDAEAV__crt_cached_ptd_host@@QEAD@Z 0000000180023470 f i libucrtd:output.obj
 0001:000224f0       ??0?$output_adapter_data@_WV?$string_output_adapter@_W@__crt_stdio_output@@@__crt_stdio_output@@IEAA@AEBV?$string_output_adapter@_W@1@_KQEB_WAEAV__crt_cached_ptd_host@@QEAD@Z 00000001800234f0 f i libucrtd:output.obj
 0001:00022570       ??0?$output_processor@DV?$string_output_adapter@D@__crt_stdio_output@@V?$format_validation_base@DV?$string_output_adapter@D@__crt_stdio_output@@@2@@__crt_stdio_output@@QEAA@AEBV?$string_output_adapter@D@1@_KQEBDAEAV__crt_cached_ptd_host@@QEAD@Z 0000000180023570 f i libucrtd:output.obj
 0001:000225c0       ??0?$output_processor@_WV?$string_output_adapter@_W@__crt_stdio_output@@V?$format_validation_base@_WV?$string_output_adapter@_W@__crt_stdio_output@@@2@@__crt_stdio_output@@QEAA@AEBV?$string_output_adapter@_W@1@_KQEB_WAEAV__crt_cached_ptd_host@@QEAD@Z 00000001800235c0 f i libucrtd:output.obj
 0001:00022610       ??0formatting_buffer@__crt_stdio_output@@QEAA@XZ 0000000180023610 f i libucrtd:output.obj
 0001:00022650       ??0guard@?$cached@H@__crt_cached_ptd_host@@QEAA@AEAU12@@Z 0000000180023650 f i libucrtd:output.obj
 0001:00022690       ??1?$c_string_character_source@D@__crt_strtox@@QEAA@XZ 0000000180023690 f i libucrtd:output.obj
 0001:00022690       ??1?$c_string_character_source@_W@__crt_strtox@@QEAA@XZ 0000000180023690 f i libucrtd:output.obj
 0001:000226c0       ??1?$common_data@D@__crt_stdio_output@@QEAA@XZ 00000001800236c0 f i libucrtd:output.obj
 0001:000226c0       ??1?$common_data@_W@__crt_stdio_output@@QEAA@XZ 00000001800236c0 f i libucrtd:output.obj
 0001:000226e0       ??1?$format_validation_base@DV?$string_output_adapter@D@__crt_stdio_output@@@__crt_stdio_output@@QEAA@XZ 00000001800236e0 f i libucrtd:output.obj
 0001:000226e0       ??1?$format_validation_base@_WV?$string_output_adapter@_W@__crt_stdio_output@@@__crt_stdio_output@@QEAA@XZ 00000001800236e0 f i libucrtd:output.obj
 0001:00022700       ??1?$output_adapter_data@DV?$string_output_adapter@D@__crt_stdio_output@@@__crt_stdio_output@@QEAA@XZ 0000000180023700 f i libucrtd:output.obj
 0001:00022700       ??1?$output_adapter_data@_WV?$string_output_adapter@_W@__crt_stdio_output@@@__crt_stdio_output@@QEAA@XZ 0000000180023700 f i libucrtd:output.obj
 0001:00022720       ??1?$output_processor@DV?$string_output_adapter@D@__crt_stdio_output@@V?$format_validation_base@DV?$string_output_adapter@D@__crt_stdio_output@@@2@@__crt_stdio_output@@QEAA@XZ 0000000180023720 f i libucrtd:output.obj
 0001:00022720       ??1?$output_processor@_WV?$string_output_adapter@_W@__crt_stdio_output@@V?$format_validation_base@_WV?$string_output_adapter@_W@__crt_stdio_output@@@2@@__crt_stdio_output@@QEAA@XZ 0000000180023720 f i libucrtd:output.obj
 0001:00022740       ??1?$standard_base@DV?$string_output_adapter@D@__crt_stdio_output@@@__crt_stdio_output@@QEAA@XZ 0000000180023740 f i libucrtd:output.obj
 0001:00022740       ??1?$standard_base@_WV?$string_output_adapter@_W@__crt_stdio_output@@@__crt_stdio_output@@QEAA@XZ 0000000180023740 f i libucrtd:output.obj
 0001:00022760       ??1formatting_buffer@__crt_stdio_output@@QEAA@XZ 0000000180023760 f i libucrtd:output.obj
 0001:00022790       ??1guard@?$cached@H@__crt_cached_ptd_host@@QEAA@XZ 0000000180023790 f i libucrtd:output.obj
 0001:000227c0       ??4?$__crt_unique_heap_ptr@DU__crt_internal_free_policy@@@@QEAAAEAV0@$$QEAV0@@Z 00000001800237c0 f i libucrtd:output.obj
 0001:00022800       ??A?$spectre_mitigated_lookup_table@Ustate_transition_pair@__crt_stdio_output@@$0IA@@__crt_stdio_output@@QEBAAEBUstate_transition_pair@1@_K@Z 0000000180023800 f i libucrtd:output.obj
 0001:00022820       ?adjust_hexit@?$output_processor@DV?$string_output_adapter@D@__crt_stdio_output@@V?$format_validation_base@DV?$string_output_adapter@D@__crt_stdio_output@@@2@@__crt_stdio_output@@CADH_N@Z 0000000180023820 f i libucrtd:output.obj
 0001:00022820       ?adjust_hexit@?$output_processor@_WV?$string_output_adapter@_W@__crt_stdio_output@@V?$format_validation_base@_WV?$string_output_adapter@_W@__crt_stdio_output@@@2@@__crt_stdio_output@@CADH_N@Z 0000000180023820 f i libucrtd:output.obj
 0001:00022870       ?advance_to_next_pass@?$standard_base@DV?$string_output_adapter@D@__crt_stdio_output@@@__crt_stdio_output@@IEAA_NXZ 0000000180023870 f i libucrtd:output.obj
 0001:00022870       ?advance_to_next_pass@?$standard_base@_WV?$string_output_adapter@_W@__crt_stdio_output@@@__crt_stdio_output@@IEAA_NXZ 0000000180023870 f i libucrtd:output.obj
 0001:000228c0       ?check@?$cached@H@__crt_cached_ptd_host@@QEBA_NH@Z 00000001800238c0 f i libucrtd:output.obj
 0001:00022900       ?create_guard@?$cached@H@__crt_cached_ptd_host@@QEAA?AVguard@12@XZ 0000000180023900 f i libucrtd:output.obj
 0001:00022930       ?crop_zeroes@__crt_stdio_output@@YAXPEADQEAU__crt_locale_pointers@@@Z 0000000180023930 f i libucrtd:output.obj
 0001:00022a80       ?disable@guard@?$cached@H@__crt_cached_ptd_host@@QEAAXXZ 0000000180023a80 f i libucrtd:output.obj
 0001:00022a90       ?enable@guard@?$cached@H@__crt_cached_ptd_host@@QEAAXXZ 0000000180023a90 f i libucrtd:output.obj
 0001:00022aa0       ?find_next_state@?$output_processor@DV?$string_output_adapter@D@__crt_stdio_output@@V?$format_validation_base@DV?$string_output_adapter@D@__crt_stdio_output@@@2@@__crt_stdio_output@@AEBA?AW4state@2@DW432@@Z 0000000180023aa0 f i libucrtd:output.obj
 0001:00022b40       ?find_next_state@?$output_processor@_WV?$string_output_adapter@_W@__crt_stdio_output@@V?$format_validation_base@_WV?$string_output_adapter@_W@__crt_stdio_output@@@2@@__crt_stdio_output@@AEBA?AW4state@2@_WW432@@Z 0000000180023b40 f i libucrtd:output.obj
 0001:00022be0       ?force_decimal_point@__crt_stdio_output@@YAXPEADQEAU__crt_locale_pointers@@@Z 0000000180023be0 f i libucrtd:output.obj
 0001:00022ce0       ?get@?$c_string_character_source@D@__crt_strtox@@QEAADXZ 0000000180023ce0 f i libucrtd:output.obj
 0001:00022d20       ?get@?$c_string_character_source@_W@__crt_strtox@@QEAA_WXZ 0000000180023d20 f i libucrtd:output.obj
 0001:00022d60       ?get_errno@__crt_cached_ptd_host@@QEAA@XZ 0000000180023d60 f i libucrtd:output.obj
 0001:00022d70       ?get_flags@__crt_stdio_stream@@QEBAJXZ 0000000180023d70 f i libucrtd:output.obj
 0001:00022da0       ?get_locale@__crt_cached_ptd_host@@QEAAPEAU__crt_locale_pointers@@XZ 0000000180023da0 f i libucrtd:output.obj
 0001:00022dd0       ?has_flag@?$output_processor@DV?$string_output_adapter@D@__crt_stdio_output@@V?$format_validation_base@DV?$string_output_adapter@D@__crt_stdio_output@@@2@@__crt_stdio_output@@AEBA_NI@Z 0000000180023dd0 f i libucrtd:output.obj
 0001:00022dd0       ?has_flag@?$output_processor@_WV?$string_output_adapter@_W@__crt_stdio_output@@V?$format_validation_base@_WV?$string_output_adapter@_W@__crt_stdio_output@@@2@@__crt_stdio_output@@AEBA_NI@Z 0000000180023dd0 f i libucrtd:output.obj
 0001:00022e10       ?is_string_backed@__crt_stdio_stream@@QEBA_NXZ 0000000180023e10 f i libucrtd:output.obj
 0001:00022e50       ?maximum_signed_value@__crt_strtox@@YAJK@Z 0000000180023e50 f i libucrtd:output.obj
 0001:00022e60       ?minimum_signed_value@__crt_strtox@@YAJK@Z 0000000180023e60 f i libucrtd:output.obj
 0001:00022e70       ?narrow_null_string@?$output_processor@DV?$string_output_adapter@D@__crt_stdio_output@@V?$format_validation_base@DV?$string_output_adapter@D@__crt_stdio_output@@@2@@__crt_stdio_output@@CAPEADXZ 0000000180023e70 f i libucrtd:output.obj
 0001:00022e70       ?narrow_null_string@?$output_processor@_WV?$string_output_adapter@_W@__crt_stdio_output@@V?$format_validation_base@_WV?$string_output_adapter@_W@__crt_stdio_output@@@2@@__crt_stdio_output@@CAPEADXZ 0000000180023e70 f i libucrtd:output.obj
 0001:00022e80       ?parse_digit@__crt_strtox@@YAID@Z 0000000180023e80 f i libucrtd:output.obj
 0001:00022ef0       ?parse_digit@__crt_strtox@@YAI_W@Z 0000000180023ef0 f i libucrtd:output.obj
 0001:00022f40       ?parse_int_from_format_string@?$output_processor@DV?$string_output_adapter@D@__crt_stdio_output@@V?$format_validation_base@DV?$string_output_adapter@D@__crt_stdio_output@@@2@@__crt_stdio_output@@AEAA_NQEAH@Z 0000000180023f40 f i libucrtd:output.obj
 0001:00023040       ?parse_int_from_format_string@?$output_processor@_WV?$string_output_adapter@_W@__crt_stdio_output@@V?$format_validation_base@_WV?$string_output_adapter@_W@__crt_stdio_output@@@2@@__crt_stdio_output@@AEAA_NQEAH@Z 0000000180024040 f i libucrtd:output.obj
 0001:00023140       ?process@?$output_processor@DV?$string_output_adapter@D@__crt_stdio_output@@V?$format_validation_base@DV?$string_output_adapter@D@__crt_stdio_output@@@2@@__crt_stdio_output@@QEAAHXZ 0000000180024140 f i libucrtd:output.obj
 0001:00023500       ?process@?$output_processor@_WV?$string_output_adapter@_W@__crt_stdio_output@@V?$format_validation_base@_WV?$string_output_adapter@_W@__crt_stdio_output@@@2@@__crt_stdio_output@@QEAAHXZ 0000000180024500 f i libucrtd:output.obj
 0001:000238c0       ?restore_state@?$c_string_character_source@D@__crt_strtox@@QEAA_NQEBD@Z 00000001800248c0 f i libucrtd:output.obj
 0001:000238c0       ?restore_state@?$c_string_character_source@_W@__crt_strtox@@QEAA_NQEB_W@Z 00000001800248c0 f i libucrtd:output.obj
 0001:000238e0       ?set@?$cached@H@__crt_cached_ptd_host@@QEAAHH@Z 00000001800248e0 f i libucrtd:output.obj
 0001:000238e0       ?set@?$cached@K@__crt_cached_ptd_host@@QEAAKK@Z 00000001800248e0 f i libucrtd:errno.obj
 0001:00023910       ?set_flag@?$output_processor@DV?$string_output_adapter@D@__crt_stdio_output@@V?$format_validation_base@DV?$string_output_adapter@D@__crt_stdio_output@@@2@@__crt_stdio_output@@AEAAXI@Z 0000000180024910 f i libucrtd:output.obj
 0001:00023910       ?set_flag@?$output_processor@_WV?$string_output_adapter@_W@__crt_stdio_output@@V?$format_validation_base@_WV?$string_output_adapter@_W@__crt_stdio_output@@@2@@__crt_stdio_output@@AEAAXI@Z 0000000180024910 f i libucrtd:output.obj
 0001:00023930       ?should_format@?$standard_base@DV?$string_output_adapter@D@__crt_stdio_output@@@__crt_stdio_output@@IEAA_NXZ 0000000180024930 f i libucrtd:output.obj
 0001:00023930       ?should_format@?$standard_base@_WV?$string_output_adapter@_W@__crt_stdio_output@@@__crt_stdio_output@@IEAA_NXZ 0000000180024930 f i libucrtd:output.obj
 0001:00023930       ?validate_and_update_state_at_beginning_of_format_character@?$standard_base@DV?$string_output_adapter@D@__crt_stdio_output@@@__crt_stdio_output@@IEAA_NXZ 0000000180024930 f i libucrtd:output.obj
 0001:00023930       ?validate_and_update_state_at_beginning_of_format_character@?$standard_base@_WV?$string_output_adapter@_W@__crt_stdio_output@@@__crt_stdio_output@@IEAA_NXZ 0000000180024930 f i libucrtd:output.obj
 0001:00023930       ?validate_state_for_type_case_a@?$standard_base@DV?$string_output_adapter@D@__crt_stdio_output@@@__crt_stdio_output@@IEBA_NXZ 0000000180024930 f i libucrtd:output.obj
 0001:00023930       ?validate_state_for_type_case_a@?$standard_base@_WV?$string_output_adapter@_W@__crt_stdio_output@@@__crt_stdio_output@@IEBA_NXZ 0000000180024930 f i libucrtd:output.obj
 0001:00023940       ?should_skip_normal_state_processing@?$standard_base@DV?$string_output_adapter@D@__crt_stdio_output@@@__crt_stdio_output@@IEAA_NXZ 0000000180024940 f i libucrtd:output.obj
 0001:00023940       ?should_skip_normal_state_processing@?$standard_base@_WV?$string_output_adapter@_W@__crt_stdio_output@@@__crt_stdio_output@@IEAA_NXZ 0000000180024940 f i libucrtd:output.obj
 0001:00023940       ?should_skip_type_state_output@?$standard_base@DV?$string_output_adapter@D@__crt_stdio_output@@@__crt_stdio_output@@IEBA_NXZ 0000000180024940 f i libucrtd:output.obj
 0001:00023940       ?should_skip_type_state_output@?$standard_base@_WV?$string_output_adapter@_W@__crt_stdio_output@@@__crt_stdio_output@@IEBA_NXZ 0000000180024940 f i libucrtd:output.obj
 0001:00023950       ?state_case_dot@?$output_processor@DV?$string_output_adapter@D@__crt_stdio_output@@V?$format_validation_base@DV?$string_output_adapter@D@__crt_stdio_output@@@2@@__crt_stdio_output@@AEAA_NXZ 0000000180024950 f i libucrtd:output.obj
 0001:00023950       ?state_case_dot@?$output_processor@_WV?$string_output_adapter@_W@__crt_stdio_output@@V?$format_validation_base@_WV?$string_output_adapter@_W@__crt_stdio_output@@@2@@__crt_stdio_output@@AEAA_NXZ 0000000180024950 f i libucrtd:output.obj
 0001:00023970       ?state_case_flag@?$output_processor@DV?$string_output_adapter@D@__crt_stdio_output@@V?$format_validation_base@DV?$string_output_adapter@D@__crt_stdio_output@@@2@@__crt_stdio_output@@AEAA_NXZ 0000000180024970 f i libucrtd:output.obj
 0001:00023a10       ?state_case_flag@?$output_processor@_WV?$string_output_adapter@_W@__crt_stdio_output@@V?$format_validation_base@_WV?$string_output_adapter@_W@__crt_stdio_output@@@2@@__crt_stdio_output@@AEAA_NXZ 0000000180024a10 f i libucrtd:output.obj
 0001:00023ab0       ?state_case_normal@?$output_processor@DV?$string_output_adapter@D@__crt_stdio_output@@V?$format_validation_base@DV?$string_output_adapter@D@__crt_stdio_output@@@2@@__crt_stdio_output@@AEAA_NXZ 0000000180024ab0 f i libucrtd:output.obj
 0001:00023bb0       ?state_case_normal@?$output_processor@_WV?$string_output_adapter@_W@__crt_stdio_output@@V?$format_validation_base@_WV?$string_output_adapter@_W@__crt_stdio_output@@@2@@__crt_stdio_output@@AEAA_NXZ 0000000180024bb0 f i libucrtd:output.obj
 0001:00023cb0       ?state_case_normal_common@?$output_processor@DV?$string_output_adapter@D@__crt_stdio_output@@V?$format_validation_base@DV?$string_output_adapter@D@__crt_stdio_output@@@2@@__crt_stdio_output@@AEAA_NXZ 0000000180024cb0 f i libucrtd:output.obj
 0001:00023d10       ?state_case_normal_common@?$output_processor@_WV?$string_output_adapter@_W@__crt_stdio_output@@V?$format_validation_base@_WV?$string_output_adapter@_W@__crt_stdio_output@@@2@@__crt_stdio_output@@AEAA_NXZ 0000000180024d10 f i libucrtd:output.obj
 0001:00023d70       ?state_case_normal_tchar@?$output_processor@DV?$string_output_adapter@D@__crt_stdio_output@@V?$format_validation_base@DV?$string_output_adapter@D@__crt_stdio_output@@@2@@__crt_stdio_output@@AEAA_ND@Z 0000000180024d70 f i libucrtd:output.obj
 0001:00023f00       ?state_case_normal_tchar@?$output_processor@_WV?$string_output_adapter@_W@__crt_stdio_output@@V?$format_validation_base@_WV?$string_output_adapter@_W@__crt_stdio_output@@@2@@__crt_stdio_output@@AEAA_N_W@Z 0000000180024f00 f i libucrtd:output.obj
 0001:00023f20       ?state_case_percent@?$output_processor@DV?$string_output_adapter@D@__crt_stdio_output@@V?$format_validation_base@DV?$string_output_adapter@D@__crt_stdio_output@@@2@@__crt_stdio_output@@AEAA_NXZ 0000000180024f20 f i libucrtd:output.obj
 0001:00023f20       ?state_case_percent@?$output_processor@_WV?$string_output_adapter@_W@__crt_stdio_output@@V?$format_validation_base@_WV?$string_output_adapter@_W@__crt_stdio_output@@@2@@__crt_stdio_output@@AEAA_NXZ 0000000180024f20 f i libucrtd:output.obj
 0001:00023f70       ?state_case_precision@?$output_processor@DV?$string_output_adapter@D@__crt_stdio_output@@V?$format_validation_base@DV?$string_output_adapter@D@__crt_stdio_output@@@2@@__crt_stdio_output@@AEAA_NXZ 0000000180024f70 f i libucrtd:output.obj
 0001:00023ff0       ?state_case_precision@?$output_processor@_WV?$string_output_adapter@_W@__crt_stdio_output@@V?$format_validation_base@_WV?$string_output_adapter@_W@__crt_stdio_output@@@2@@__crt_stdio_output@@AEAA_NXZ 0000000180024ff0 f i libucrtd:output.obj
 0001:00024070       ?state_case_size@?$output_processor@DV?$string_output_adapter@D@__crt_stdio_output@@V?$format_validation_base@DV?$string_output_adapter@D@__crt_stdio_output@@@2@@__crt_stdio_output@@AEAA_NXZ 0000000180025070 f i libucrtd:output.obj
 0001:00024530       ?state_case_size@?$output_processor@_WV?$string_output_adapter@_W@__crt_stdio_output@@V?$format_validation_base@_WV?$string_output_adapter@_W@__crt_stdio_output@@@2@@__crt_stdio_output@@AEAA_NXZ 0000000180025530 f i libucrtd:output.obj
 0001:000249f0       ?state_case_type@?$output_processor@DV?$string_output_adapter@D@__crt_stdio_output@@V?$format_validation_base@DV?$string_output_adapter@D@__crt_stdio_output@@@2@@__crt_stdio_output@@AEAA_NXZ 00000001800259f0 f i libucrtd:output.obj
 0001:00024eb0       ?state_case_type@?$output_processor@_WV?$string_output_adapter@_W@__crt_stdio_output@@V?$format_validation_base@_WV?$string_output_adapter@_W@__crt_stdio_output@@@2@@__crt_stdio_output@@AEAA_NXZ 0000000180025eb0 f i libucrtd:output.obj
 0001:00025440       ?state_case_width@?$output_processor@DV?$string_output_adapter@D@__crt_stdio_output@@V?$format_validation_base@DV?$string_output_adapter@D@__crt_stdio_output@@@2@@__crt_stdio_output@@AEAA_NXZ 0000000180026440 f i libucrtd:output.obj
 0001:000254d0       ?state_case_width@?$output_processor@_WV?$string_output_adapter@_W@__crt_stdio_output@@V?$format_validation_base@_WV?$string_output_adapter@_W@__crt_stdio_output@@@2@@__crt_stdio_output@@AEAA_NXZ 00000001800264d0 f i libucrtd:output.obj
 0001:00025560       ?state_count@?$format_validation_base@DV?$string_output_adapter@D@__crt_stdio_output@@@__crt_stdio_output@@KAIXZ 0000000180026560 f i libucrtd:output.obj
 0001:00025560       ?state_count@?$format_validation_base@_WV?$string_output_adapter@_W@__crt_stdio_output@@@__crt_stdio_output@@KAIXZ 0000000180026560 f i libucrtd:output.obj
 0001:00025570       ?state_transition_table@?$format_validation_base@DV?$string_output_adapter@D@__crt_stdio_output@@@__crt_stdio_output@@KAAEBV?$spectre_mitigated_lookup_table@Ustate_transition_pair@__crt_stdio_output@@$0IA@@2@XZ 0000000180026570 f i libucrtd:output.obj
 0001:00025570       ?state_transition_table@?$format_validation_base@_WV?$string_output_adapter@_W@__crt_stdio_output@@@__crt_stdio_output@@KAAEBV?$spectre_mitigated_lookup_table@Ustate_transition_pair@__crt_stdio_output@@$0IA@@2@XZ 0000000180026570 f i libucrtd:output.obj
 0001:00025580       ?tchar_string@?$common_data@D@__crt_stdio_output@@IEAAAEAPEADD@Z 0000000180026580 f i libucrtd:output.obj
 0001:000255a0       ?tchar_string@?$common_data@D@__crt_stdio_output@@IEAAAEAPEADXZ 00000001800265a0 f i libucrtd:output.obj
 0001:000255c0       ?tchar_string@?$common_data@_W@__crt_stdio_output@@IEAAAEAPEA_WXZ 00000001800265c0 f i libucrtd:output.obj
 0001:000255e0       ?tchar_string@?$common_data@_W@__crt_stdio_output@@IEAAAEAPEA_W_W@Z 00000001800265e0 f i libucrtd:output.obj
 0001:00025600       ?to_integer_size@__crt_stdio_output@@YA_KW4length_modifier@1@@Z 0000000180026600 f i libucrtd:output.obj
 0001:000256b0       ?type_case_X@?$output_processor@DV?$string_output_adapter@D@__crt_stdio_output@@V?$format_validation_base@DV?$string_output_adapter@D@__crt_stdio_output@@@2@@__crt_stdio_output@@AEAA_NXZ 00000001800266b0 f i libucrtd:output.obj
 0001:000256d0       ?type_case_X@?$output_processor@_WV?$string_output_adapter@_W@__crt_stdio_output@@V?$format_validation_base@_WV?$string_output_adapter@_W@__crt_stdio_output@@@2@@__crt_stdio_output@@AEAA_NXZ 00000001800266d0 f i libucrtd:output.obj
 0001:000256f0       ?type_case_Z@?$output_processor@DV?$string_output_adapter@D@__crt_stdio_output@@V?$format_validation_base@DV?$string_output_adapter@D@__crt_stdio_output@@@2@@__crt_stdio_output@@AEAA_NXZ 00000001800266f0 f i libucrtd:output.obj
 0001:00025810       ?type_case_Z@?$output_processor@_WV?$string_output_adapter@_W@__crt_stdio_output@@V?$format_validation_base@_WV?$string_output_adapter@_W@__crt_stdio_output@@@2@@__crt_stdio_output@@AEAA_NXZ 0000000180026810 f i libucrtd:output.obj
 0001:00025930       ?type_case_a@?$output_processor@DV?$string_output_adapter@D@__crt_stdio_output@@V?$format_validation_base@DV?$string_output_adapter@D@__crt_stdio_output@@@2@@__crt_stdio_output@@AEAA_NXZ 0000000180026930 f i libucrtd:output.obj
 0001:00025d90       ?type_case_a@?$output_processor@_WV?$string_output_adapter@_W@__crt_stdio_output@@V?$format_validation_base@_WV?$string_output_adapter@_W@__crt_stdio_output@@@2@@__crt_stdio_output@@AEAA_NXZ 0000000180026d90 f i libucrtd:output.obj
 0001:00026200       ?type_case_c@?$output_processor@DV?$string_output_adapter@D@__crt_stdio_output@@V?$format_validation_base@DV?$string_output_adapter@D@__crt_stdio_output@@@2@@__crt_stdio_output@@AEAA_NXZ 0000000180027200 f i libucrtd:output.obj
 0001:00026220       ?type_case_c@?$output_processor@_WV?$string_output_adapter@_W@__crt_stdio_output@@V?$format_validation_base@_WV?$string_output_adapter@_W@__crt_stdio_output@@@2@@__crt_stdio_output@@AEAA_NXZ 0000000180027220 f i libucrtd:output.obj
 0001:00026240       ?type_case_c_tchar@?$output_processor@DV?$string_output_adapter@D@__crt_stdio_output@@V?$format_validation_base@DV?$string_output_adapter@D@__crt_stdio_output@@@2@@__crt_stdio_output@@AEAA_ND@Z 0000000180027240 f i libucrtd:output.obj
 0001:000263b0       ?type_case_c_tchar@?$output_processor@_WV?$string_output_adapter@_W@__crt_stdio_output@@V?$format_validation_base@_WV?$string_output_adapter@_W@__crt_stdio_output@@@2@@__crt_stdio_output@@AEAA_N_W@Z 00000001800273b0 f i libucrtd:output.obj
 0001:00026510       ?type_case_d@?$output_processor@DV?$string_output_adapter@D@__crt_stdio_output@@V?$format_validation_base@DV?$string_output_adapter@D@__crt_stdio_output@@@2@@__crt_stdio_output@@AEAA_NXZ 0000000180027510 f i libucrtd:output.obj
 0001:00026540       ?type_case_d@?$output_processor@_WV?$string_output_adapter@_W@__crt_stdio_output@@V?$format_validation_base@_WV?$string_output_adapter@_W@__crt_stdio_output@@@2@@__crt_stdio_output@@AEAA_NXZ 0000000180027540 f i libucrtd:output.obj
 0001:00026570       ?type_case_n@?$output_processor@DV?$string_output_adapter@D@__crt_stdio_output@@V?$format_validation_base@DV?$string_output_adapter@D@__crt_stdio_output@@@2@@__crt_stdio_output@@AEAA_NXZ 0000000180027570 f i libucrtd:output.obj
 0001:00026800       ?type_case_n@?$output_processor@_WV?$string_output_adapter@_W@__crt_stdio_output@@V?$format_validation_base@_WV?$string_output_adapter@_W@__crt_stdio_output@@@2@@__crt_stdio_output@@AEAA_NXZ 0000000180027800 f i libucrtd:output.obj
 0001:00026a90       ?type_case_o@?$output_processor@DV?$string_output_adapter@D@__crt_stdio_output@@V?$format_validation_base@DV?$string_output_adapter@D@__crt_stdio_output@@@2@@__crt_stdio_output@@AEAA_NXZ 0000000180027a90 f i libucrtd:output.obj
 0001:00026ad0       ?type_case_o@?$output_processor@_WV?$string_output_adapter@_W@__crt_stdio_output@@V?$format_validation_base@_WV?$string_output_adapter@_W@__crt_stdio_output@@@2@@__crt_stdio_output@@AEAA_NXZ 0000000180027ad0 f i libucrtd:output.obj
 0001:00026b10       ?type_case_p@?$output_processor@DV?$string_output_adapter@D@__crt_stdio_output@@V?$format_validation_base@DV?$string_output_adapter@D@__crt_stdio_output@@@2@@__crt_stdio_output@@AEAA_NXZ 0000000180027b10 f i libucrtd:output.obj
 0001:00026b50       ?type_case_p@?$output_processor@_WV?$string_output_adapter@_W@__crt_stdio_output@@V?$format_validation_base@_WV?$string_output_adapter@_W@__crt_stdio_output@@@2@@__crt_stdio_output@@AEAA_NXZ 0000000180027b50 f i libucrtd:output.obj
 0001:00026b90       ?type_case_s@?$output_processor@DV?$string_output_adapter@D@__crt_stdio_output@@V?$format_validation_base@DV?$string_output_adapter@D@__crt_stdio_output@@@2@@__crt_stdio_output@@AEAA_NXZ 0000000180027b90 f i libucrtd:output.obj
 0001:00026cb0       ?type_case_s@?$output_processor@_WV?$string_output_adapter@_W@__crt_stdio_output@@V?$format_validation_base@_WV?$string_output_adapter@_W@__crt_stdio_output@@@2@@__crt_stdio_output@@AEAA_NXZ 0000000180027cb0 f i libucrtd:output.obj
 0001:00026dd0       ?type_case_s_compute_narrow_string_length@?$output_processor@DV?$string_output_adapter@D@__crt_stdio_output@@V?$format_validation_base@DV?$string_output_adapter@D@__crt_stdio_output@@@2@@__crt_stdio_output@@AEAAHHD@Z 0000000180027dd0 f i libucrtd:output.obj
 0001:00026e00       ?type_case_s_compute_narrow_string_length@?$output_processor@_WV?$string_output_adapter@_W@__crt_stdio_output@@V?$format_validation_base@_WV?$string_output_adapter@_W@__crt_stdio_output@@@2@@__crt_stdio_output@@AEAAHH_W@Z 0000000180027e00 f i libucrtd:output.obj
 0001:00026ea0       ?type_case_u@?$output_processor@DV?$string_output_adapter@D@__crt_stdio_output@@V?$format_validation_base@DV?$string_output_adapter@D@__crt_stdio_output@@@2@@__crt_stdio_output@@AEAA_NXZ 0000000180027ea0 f i libucrtd:output.obj
 0001:00026ec0       ?type_case_u@?$output_processor@_WV?$string_output_adapter@_W@__crt_stdio_output@@V?$format_validation_base@_WV?$string_output_adapter@_W@__crt_stdio_output@@@2@@__crt_stdio_output@@AEAA_NXZ 0000000180027ec0 f i libucrtd:output.obj
 0001:00026ee0       ?type_case_x@?$output_processor@DV?$string_output_adapter@D@__crt_stdio_output@@V?$format_validation_base@DV?$string_output_adapter@D@__crt_stdio_output@@@2@@__crt_stdio_output@@AEAA_NXZ 0000000180027ee0 f i libucrtd:output.obj
 0001:00026f00       ?type_case_x@?$output_processor@_WV?$string_output_adapter@_W@__crt_stdio_output@@V?$format_validation_base@_WV?$string_output_adapter@_W@__crt_stdio_output@@@2@@__crt_stdio_output@@AEAA_NXZ 0000000180027f00 f i libucrtd:output.obj
 0001:00026f20       ?unget@?$c_string_character_source@D@__crt_strtox@@QEAAXD@Z 0000000180027f20 f i libucrtd:output.obj
 0001:00027000       ?unget@?$c_string_character_source@_W@__crt_strtox@@QEAAX_W@Z 0000000180028000 f i libucrtd:output.obj
 0001:000270e0       ?unset_flag@?$output_processor@DV?$string_output_adapter@D@__crt_stdio_output@@V?$format_validation_base@DV?$string_output_adapter@D@__crt_stdio_output@@@2@@__crt_stdio_output@@AEAAXI@Z 00000001800280e0 f i libucrtd:output.obj
 0001:000270e0       ?unset_flag@?$output_processor@_WV?$string_output_adapter@_W@__crt_stdio_output@@V?$format_validation_base@_WV?$string_output_adapter@_W@__crt_stdio_output@@@2@@__crt_stdio_output@@AEAAXI@Z 00000001800280e0 f i libucrtd:output.obj
 0001:00027110       ?update_field_width@?$standard_base@DV?$string_output_adapter@D@__crt_stdio_output@@@__crt_stdio_output@@IEAA_NXZ 0000000180028110 f i libucrtd:output.obj
 0001:00027110       ?update_field_width@?$standard_base@_WV?$string_output_adapter@_W@__crt_stdio_output@@@__crt_stdio_output@@IEAA_NXZ 0000000180028110 f i libucrtd:output.obj
 0001:00027140       ?update_locale@__crt_cached_ptd_host@@AEAAXXZ 0000000180028140 f i libucrtd:output.obj
 0001:00027170       ?update_locale_slow@__crt_cached_ptd_host@@AEAAXXZ 0000000180028170 f i libucrtd:output.obj
 0001:00027220       ?update_precision@?$standard_base@DV?$string_output_adapter@D@__crt_stdio_output@@@__crt_stdio_output@@IEAA_NXZ 0000000180028220 f i libucrtd:output.obj
 0001:00027220       ?update_precision@?$standard_base@_WV?$string_output_adapter@_W@__crt_stdio_output@@@__crt_stdio_output@@IEAA_NXZ 0000000180028220 f i libucrtd:output.obj
 0001:00027250       ?validate@?$c_string_character_source@D@__crt_strtox@@QEBA_NXZ 0000000180028250 f i libucrtd:output.obj
 0001:00027310       ?validate@?$c_string_character_source@_W@__crt_strtox@@QEBA_NXZ 0000000180028310 f i libucrtd:output.obj
 0001:000273d0       ?validate@?$string_output_adapter@D@__crt_stdio_output@@QEBA_NAEAV__crt_cached_ptd_host@@@Z 00000001800283d0 f i libucrtd:output.obj
 0001:000274b0       ?validate@?$string_output_adapter@_W@__crt_stdio_output@@QEBA_NAEAV__crt_cached_ptd_host@@@Z 00000001800284b0 f i libucrtd:output.obj
 0001:00027590       ?validate_and_update_state_at_end_of_format_string@?$format_validation_base@DV?$string_output_adapter@D@__crt_stdio_output@@@__crt_stdio_output@@IEAA_NXZ 0000000180028590 f i libucrtd:output.obj
 0001:00027680       ?validate_and_update_state_at_end_of_format_string@?$format_validation_base@_WV?$string_output_adapter@_W@__crt_stdio_output@@@__crt_stdio_output@@IEAA_NXZ 0000000180028680 f i libucrtd:output.obj
 0001:00027770       ?wide_character_to_digit@__crt_strtox@@YAH_W@Z 0000000180028770 f i libucrtd:output.obj
 0001:00027ae0       ?wide_null_string@?$output_processor@DV?$string_output_adapter@D@__crt_stdio_output@@V?$format_validation_base@DV?$string_output_adapter@D@__crt_stdio_output@@@2@@__crt_stdio_output@@CAPEA_WXZ 0000000180028ae0 f i libucrtd:output.obj
 0001:00027ae0       ?wide_null_string@?$output_processor@_WV?$string_output_adapter@_W@__crt_stdio_output@@V?$format_validation_base@_WV?$string_output_adapter@_W@__crt_stdio_output@@@2@@__crt_stdio_output@@CAPEA_WXZ 0000000180028ae0 f i libucrtd:output.obj
 0001:00027af0       ?write_character@?$string_output_adapter@D@__crt_stdio_output@@QEBA_NDQEAHAEAV__crt_cached_ptd_host@@@Z 0000000180028af0 f i libucrtd:output.obj
 0001:00027bc0       ?write_character@?$string_output_adapter@_W@__crt_stdio_output@@QEBA_N_WQEAHAEAV__crt_cached_ptd_host@@@Z 0000000180028bc0 f i libucrtd:output.obj
 0001:00027c90       ?write_stored_string_tchar@?$output_processor@DV?$string_output_adapter@D@__crt_stdio_output@@V?$format_validation_base@DV?$string_output_adapter@D@__crt_stdio_output@@@2@@__crt_stdio_output@@AEAA_ND@Z 0000000180028c90 f i libucrtd:output.obj
 0001:00027e40       ?write_stored_string_tchar@?$output_processor@_WV?$string_output_adapter@_W@__crt_stdio_output@@V?$format_validation_base@_WV?$string_output_adapter@_W@__crt_stdio_output@@@2@@__crt_stdio_output@@AEAA_N_W@Z 0000000180028e40 f i libucrtd:output.obj
 0001:00027fa0       ?write_string@?$string_output_adapter@D@__crt_stdio_output@@QEBAXQEBDHQEAHAEAV__crt_cached_ptd_host@@@Z 0000000180028fa0 f i libucrtd:output.obj
 0001:00028110       ?write_string@?$string_output_adapter@_W@__crt_stdio_output@@QEBAXQEB_WHQEAHAEAV__crt_cached_ptd_host@@@Z 0000000180029110 f i libucrtd:output.obj
 0001:00028280       __acrt_isleadbyte_l_noupdate 0000000180029280 f i libucrtd:output.obj
 0001:000282b0       __acrt_locale_get_ctype_array_value 00000001800292b0 f i libucrtd:output.obj
 0001:000282f0       __ascii_iswalpha           00000001800292f0 f i libucrtd:output.obj
 0001:00028330       __ascii_toupper            0000000180029330 f i libucrtd:output.obj
 0001:00028350       __ascii_towupper           0000000180029350 f i libucrtd:output.obj
 0001:00028370       __stdio_common_vsnprintf_s 0000000180029370 f   libucrtd:output.obj
 0001:00028400       __stdio_common_vsnwprintf_s 0000000180029400 f   libucrtd:output.obj
 0001:00028490       __stdio_common_vsprintf_s  0000000180029490 f   libucrtd:output.obj
 0001:00028520       _ctype_fast_check_internal 0000000180029520 f i libucrtd:output.obj
 0001:00028550       _isdigit_fast_internal     0000000180029550 f i libucrtd:output.obj
 0001:00028580       _tolower_fast_internal     0000000180029580 f i libucrtd:output.obj
 0001:00029380       ??$get_module_file_name@AEAPEAUHINSTANCE__@@AEAY0BAF@_WK@?$__crt_char_traits@_W@@SAKAEAPEAUHINSTANCE__@@AEAY0BAF@_W$$QEAK@Z 000000018002a380 f i libucrtd:dbgrpt.obj
 0001:000293c0       ??$tcscpy_s@AEAY0BAF@D_KPEBD@?$__crt_char_traits@D@@SAHAEAY0BAF@D$$QEA_K$$QEAPEBD@Z 000000018002a3c0 f i libucrtd:dbgrpt.obj
 0001:00029400       ??$tcscpy_s@AEAY0BAF@_W_KPEB_W@?$__crt_char_traits@_W@@SAHAEAY0BAF@_W$$QEA_K$$QEAPEB_W@Z 000000018002a400 f i libucrtd:dbgrpt.obj
 0001:00029440       ??$tcslen@AEAY0BAF@D@?$__crt_char_traits@D@@SA_KAEAY0BAF@D@Z 000000018002a440 f i libucrtd:dbgrpt.obj
 0001:00029460       ??$tcslen@AEAY0BAF@_W@?$__crt_char_traits@_W@@SA_KAEAY0BAF@_W@Z 000000018002a460 f i libucrtd:dbgrpt.obj
 0001:00029480       ??$tcslen@AEBQEB_W@?$__crt_char_traits@_W@@SA_KAEBQEB_W@Z 000000018002a480 f i libucrtd:dbgrpt.obj
 0001:000294e0       _CrtDbgReport              000000018002a4e0 f   libucrtd:dbgrpt.obj
 0001:00029560       _CrtDbgReportW             000000018002a560 f   libucrtd:dbgrpt.obj
 0001:000295e0       __acrt_MessageWindowA      000000018002a5e0 f   libucrtd:dbgrpt.obj
 0001:00029630       __acrt_MessageWindowW      000000018002a630 f   libucrtd:dbgrpt.obj
 0001:00029680       _snwprintf_s               000000018002a680 f i libucrtd:dbgrpt.obj
 0001:000296f0       _vsnwprintf_s_l            000000018002a6f0 f i libucrtd:dbgrpt.obj
 0001:00029780       strncmp                    000000018002a780 f   libucrtd:strncmp.obj
 0001:00029800       wcsncmp                    000000018002a800 f   libucrtd:wcsncmp.obj
 0001:00029890       free                       000000018002a890 f   libucrtd:free.obj
 0001:000298c0       malloc                     000000018002a8c0 f   libucrtd:malloc.obj
 0001:000298f0       _fd_int                    000000018002a8f0 f   libucrtd:_test.obj
 0001:00029b20       __remainder_piby2d2f_forAsm 000000018002ab20 f   libucrtd:remainder_piby2f_forasm.obj
 0001:00029c70       __remainder_piby2_fma3     000000018002ac70 f   libucrtd:remainder_piby2_forfma3.obj
 0001:00029e60       __remainder_piby2_fma3_bdl 000000018002ae60 f   libucrtd:remainder_piby2_forfma3.obj
 0001:00029ee0       _cosf_special              000000018002aee0 f   libucrtd:sincos_special.obj
 0001:0002a020       _sinf_special              000000018002b020 f   libucrtd:sincos_special.obj
 0001:0002a050       _clrfp                     000000018002b050 f   libucrtd:fpctrl.obj
 0001:0002a080       _ctrlfp                    000000018002b080 f   libucrtd:fpctrl.obj
 0001:0002a130       _set_statfp                000000018002b130 f   libucrtd:fpctrl.obj
 0001:0002a170       _statfp                    000000018002b170 f   libucrtd:fpctrl.obj
 0001:0002a1a0       __acrt_initialize_fma3     000000018002b1a0 f   libucrtd:fma3_available.obj
 0001:0002a250       __remainder_piby2d2f_forC  000000018002b250 f   libucrtd:remainder_piby2f_forc.obj
 0001:0002a5b0       _handle_error              000000018002b5b0 f   libucrtd:libm_error.obj
 0001:0002a740       _handle_errorf             000000018002b740 f   libucrtd:libm_error.obj
 0001:0002a8d0       _handle_nan                000000018002b8d0 f   libucrtd:libm_error.obj
 0001:0002a920       _handle_nanf               000000018002b920 f   libucrtd:libm_error.obj
 0001:0002b2a0       __acrt_freeptd             000000018002c2a0 f   libucrtd:per_thread_data.obj
 0001:0002b2e0       __acrt_getptd              000000018002c2e0 f   libucrtd:per_thread_data.obj
 0001:0002b310       __acrt_getptd_head         000000018002c310 f   libucrtd:per_thread_data.obj
 0001:0002b340       __acrt_getptd_noexit       000000018002c340 f   libucrtd:per_thread_data.obj
 0001:0002b350       __acrt_getptd_noexit_explicit 000000018002c350 f   libucrtd:per_thread_data.obj
 0001:0002b380       __acrt_initialize_ptd      000000018002c380 f   libucrtd:per_thread_data.obj
 0001:0002b3c0       __acrt_uninitialize_ptd    000000018002c3c0 f   libucrtd:per_thread_data.obj
 0001:0002b3f0       __acrt_initialize_locks    000000018002c3f0 f   libucrtd:locks.obj
 0001:0002b460       __acrt_lock                000000018002c460 f   libucrtd:locks.obj
 0001:0002b490       __acrt_uninitialize_locks  000000018002c490 f   libucrtd:locks.obj
 0001:0002b4f0       __acrt_unlock              000000018002c4f0 f   libucrtd:locks.obj
 0001:0002b520       __acrt_app_verifier_enabled 000000018002c520 f   libucrtd:peb_access.obj
 0001:0002b560       __acrt_is_secure_process   000000018002c560 f   libucrtd:peb_access.obj
 0001:0002b850       __acrt_get_developer_information_policy 000000018002c850 f   libucrtd:win_policies.obj
 0001:0002b870       __acrt_get_process_end_policy 000000018002c870 f   libucrtd:win_policies.obj
 0001:0002b880       __acrt_get_windowing_model_policy 000000018002c880 f   libucrtd:win_policies.obj
 0001:0002b8a0       ?get_doserrno@__crt_cached_ptd_host@@QEAA@XZ 000000018002c8a0 f i libucrtd:errno.obj
 0001:0002b8b0       __acrt_errno_from_os_error 000000018002c8b0 f   libucrtd:errno.obj
 0001:0002b940       __acrt_errno_map_os_error  000000018002c940 f   libucrtd:errno.obj
 0001:0002b970       __acrt_errno_map_os_error_ptd 000000018002c970 f   libucrtd:errno.obj
 0001:0002b9d0       __doserrno                 000000018002c9d0 f   libucrtd:errno.obj
 0001:0002ba00       _errno                     000000018002ca00 f   libucrtd:errno.obj
 0001:0002ba60       ??$__acrt_convert_wcs_mbs_cp@D_WV<lambda_7c9dea7b4ca7285d2cdb541a38da6275>@@U__crt_win32_buffer_internal_dynamic_resizing@@@@YAHQEBDAEAV?$__crt_win32_buffer@_WU__crt_win32_buffer_internal_dynamic_resizing@@@@AEBV<lambda_7c9dea7b4ca7285d2cdb541a38da6275>@@I@Z 000000018002ca60 f i libucrtd:argv_wildcards.obj
 0001:0002bc10       ??$__acrt_convert_wcs_mbs_cp@_WDV<lambda_d8593a27d1aa8c02be35c86a17d324c4>@@U__crt_win32_buffer_internal_dynamic_resizing@@@@YAHQEB_WAEAV?$__crt_win32_buffer@DU__crt_win32_buffer_internal_dynamic_resizing@@@@AEBV<lambda_d8593a27d1aa8c02be35c86a17d324c4>@@I@Z 000000018002cc10 f i libucrtd:argv_wildcards.obj
 0001:0002bdc0       ??$__acrt_mbs_to_wcs_cp@U__crt_win32_buffer_internal_dynamic_resizing@@@@YAHQEBDAEAV?$__crt_win32_buffer@_WU__crt_win32_buffer_internal_dynamic_resizing@@@@I@Z 000000018002cdc0 f i libucrtd:argv_wildcards.obj
 0001:0002be10       ??$__acrt_wcs_to_mbs_cp@U__crt_win32_buffer_internal_dynamic_resizing@@@@YAHQEB_WAEAV?$__crt_win32_buffer@DU__crt_win32_buffer_internal_dynamic_resizing@@@@I@Z 000000018002ce10 f i libucrtd:argv_wildcards.obj
 0001:0002c850       ??$tcsncpy_s@AEAPEAD_KAEAPEADAEB_K@?$__crt_char_traits@D@@SAHAEAPEAD$$QEA_K0AEB_K@Z 000000018002d850 f i libucrtd:argv_wildcards.obj
 0001:0002c850       ??$tcsncpy_s@PEADAEB_KAEBQEBDAEB_K@?$__crt_char_traits@D@@SAH$$QEAPEADAEB_KAEBQEBD1@Z 000000018002d850 f i libucrtd:argv_wildcards.obj
 0001:0002c850       ??$tcsncpy_s@PEAD_KAEBQEBDAEB_K@?$__crt_char_traits@D@@SAH$$QEAPEAD$$QEA_KAEBQEBDAEB_K@Z 000000018002d850 f i libucrtd:argv_wildcards.obj
 0001:0002c8a0       ??$tcspbrk@AEAPEADAEAY02$$CBD@?$__crt_char_traits@D@@SAPEADAEAPEADAEAY02$$CBD@Z 000000018002d8a0 f i libucrtd:argv_wildcards.obj
 0001:0002c8d0       ??0?$__crt_win32_buffer@DU__crt_win32_buffer_internal_dynamic_resizing@@@@QEAA@XZ 000000018002d8d0 f i libucrtd:argv_wildcards.obj
 0001:0002c8d0       ??0?$__crt_win32_buffer@_WU__crt_win32_buffer_internal_dynamic_resizing@@@@QEAA@XZ 000000018002d8d0 f i libucrtd:argv_wildcards.obj
 0001:0002c970       ??1?$__crt_unique_handle_t@U__crt_findfile_traits@@@@QEAA@XZ 000000018002d970 f i libucrtd:argv_wildcards.obj
 0001:0002c990       ??1?$__crt_win32_buffer@DU__crt_win32_buffer_internal_dynamic_resizing@@@@QEAA@XZ 000000018002d990 f i libucrtd:argv_wildcards.obj
 0001:0002c990       ??1?$__crt_win32_buffer@_WU__crt_win32_buffer_internal_dynamic_resizing@@@@QEAA@XZ 000000018002d990 f i libucrtd:argv_wildcards.obj
 0001:0002ca40       ??R<lambda_7c9dea7b4ca7285d2cdb541a38da6275>@@QEBA@IQEBDQEA_W_K@Z 000000018002da40 f i libucrtd:argv_wildcards.obj
 0001:0002cb20       ??R<lambda_d8593a27d1aa8c02be35c86a17d324c4>@@QEBA@IQEB_WQEAD_K@Z 000000018002db20 f i libucrtd:argv_wildcards.obj
 0001:0002cb20       ??R<lambda_f788ae46380686e8b737efdd8c720d07>@@QEBA@IQEB_WQEAD_K@Z 000000018002db20 f i libucrtd:getmodulefilenamea.obj
 0001:0002cb80       ?__acrt_get_utf8_acp_compatibility_codepage@@YAIXZ 000000018002db80 f i libucrtd:argv_wildcards.obj
 0001:0002cc20       ?_deallocate@?$__crt_win32_buffer@DU__crt_win32_buffer_internal_dynamic_resizing@@@@AEAAXXZ 000000018002dc20 f i libucrtd:argv_wildcards.obj
 0001:0002cc20       ?_deallocate@?$__crt_win32_buffer@_WU__crt_win32_buffer_internal_dynamic_resizing@@@@AEAAXXZ 000000018002dc20 f i libucrtd:argv_wildcards.obj
 0001:0002cc70       ?allocate@?$__crt_win32_buffer@DU__crt_win32_buffer_internal_dynamic_resizing@@@@QEAAH_K@Z 000000018002dc70 f i libucrtd:argv_wildcards.obj
 0001:0002ccf0       ?allocate@?$__crt_win32_buffer@_WU__crt_win32_buffer_internal_dynamic_resizing@@@@QEAAH_K@Z 000000018002dcf0 f i libucrtd:argv_wildcards.obj
 0001:0002cd80       ?allocate@__crt_win32_buffer_internal_dynamic_resizing@@SAHQEAPEAX_KAEBV__crt_win32_buffer_empty_debug_info@@@Z 000000018002dd80 f i libucrtd:argv_wildcards.obj
 0001:0002ce50       ?capacity@?$__crt_win32_buffer@DU__crt_win32_buffer_internal_dynamic_resizing@@@@QEBA_KXZ 000000018002de50 f i libucrtd:argv_wildcards.obj
 0001:0002ce50       ?capacity@?$__crt_win32_buffer@DU__crt_win32_buffer_no_resizing@@@@QEBA_KXZ 000000018002de50 f i libucrtd:getmodulefilenamea.obj
 0001:0002ce50       ?capacity@?$__crt_win32_buffer@_WU__crt_win32_buffer_internal_dynamic_resizing@@@@QEBA_KXZ 000000018002de50 f i libucrtd:argv_wildcards.obj
 0001:0002ce60       ?close@?$__crt_unique_handle_t@U__crt_findfile_traits@@@@QEAAXXZ 000000018002de60 f i libucrtd:argv_wildcards.obj
 0001:0002cea0       ?close@__crt_findfile_traits@@SA_NPEAX@Z 000000018002dea0 f i libucrtd:argv_wildcards.obj
 0001:0002cee0       ?data@?$__crt_win32_buffer@DU__crt_win32_buffer_internal_dynamic_resizing@@@@QEAAPEADXZ 000000018002dee0 f i libucrtd:argv_wildcards.obj
 0001:0002cee0       ?data@?$__crt_win32_buffer@DU__crt_win32_buffer_no_resizing@@@@QEAAPEADXZ 000000018002dee0 f i libucrtd:getmodulefilenamea.obj
 0001:0002cee0       ?data@?$__crt_win32_buffer@_WU__crt_win32_buffer_internal_dynamic_resizing@@@@QEAAPEA_WXZ 000000018002dee0 f i libucrtd:argv_wildcards.obj
 0001:0002cef0       ?deallocate@__crt_win32_buffer_internal_dynamic_resizing@@SAXQEAXAEBV__crt_win32_buffer_empty_debug_info@@@Z 000000018002def0 f i libucrtd:argv_wildcards.obj
 0001:0002d1e0       ?set_to_nullptr@?$__crt_win32_buffer@DU__crt_win32_buffer_internal_dynamic_resizing@@@@QEAAXXZ 000000018002e1e0 f i libucrtd:argv_wildcards.obj
 0001:0002d1e0       ?set_to_nullptr@?$__crt_win32_buffer@_WU__crt_win32_buffer_internal_dynamic_resizing@@@@QEAAXXZ 000000018002e1e0 f i libucrtd:argv_wildcards.obj
 0001:0002d220       ?size@?$__crt_win32_buffer@DU__crt_win32_buffer_internal_dynamic_resizing@@@@QEAAX_K@Z 000000018002e220 f i libucrtd:argv_wildcards.obj
 0001:0002d220       ?size@?$__crt_win32_buffer@DU__crt_win32_buffer_no_resizing@@@@QEAAX_K@Z 000000018002e220 f i libucrtd:getmodulefilenamea.obj
 0001:0002d220       ?size@?$__crt_win32_buffer@_WU__crt_win32_buffer_internal_dynamic_resizing@@@@QEAAX_K@Z 000000018002e220 f i libucrtd:argv_wildcards.obj
 0001:0002d260       ?strpbrk@@YAPEADQEADQEBD@Z 000000018002e260 f i libucrtd:argv_wildcards.obj
 0001:0002d290       __acrt_expand_narrow_argv_wildcards 000000018002e290 f   libucrtd:argv_wildcards.obj
 0001:0002d2c0       ??$__acrt_convert_wcs_mbs_cp@_WDV<lambda_f788ae46380686e8b737efdd8c720d07>@@U__crt_win32_buffer_no_resizing@@@@YAHQEB_WAEAV?$__crt_win32_buffer@DU__crt_win32_buffer_no_resizing@@@@AEBV<lambda_f788ae46380686e8b737efdd8c720d07>@@I@Z 000000018002e2c0 f i libucrtd:getmodulefilenamea.obj
 0001:0002d470       ??$__acrt_wcs_to_mbs_cp@U__crt_win32_buffer_no_resizing@@@@YAHQEB_WAEAV?$__crt_win32_buffer@DU__crt_win32_buffer_no_resizing@@@@I@Z 000000018002e470 f i libucrtd:getmodulefilenamea.obj
 0001:0002d4c0       ??0?$__crt_win32_buffer@DU__crt_win32_buffer_no_resizing@@@@QEAA@QEAD_K@Z 000000018002e4c0 f i libucrtd:getmodulefilenamea.obj
 0001:0002d530       ??1?$__crt_win32_buffer@DU__crt_win32_buffer_no_resizing@@@@QEAA@XZ 000000018002e530 f i libucrtd:getmodulefilenamea.obj
 0001:0002d560       ?_deallocate@?$__crt_win32_buffer@DU__crt_win32_buffer_no_resizing@@@@AEAAXXZ 000000018002e560 f i libucrtd:getmodulefilenamea.obj
 0001:0002d5b0       ?allocate@?$__crt_win32_buffer@DU__crt_win32_buffer_no_resizing@@@@QEAAH_K@Z 000000018002e5b0 f i libucrtd:getmodulefilenamea.obj
 0001:0002d630       ?allocate@__crt_win32_buffer_no_resizing@@SAHQEAPEAX_KAEBV__crt_win32_buffer_empty_debug_info@@@Z 000000018002e630 f i libucrtd:getmodulefilenamea.obj
 0001:0002d660       ?deallocate@__crt_win32_buffer_no_resizing@@SAXQEAXAEBV__crt_win32_buffer_empty_debug_info@@@Z 000000018002e660 f i libucrtd:getmodulefilenamea.obj
 0001:0002d670       ?set_to_nullptr@?$__crt_win32_buffer@DU__crt_win32_buffer_no_resizing@@@@QEAAXXZ 000000018002e670 f i libucrtd:getmodulefilenamea.obj
 0001:0002d6b0       ?size@?$__crt_win32_buffer@DU__crt_win32_buffer_no_resizing@@@@QEBA_KXZ 000000018002e6b0 f i libucrtd:getmodulefilenamea.obj
 0001:0002d6c0       __acrt_GetModuleFileNameA  000000018002e6c0 f   libucrtd:getmodulefilenamea.obj
 0001:0002d840       ??$initialize_from_array@$$BY10BAA@E@?$dual_state_global@PEAE@__crt_state_management@@QEAAXAEAY10BAA@E@Z 000000018002e840 f i libucrtd:mbctype.obj
 0001:0002d8b0       ??$initialize_from_array@$$BY10BAB@E@?$dual_state_global@PEAE@__crt_state_management@@QEAAXAEAY10BAB@E@Z 000000018002e8b0 f i libucrtd:mbctype.obj
 0001:0002e450       __acrt_initialize_multibyte 000000018002f450 f   libucrtd:mbctype.obj
 0001:0002e520       __acrt_should_sync_with_global_locale 000000018002f520 f i libucrtd:mbctype.obj
 0001:0002e560       __acrt_update_thread_multibyte_data 000000018002f560 f   libucrtd:mbctype.obj
 0001:0002e5a0       _setmbcp_nolock            000000018002f5a0 f   libucrtd:mbctype.obj
 0001:0002ec90       _ismbblead                 000000018002fc90 f   libucrtd:ismbbyte.obj
 0001:0002ecc0       __acrt_initialize_command_line 000000018002fcc0 f   libucrtd:argv_data.obj
 0001:0002f1f0       wcscpy_s                   00000001800301f0 f   libucrtd:wcscpy_s.obj
 0001:00030520       ??1?$__crt_simd_cleanup_guard@$00@@QEAA@XZ 0000000180031520 f i libucrtd:strnlen.obj
 0001:00030530       ?compare_equals@?$__crt_simd_traits@$00E@@SA?AT__m256i@@T2@0@Z 0000000180031530 f i libucrtd:strnlen.obj
 0001:00030570       ?compare_equals@?$__crt_simd_traits@$00G@@SA?AT__m256i@@T2@0@Z 0000000180031570 f i libucrtd:strnlen.obj
 0001:000305b0       ?compare_equals@?$__crt_simd_traits@$0A@E@@SA?AT__m128i@@T2@0@Z 00000001800315b0 f i libucrtd:strnlen.obj
 0001:000305e0       ?compare_equals@?$__crt_simd_traits@$0A@G@@SA?AT__m128i@@T2@0@Z 00000001800315e0 f i libucrtd:strnlen.obj
 0001:00030610       ?compute_byte_mask@?$__crt_simd_pack_traits@$00@@SAHT__m256i@@@Z 0000000180031610 f i libucrtd:strnlen.obj
 0001:00030630       ?compute_byte_mask@?$__crt_simd_pack_traits@$0A@@@SAHT__m128i@@@Z 0000000180031630 f i libucrtd:strnlen.obj
 0001:00030650       ?get_zero_pack@?$__crt_simd_pack_traits@$00@@SA?AT__m256i@@XZ 0000000180031650 f i libucrtd:strnlen.obj
 0001:00030680       ?get_zero_pack@?$__crt_simd_pack_traits@$0A@@@SA?AT__m128i@@XZ 0000000180031680 f i libucrtd:strnlen.obj
 0001:000306a0       strnlen                    00000001800316a0 f   libucrtd:strnlen.obj
 0001:000306d0       wcslen                     00000001800316d0 f   libucrtd:strnlen.obj
 0001:000306f0       wcsnlen                    00000001800316f0 f   libucrtd:strnlen.obj
 0001:00030830       __acrt_MultiByteToWideChar 0000000180031830 f   libucrtd:multibytetowidechar.obj
 0001:000309a0       __acrt_WideCharToMultiByte 00000001800319a0 f   libucrtd:widechartomultibyte.obj
 0001:00030be0       __dcrt_get_narrow_environment_from_os 0000000180031be0 f   libucrtd:get_environment_from_os.obj
 0001:000314c0       GetCurrentThreadEffectiveToken 00000001800324c0 f i libucrtd:winapi_thunks.obj
 0001:000314d0       __acrt_AppPolicyGetProcessTerminationMethodInternal 00000001800324d0 f   libucrtd:winapi_thunks.obj
 0001:00031530       __acrt_AppPolicyGetShowDeveloperDiagnosticInternal 0000000180032530 f   libucrtd:winapi_thunks.obj
 0001:00031590       __acrt_AppPolicyGetWindowingModelInternal 0000000180032590 f   libucrtd:winapi_thunks.obj
 0001:000315f0       __acrt_AreFileApisANSI     00000001800325f0 f   libucrtd:winapi_thunks.obj
 0001:00031640       __acrt_FlsAlloc            0000000180032640 f   libucrtd:winapi_thunks.obj
 0001:00031660       __acrt_FlsFree             0000000180032660 f   libucrtd:winapi_thunks.obj
 0001:00031680       __acrt_FlsGetValue         0000000180032680 f   libucrtd:winapi_thunks.obj
 0001:000316a0       __acrt_FlsSetValue         00000001800326a0 f   libucrtd:winapi_thunks.obj
 0001:000316d0       __acrt_InitializeCriticalSectionEx 00000001800326d0 f   libucrtd:winapi_thunks.obj
 0001:00031750       __acrt_LCMapStringEx       0000000180032750 f   libucrtd:winapi_thunks.obj
 0001:00031860       __acrt_LocaleNameToLCID    0000000180032860 f   libucrtd:winapi_thunks.obj
 0001:000318d0       __acrt_MessageBoxW         00000001800328d0 f   libucrtd:winapi_thunks.obj
 0001:00031950       __acrt_can_show_message_box 0000000180032950 f   libucrtd:winapi_thunks.obj
 0001:00031990       __acrt_get_parent_window   0000000180032990 f   libucrtd:winapi_thunks.obj
 0001:00031a30       __acrt_initialize_winapi_thunks 0000000180032a30 f   libucrtd:winapi_thunks.obj
 0001:00031ab0       __acrt_is_interactive      0000000180032ab0 f   libucrtd:winapi_thunks.obj
 0001:00031bc0       __acrt_uninitialize_winapi_thunks 0000000180032bc0 f   libucrtd:winapi_thunks.obj
 0001:00031c60       __acrt_initialize_heap     0000000180032c60 f   libucrtd:heap_handle.obj
 0001:00031c90       __acrt_uninitialize_heap   0000000180032c90 f   libucrtd:heap_handle.obj
 0001:00032050       __acrt_initialize_lowio    0000000180033050 f   libucrtd:ioinit.obj
 0001:000320a0       __acrt_uninitialize_lowio  00000001800330a0 f   libucrtd:ioinit.obj
 0001:00032120       __acrt_execute_initializers 0000000180033120 f   libucrtd:shared_initialization.obj
 0001:00032220       __acrt_execute_uninitializers 0000000180033220 f   libucrtd:shared_initialization.obj
 0001:000322b0       __acrt_initialize_new_handler 00000001800332b0 f   libucrtd:new_handler.obj
 0001:000322d0       _callnewh                  00000001800332d0 f   libucrtd:new_handler.obj
 0001:00032330       _query_new_handler         0000000180033330 f   libucrtd:new_handler.obj
 0001:00032540       __acrt_get_sigabrt_handler 0000000180033540 f   libucrtd:signal.obj
 0001:00032570       __acrt_initialize_signal_handlers 0000000180033570 f   libucrtd:signal.obj
 0001:000325d0       __fpecode                  00000001800335d0 f   libucrtd:signal.obj
 0001:000325f0       raise                      00000001800335f0 f   libucrtd:signal.obj
 0001:00032b00       __acrt_has_user_matherr    0000000180033b00 f   libucrtd:matherr.obj
 0001:00032b40       __acrt_initialize_user_matherr 0000000180033b40 f   libucrtd:matherr.obj
 0001:00032b60       __acrt_invoke_user_matherr 0000000180033b60 f   libucrtd:matherr.obj
 0001:00032bd0       ?has_any_of@__crt_stdio_stream@@QEBA_NJ@Z 0000000180033bd0 f i libucrtd:_sftbuf.obj
 0001:00032c10       ?set_flags@__crt_stdio_stream@@QEBA_NJ@Z 0000000180033c10 f i libucrtd:_sftbuf.obj
 0001:00032c80       ?unset_flags@__crt_stdio_stream@@QEBA_NJ@Z 0000000180033c80 f i libucrtd:_sftbuf.obj
 0001:00032ce0       _chvalidator_l             0000000180033ce0 f   libucrtd:isctype.obj
 0001:00032d90       _isctype_l                 0000000180033d90 f   libucrtd:isctype.obj
 0001:00032fc0       _isleadbyte_fast_internal  0000000180033fc0 f i libucrtd:isctype.obj
 0001:00033000       _free_base                 0000000180034000 f   libucrtd:free_base.obj
 0001:00033060       _realloc_base              0000000180034060 f   libucrtd:realloc_base.obj
 0001:00033180       _expand_base               0000000180034180 f   libucrtd:expand.obj
 0001:00033310       ?value_explicit@?$dual_state_global@PEAU__crt_locale_data@@@__crt_state_management@@QEAAAEAPEAU__crt_locale_data@@_K@Z 0000000180034310 f i libucrtd:locale_update.obj
 0001:00033310       ?value_explicit@?$dual_state_global@PEAU__crt_multibyte_data@@@__crt_state_management@@QEAAAEAPEAU__crt_multibyte_data@@_K@Z 0000000180034310 f i libucrtd:locale_update.obj
 0001:00033330       __acrt_update_locale_info  0000000180034330 f   libucrtd:locale_update.obj
 0001:00033380       __acrt_update_locale_info_explicit 0000000180034380 f   libucrtd:locale_update.obj
 0001:000333e0       __acrt_update_multibyte_info 00000001800343e0 f   libucrtd:locale_update.obj
 0001:00033430       __acrt_update_multibyte_info_explicit 0000000180034430 f   libucrtd:locale_update.obj
 0001:00033490       ?value@?$dual_state_global@J@__crt_state_management@@QEAAAEAJXZ 0000000180034490 f i libucrtd:new_mode.obj
 0001:000334b0       _query_new_mode            00000001800344b0 f   libucrtd:new_mode.obj
 0001:000334d0       _CrtDefaultAllocHook       00000001800344d0 f   libucrtd:debug_heap_hook.obj
 0001:00033670       __acrt_set_locale_changed  0000000180034670 f   libucrtd:wsetlocale.obj
 0001:00033680       __acrt_uninitialize_locale 0000000180034680 f   libucrtd:wsetlocale.obj
 0001:000336b0       __ascii_tolower            00000001800346b0 f i libucrtd:wsetlocale.obj
 0001:000336d0       __ascii_towlower           00000001800346d0 f i libucrtd:wsetlocale.obj
 0001:000336f0       _CrtGetDebugFillThreshold  00000001800346f0 f   libucrtd:debug_fill_threshold.obj
 0001:000338d0       __acrt_report_runtime_error 00000001800348d0 f   libucrtd:report_runtime_error.obj
 0001:00033b50       _query_app_type            0000000180034b50 f   libucrtd:report_runtime_error.obj
 0001:00033b60       ?__acrt_fp_classify@@YA?AW4__acrt_fp_class@@AEBN@Z 0000000180034b60 f i libucrtd:cvt.obj
 0001:00033c60       ?__acrt_fp_is_negative@@YA_NAEBN@Z 0000000180034c60 f i libucrtd:cvt.obj
 0001:00035580       ?strrchr@@YAPEADQEADH@Z    0000000180036580 f i libucrtd:cvt.obj
 0001:000355a0       __acrt_fp_format           00000001800365a0 f   libucrtd:cvt.obj
 0001:00035c70       ?value_or@?$cached@H@__crt_cached_ptd_host@@QEBAHH@Z 0000000180036c70 f i libucrtd:wctomb.obj
 0001:00035ca0       _wctomb_internal           0000000180036ca0 f   libucrtd:wctomb.obj
 0001:00036200       _mbtowc_internal           0000000180037200 f   libucrtd:mbtowc.obj
 0001:00036590       ?lowio_handle@__crt_stdio_stream@@QEBAHXZ 0000000180037590 f i libucrtd:fileno.obj
 0001:000365c0       _fileno                    00000001800375c0 f   libucrtd:fileno.obj
 0001:000366a0       __acrt_initialize_stdio    00000001800376a0 f   libucrtd:_file.obj
 0001:00036890       __acrt_uninitialize_stdio  0000000180037890 f   libucrtd:_file.obj
 0001:00036920       _lock_file                 0000000180037920 f   libucrtd:_file.obj
 0001:00036960       _unlock_file               0000000180037960 f   libucrtd:_file.obj
 0001:000369a0       _get_printf_count_output   00000001800379a0 f   libucrtd:printf_count_output.obj
 0001:000369d0       _VCrtDbgReportA            00000001800379d0 f   libucrtd:dbgrptt.obj
 0001:00037410       _VCrtDbgReportW            0000000180038410 f   libucrtd:dbgrptt.obj
 0001:00038020       _snprintf_s                0000000180039020 f i libucrtd:dbgrptt.obj
 0001:00038090       _vsnprintf_s               0000000180039090 f i libucrtd:dbgrptt.obj
 0001:000380e0       _vsnprintf_s_l             00000001800390e0 f i libucrtd:dbgrptt.obj
 0001:000382a0       ??$message_box@$$TAEBQEB_WAEBQEB_WK@?$__crt_char_traits@_W@@SAH$$QEA$$TAEBQEB_W1$$QEAK@Z 00000001800392a0 f i libucrtd:crtmbox.obj
 0001:000382a0       ??$message_box@PEAUHWND__@@AEBQEB_WAEBQEB_WAEBI@?$__crt_char_traits@_W@@SAH$$QEAPEAUHWND__@@AEBQEB_W1AEBI@Z 00000001800392a0 f i libucrtd:crtmbox.obj
 0001:000382f0       ??$output_debug_string@AEBQEB_W@?$__crt_char_traits@_W@@SAXAEBQEB_W@Z 00000001800392f0 f i libucrtd:crtmbox.obj
 0001:00038310       __acrt_show_wide_message_box 0000000180039310 f   libucrtd:crtmbox.obj
 0001:00038340       ??I@YA?AW4__acrt_fenv_abstract_control@@W40@0@Z 0000000180039340 f i libucrtd:_fenvutils.obj
 0001:00038340       ??I@YA?AW4__acrt_fenv_abstract_status@@W40@0@Z 0000000180039340 f i libucrtd:fesetexceptflag.obj
 0001:00038340       ??I@YA?AW4__acrt_fenv_machine_sse_status@@W40@0@Z 0000000180039340 f i libucrtd:_fenvutils.obj
 0001:00038360       ??_5@YAAEAW4__acrt_fenv_abstract_control@@AEAW40@W40@@Z 0000000180039360 f i libucrtd:_fenvutils.obj
 0001:00038360       ??_5@YAAEAW4__acrt_fenv_abstract_status@@AEAW40@W40@@Z 0000000180039360 f i libucrtd:fesetexceptflag.obj
 0001:00038360       ??_5@YAAEAW4__acrt_fenv_machine_sse_status@@AEAW40@W40@@Z 0000000180039360 f i libucrtd:_fenvutils.obj
 0001:00038390       ??$__acrt_fenv_shift_bits@W4__acrt_fenv_abstract_control@@@@YA?AW4__acrt_fenv_abstract_control@@W40@0I@Z 0000000180039390 f i libucrtd:_fenvutils.obj
 0001:00038390       ??$__acrt_fenv_shift_bits@W4__acrt_fenv_abstract_status@@@@YA?AW4__acrt_fenv_abstract_status@@W40@0I@Z 0000000180039390 f i libucrtd:_fenvutils.obj
 0001:000383c0       ??$__acrt_fenv_translate_bit@W4__acrt_fenv_abstract_control@@W4__acrt_fenv_machine_sse_control@@@@YA?AW4__acrt_fenv_abstract_control@@W4__acrt_fenv_machine_sse_control@@0W40@1@Z 00000001800393c0 f i libucrtd:_fenvutils.obj
 0001:00038420       ??$__acrt_fenv_translate_bit@W4__acrt_fenv_abstract_status@@W4__acrt_fenv_machine_sse_status@@@@YA?AW4__acrt_fenv_abstract_status@@W4__acrt_fenv_machine_sse_status@@0W40@1@Z 0000000180039420 f i libucrtd:_fenvutils.obj
 0001:00038420       ??$__acrt_fenv_translate_bit@W4__acrt_fenv_machine_sse_status@@W4__acrt_fenv_abstract_status@@@@YA?AW4__acrt_fenv_machine_sse_status@@W4__acrt_fenv_abstract_status@@0W40@1@Z 0000000180039420 f i libucrtd:_fenvutils.obj
 0001:00038470       ??$__acrt_fenv_translate_bit@W4__acrt_fenv_machine_sse_control@@W4__acrt_fenv_abstract_control@@@@YA?AW4__acrt_fenv_machine_sse_control@@W4__acrt_fenv_abstract_control@@0W40@1@Z 0000000180039470 f i libucrtd:_fenvutils.obj
 0001:000384d0       ??$__acrt_fenv_unshift_bits@W4__acrt_fenv_abstract_control@@@@YA?AW4__acrt_fenv_abstract_control@@W40@0I@Z 00000001800394d0 f i libucrtd:_fenvutils.obj
 0001:000384d0       ??$__acrt_fenv_unshift_bits@W4__acrt_fenv_abstract_status@@@@YA?AW4__acrt_fenv_abstract_status@@W40@0I@Z 00000001800394d0 f i libucrtd:_fenvutils.obj
 0001:000389c0       ??I@YA?AW4__acrt_fenv_machine_sse_control@@W40@0@Z 00000001800399c0 f i libucrtd:_fenvutils.obj
 0001:000389e0       ??U@YA?AW4__acrt_fenv_abstract_control@@W40@0@Z 00000001800399e0 f i libucrtd:_fenvutils.obj
 0001:000389e0       ??U@YA?AW4__acrt_fenv_abstract_status@@W40@0@Z 00000001800399e0 f i libucrtd:_fenvutils.obj
 0001:00038a00       ??U@YA?AW4__acrt_fenv_machine_sse_control@@W40@0@Z 0000000180039a00 f i libucrtd:_fenvutils.obj
 0001:00038a20       ??_5@YAAEAW4__acrt_fenv_machine_sse_control@@AEAW40@W40@@Z 0000000180039a20 f i libucrtd:_fenvutils.obj
 0001:00038a50       ?__acrt_fenv_shift_abstract_sse_control@@YA?AW4__acrt_fenv_abstract_control@@W41@@Z 0000000180039a50 f i libucrtd:_fenvutils.obj
 0001:00038aa0       ?__acrt_fenv_shift_abstract_sse_status@@YA?AW4__acrt_fenv_abstract_status@@W41@@Z 0000000180039aa0 f i libucrtd:_fenvutils.obj
 0001:00038ad0       ?__acrt_fenv_unshift_abstract_sse_control@@YA?AW4__acrt_fenv_abstract_control@@W41@@Z 0000000180039ad0 f i libucrtd:_fenvutils.obj
 0001:00038b20       ?__acrt_fenv_unshift_abstract_sse_status@@YA?AW4__acrt_fenv_abstract_status@@W41@@Z 0000000180039b20 f i libucrtd:_fenvutils.obj
 0001:00038e10       __acrt_fenv_get_common_round_control 0000000180039e10 f   libucrtd:_fenvutils.obj
 0001:00038e30       __acrt_fenv_get_control    0000000180039e30 f   libucrtd:_fenvutils.obj
 0001:00038e60       __acrt_fenv_get_status     0000000180039e60 f   libucrtd:_fenvutils.obj
 0001:00038e90       __acrt_fenv_set_control    0000000180039e90 f   libucrtd:_fenvutils.obj
 0001:00038eb0       __acrt_fenv_set_status     0000000180039eb0 f   libucrtd:_fenvutils.obj
 0001:00038ee0       _get_fpsr                  0000000180039ee0 f   libucrtd:fpsr.obj
 0001:00038ef0       _set_fpsr                  0000000180039ef0 f   libucrtd:fpsr.obj
 0001:00038efa       _fclrf                     0000000180039efa f   libucrtd:fpsr.obj
 0001:00038f0e       _frnd                      0000000180039f0e f   libucrtd:fpsr.obj
 0001:00038f30       _raise_exc                 0000000180039f30 f   libucrtd:fpexcept.obj
 0001:00038f90       _raise_exc_ex              0000000180039f90 f   libucrtd:fpexcept.obj
 0001:00039610       _raise_excf                000000018003a610 f   libucrtd:fpexcept.obj
 0001:00039670       _set_errno_from_matherr    000000018003a670 f   libucrtd:fpexcept.obj
 0001:000396c0       __acrt_add_locale_ref      000000018003a6c0 f   libucrtd:locale_refcounting.obj
 0001:00039820       __acrt_free_locale         000000018003a820 f   libucrtd:locale_refcounting.obj
 0001:00039ba0       __acrt_locale_add_lc_time_reference 000000018003aba0 f   libucrtd:locale_refcounting.obj
 0001:00039be0       __acrt_locale_free_lc_time_if_unreferenced 000000018003abe0 f   libucrtd:locale_refcounting.obj
 0001:00039c40       __acrt_locale_release_lc_time_reference 000000018003ac40 f   libucrtd:locale_refcounting.obj
 0001:00039c80       __acrt_release_locale_ref  000000018003ac80 f   libucrtd:locale_refcounting.obj
 0001:00039df0       __acrt_update_thread_locale_data 000000018003adf0 f   libucrtd:locale_refcounting.obj
 0001:00039e90       _updatetlocinfoEx_nolock   000000018003ae90 f   libucrtd:locale_refcounting.obj
 0001:0003a0c0       qsort                      000000018003b0c0 f   libucrtd:qsort.obj
 0001:0003af50       wcsncpy_s                  000000018003bf50 f   libucrtd:wcsncpy_s.obj
 0001:0003b620       strncpy_s                  000000018003c620 f   libucrtd:strncpy_s.obj
 0001:0003b790       strpbrk                    000000018003c790 f   libucrtd:strpbrk.obj
 0001:0003c080       _mbsdec                    000000018003d080 f   libucrtd:mbsdec.obj
 0001:0003c0b0       _mbsdec_l                  000000018003d0b0 f   libucrtd:mbsdec.obj
 0001:0003c340       ??1?$__crt_scoped_stack_ptr@_W@@QEAA@XZ 000000018003d340 f i libucrtd:getstringtypea.obj
 0001:0003c360       _MallocaComputeSize        000000018003d360 f i libucrtd:getstringtypea.obj
 0001:0003c3a0       _MarkAllocaS               000000018003d3a0 f i libucrtd:getstringtypea.obj
 0001:0003c3d0       __acrt_GetStringTypeA      000000018003d3d0 f   libucrtd:getstringtypea.obj
 0001:0003c630       _freea_crt                 000000018003d630 f i libucrtd:getstringtypea.obj
 0001:0003ccd0       __acrt_LCMapStringA        000000018003dcd0 f   libucrtd:lcmapstringa.obj
 0001:0003ce60       __acrt_DownlevelLocaleNameToLCID 000000018003de60 f   libucrtd:lcidtoname_downlevel.obj
 0001:0003cec0       __acrt_lowio_create_handle_array 000000018003dec0 f   libucrtd:osfinfo.obj
 0001:0003d080       __acrt_lowio_destroy_handle_array 000000018003e080 f   libucrtd:osfinfo.obj
 0001:0003d100       __acrt_lowio_ensure_fh_exists 000000018003e100 f   libucrtd:osfinfo.obj
 0001:0003d260       __acrt_lowio_lock_fh       000000018003e260 f   libucrtd:osfinfo.obj
 0001:0003d2a0       __acrt_lowio_unlock_fh     000000018003e2a0 f   libucrtd:osfinfo.obj
 0001:0003d2e0       _free_osfhnd               000000018003e2e0 f   libucrtd:osfinfo.obj
 0001:0003d410       _get_osfhandle             000000018003e410 f   libucrtd:osfinfo.obj
 0001:0003d610       _isatty                    000000018003e610 f   libucrtd:isatty.obj
 0001:0003dac0       ?__acrt_stdio_reset_buffer@@YAXV__crt_stdio_stream@@@Z 000000018003eac0 f i libucrtd:fflush.obj
 0001:0003dc90       ?has_all_of@__crt_stdio_stream@@QEBA_NJ@Z 000000018003ec90 f i libucrtd:fflush.obj
 0001:0003dd70       __acrt_stdio_flush_nolock  000000018003ed70 f   libucrtd:fflush.obj
 0001:0003de90       _fflush_nolock             000000018003ee90 f   libucrtd:fflush.obj
 0001:0003ded0       _flushall                  000000018003eed0 f   libucrtd:fflush.obj
 0001:0003dee0       _malloc_base               000000018003eee0 f   libucrtd:malloc_base.obj
 0001:0003df80       __acrt_locale_free_monetary 000000018003ef80 f   libucrtd:initmon.obj
 0001:0003e190       __acrt_locale_free_numeric 000000018003f190 f   libucrtd:initnum.obj
 0001:0003e330       __acrt_locale_free_time    000000018003f330 f   libucrtd:inittime.obj
 0001:0003eb30       wcscat_s                   000000018003fb30 f   libucrtd:wcscat_s.obj
 0001:0003eb60       _set_error_mode            000000018003fb60 f   libucrtd:set_error_mode.obj
 0001:0003ee20       __acrt_fp_strflt_to_string 000000018003fe20 f   libucrtd:_fptostr.obj
 0001:0003f9e0       ??0big_integer@__crt_strtox@@QEAA@AEBU01@@Z 00000001800409e0 f i libucrtd:cfout.obj
 0001:0003f9e0       ??4big_integer@__crt_strtox@@QEAAAEAU01@AEBU01@@Z 00000001800409e0 f i libucrtd:cfout.obj
 0001:0003fa40       ??0big_integer@__crt_strtox@@QEAA@XZ 0000000180040a40 f i libucrtd:cfout.obj
 0001:0003fb90       ??8__crt_strtox@@YA_NAEBUbig_integer@0@0@Z 0000000180040b90 f i libucrtd:cfout.obj
 0001:0003fc00       ??9__crt_strtox@@YA_NAEBUbig_integer@0@0@Z 0000000180040c00 f i libucrtd:cfout.obj
 0001:0003fc40       ?add_carry@__crt_strtox@@YAIAEAIII@Z 0000000180040c40 f i libucrtd:cfout.obj
 0001:0003fc90       ?add_multiply_carry@__crt_strtox@@YAIAEAIIII@Z 0000000180040c90 f i libucrtd:cfout.obj
 0001:0003fcf0       ?bit_scan_reverse@__crt_strtox@@YAII@Z 0000000180040cf0 f i libucrtd:cfout.obj
 0001:0003fd30       ?count_sequential_high_zeroes@__crt_strtox@@YAII@Z 0000000180040d30 f i libucrtd:cfout.obj
 0001:0003fd70       ?divide@__crt_strtox@@YA_KAEAUbig_integer@1@AEBU21@@Z 0000000180040d70 f i libucrtd:cfout.obj
 0001:00040740       ?is_zero@__crt_strtox@@YA_NAEBUbig_integer@1@@Z 0000000180041740 f i libucrtd:cfout.obj
 0001:00040770       ?make_big_integer@__crt_strtox@@YA?AUbig_integer@1@_K@Z 0000000180041770 f i libucrtd:cfout.obj
 0001:00040840       ?make_big_integer_power_of_two@__crt_strtox@@YA?AUbig_integer@1@I@Z 0000000180041840 f i libucrtd:cfout.obj
 0001:00040910       ?multiply@__crt_strtox@@YA_NAEAUbig_integer@1@AEBU21@@Z 0000000180041910 f i libucrtd:cfout.obj
 0001:00040c90       ?multiply@__crt_strtox@@YA_NAEAUbig_integer@1@I@Z 0000000180041c90 f i libucrtd:cfout.obj
 0001:00040db0       ?multiply_64_32@__crt_strtox@@YA_K_KI@Z 0000000180041db0 f i libucrtd:cfout.obj
 0001:00040dd0       ?multiply_by_power_of_ten@__crt_strtox@@YA_NAEAUbig_integer@1@I@Z 0000000180041dd0 f i libucrtd:cfout.obj
 0001:00040f80       ?multiply_core@__crt_strtox@@YAIQEAIII@Z 0000000180041f80 f i libucrtd:cfout.obj
 0001:00041000       ?shift_left@__crt_strtox@@YA_NAEAUbig_integer@1@I@Z 0000000180042000 f i libucrtd:cfout.obj
 0001:000412e0       __acrt_fltout              00000001800422e0 f   libucrtd:cfout.obj
 0001:000416c0       fegetround                 00000001800426c0 f   libucrtd:fegetround.obj
 0001:000416e0       ?__c32rtomb_utf8@__crt_mbstring@@YA_KPEAD_UPEAU_Mbstatet@@AEAV__crt_cached_ptd_host@@@Z 00000001800426e0 f   libucrtd:c32rtomb.obj
 0001:000419f0       ?__mbrtowc_utf8@__crt_mbstring@@YA_KPEA_WPEBD_KPEAU_Mbstatet@@AEAV__crt_cached_ptd_host@@@Z 00000001800429f0 f   libucrtd:mbrtowc.obj
 0001:00041a70       ?__mbsrtowcs_utf8@__crt_mbstring@@YA_KPEA_WPEAPEBD_KPEAU_Mbstatet@@AEAV__crt_cached_ptd_host@@@Z 0000000180042a70 f   libucrtd:mbrtowc.obj
 0001:00041dc0       ?is_in_use@__crt_stdio_stream@@QEBA_NXZ 0000000180042dc0 f i libucrtd:closeall.obj
 0001:00041e00       _fcloseall                 0000000180042e00 f   libucrtd:closeall.obj
 0001:00041f10       ?has_crt_buffer@__crt_stdio_stream@@QEBA_NXZ 0000000180042f10 f i libucrtd:_freebuf.obj
 0001:00041f30       __acrt_stdio_free_buffer_nolock 0000000180042f30 f   libucrtd:_freebuf.obj
 0001:00042c00       _itoa_s                    0000000180043c00 f   libucrtd:xtoa.obj
 0001:00042c60       _itow_s                    0000000180043c60 f   libucrtd:xtoa.obj
 0001:000437d0       mbstowcs_s                 00000001800447d0 f   libucrtd:mbstowcs.obj
 0001:00044640       wcstombs_s                 0000000180045640 f   libucrtd:wcstombs.obj
 0001:00044d30       strcat_s                   0000000180045d30 f   libucrtd:strcat_s.obj
 0001:00044d60       __acrt_OutputDebugStringA  0000000180045d60 f   libucrtd:outputdebugstringa.obj
 0001:00044e20       __strncnt                  0000000180045e20 f   libucrtd:strncnt.obj
 0001:00044e80       __ascii_wcsnicmp           0000000180045e80 f   libucrtd:wcsnicmp.obj
 0001:00045110       _commit                    0000000180046110 f   libucrtd:commit.obj
 0001:00046b00       _utf8_no_of_trailbytes     0000000180047b00 f i libucrtd:write.obj
 0001:00046b20       _write_internal            0000000180047b20 f   libucrtd:write.obj
 0001:00046ec0       _write_nolock              0000000180047ec0 f   libucrtd:write.obj
 0001:00047590       log10                      0000000180048590 f   libucrtd:log10.obj
 0001:00047b40       ceil                       0000000180048b40 f   libucrtd:ceil.obj
 0001:00047d10       _controlfp_s               0000000180048d10 f   libucrtd:contrlfp.obj
 0001:00047e40       fegetenv                   0000000180048e40 f   libucrtd:fegetenv.obj
 0001:00047e70       fesetenv                   0000000180048e70 f   libucrtd:fesetenv.obj
 0001:00047ef0       feholdexcept               0000000180048ef0 f   libucrtd:feholdexcept.obj
 0001:00047f60       ?reset_and_return@__crt_mbstring@@YA_K_KPEAU_Mbstatet@@@Z 0000000180048f60 f   libucrtd:common_utf8.obj
 0001:00047fa0       ?return_illegal_sequence@__crt_mbstring@@YA_KPEAU_Mbstatet@@AEAV__crt_cached_ptd_host@@@Z 0000000180048fa0 f   libucrtd:common_utf8.obj
 0001:00048000       ?__mbrtoc32_utf8@__crt_mbstring@@YA_KPEA_UPEBD_KPEAU_Mbstatet@@AEAV__crt_cached_ptd_host@@@Z 0000000180049000 f   libucrtd:mbrtoc32.obj
 0001:00048710       fclose                     0000000180049710 f   libucrtd:fclose.obj
 0001:000488e0       _lseeki64_nolock_internal  00000001800498e0 f   libucrtd:lseek.obj
 0001:00048920       ?__wcsrtombs_utf8@__crt_mbstring@@YA_KPEADPEAPEB_W_KPEAU_Mbstatet@@AEAV__crt_cached_ptd_host@@@Z 0000000180049920 f   libucrtd:wcrtomb.obj
 0001:00048ba0       _putwch_nolock             0000000180049ba0 f   libucrtd:putwch.obj
 0001:00048bf0       _log10_special             0000000180049bf0 f   libucrtd:log_special.obj
 0001:00048f50       _clearfp                   0000000180049f50 f   libucrtd:ieee.obj
 0001:00048f70       _control87                 0000000180049f70 f   libucrtd:ieee.obj
 0001:00049460       _close_internal            000000018004a460 f   libucrtd:close.obj
 0001:00049720       _close_nolock_internal     000000018004a720 f   libucrtd:close.obj
 0001:00049790       ?__acrt_stdio_free_stream@@YAXV__crt_stdio_stream@@@Z 000000018004a790 f   libucrtd:stream.obj
 0001:00049830       ?deallocate@__crt_stdio_stream@@QEAAXXZ 000000018004a830 f i libucrtd:stream.obj
 0001:00049850       ?__c16rtomb_utf8@__crt_mbstring@@YA_KPEAD_SPEAU_Mbstatet@@AEAV__crt_cached_ptd_host@@@Z 000000018004a850 f   libucrtd:c16rtomb.obj
 0001:00049bd0       __dcrt_lowio_ensure_console_output_initialized 000000018004abd0 f   libucrtd:initcon.obj
 0001:00049c00       __dcrt_terminate_console_output 000000018004ac00 f   libucrtd:initcon.obj
 0001:00049c30       __dcrt_write_console       000000018004ac30 f   libucrtd:initcon.obj
 0001:00049c70       _FindPESection             000000018004ac70 f   LIBCMTD:pesect.obj
 0001:00049d20       _IsNonwritableInCurrentImage 000000018004ad20 f   LIBCMTD:pesect.obj
 0001:00049db0       _ValidateImageBase         000000018004adb0 f   LIBCMTD:pesect.obj
 0001:00049e30       ??1type_info@@UEAA@XZ      000000018004ae30 f   LIBCMTD:std_type_info_static.obj
 0001:00049e50       ??_Etype_info@@UEAAPEAXI@Z 000000018004ae50 f i LIBCMTD:std_type_info_static.obj
 0001:00049e50       ??_Gtype_info@@UEAAPEAXI@Z 000000018004ae50 f i LIBCMTD:std_type_info_static.obj
 0001:00049e90       ??3@YAXPEAX_K@Z            000000018004ae90 f   LIBCMTD:delete_scalar_size.obj
 0001:00049eb0       __GSHandlerCheck_SEH       000000018004aeb0 f   LIBCMTD:gshandlerseh.obj
 0001:00049f70       __GSHandlerCheck_EH        000000018004af70 f   LIBCMTD:gshandlereh.obj
 0001:0004a020       ??3@YAXPEAX@Z              000000018004b020 f   LIBCMTD:delete_scalar.obj
 0001:0004a040       __C_specific_handler_noexcept 000000018004b040 f   libvcruntimed:chandler_noexcept.obj
 0001:0004a0d0       strrchr                    000000018004b0d0 f   libvcruntimed:strrchr.obj
 0001:0004a500       _guard_dispatch_icall_nop  000000018004b500 f   LIBCMTD:guard_dispatch.obj
 0001:0004a520       _guard_xfg_dispatch_icall_nop 000000018004b520 f   LIBCMTD:guard_xfg_dispatch.obj
 0001:0004a550       memcpy_repmovs             000000018004b550 f   libvcruntimed:memcpy.obj
 0001:0004a560       memcpy                     000000018004b560 f   libvcruntimed:memcpy.obj
 0001:0004a560       memcpy_$fo_default$        000000018004b560     libvcruntimed:memcpy.obj
 0001:0004a560       memmove                    000000018004b560 f   libvcruntimed:memcpy.obj
 0001:0004abf0       memset_repstos             000000018004bbf0 f   libvcruntimed:memset.obj
 0001:0004ac00       memset                     000000018004bc00 f   libvcruntimed:memset.obj
 0002:00000000       __imp_RtlCaptureContext    000000018004d000     kernel32:KERNEL32.dll
 0002:00000008       __imp_RtlLookupFunctionEntry 000000018004d008     kernel32:KERNEL32.dll
 0002:00000010       __imp_RtlVirtualUnwind     000000018004d010     kernel32:KERNEL32.dll
 0002:00000018       __imp_UnhandledExceptionFilter 000000018004d018     kernel32:KERNEL32.dll
 0002:00000020       __imp_SetUnhandledExceptionFilter 000000018004d020     kernel32:KERNEL32.dll
 0002:00000028       __imp_GetCurrentProcess    000000018004d028     kernel32:KERNEL32.dll
 0002:00000030       __imp_TerminateProcess     000000018004d030     kernel32:KERNEL32.dll
 0002:00000038       __imp_IsProcessorFeaturePresent 000000018004d038     kernel32:KERNEL32.dll
 0002:00000040       __imp_QueryPerformanceCounter 000000018004d040     kernel32:KERNEL32.dll
 0002:00000048       __imp_GetCurrentProcessId  000000018004d048     kernel32:KERNEL32.dll
 0002:00000050       __imp_GetCurrentThreadId   000000018004d050     kernel32:KERNEL32.dll
 0002:00000058       __imp_GetSystemTimeAsFileTime 000000018004d058     kernel32:KERNEL32.dll
 0002:00000060       __imp_InitializeSListHead  000000018004d060     kernel32:KERNEL32.dll
 0002:00000068       __imp_IsDebuggerPresent    000000018004d068     kernel32:KERNEL32.dll
 0002:00000070       __imp_GetStartupInfoW      000000018004d070     kernel32:KERNEL32.dll
 0002:00000078       __imp_GetModuleHandleW     000000018004d078     kernel32:KERNEL32.dll
 0002:00000080       __imp_CreateFileW          000000018004d080     kernel32:KERNEL32.dll
 0002:00000088       __imp_RtlUnwindEx          000000018004d088     kernel32:KERNEL32.dll
 0002:00000090       __imp_InterlockedFlushSList 000000018004d090     kernel32:KERNEL32.dll
 0002:00000098       __imp_GetLastError         000000018004d098     kernel32:KERNEL32.dll
 0002:000000a0       __imp_SetLastError         000000018004d0a0     kernel32:KERNEL32.dll
 0002:000000a8       __imp_EnterCriticalSection 000000018004d0a8     kernel32:KERNEL32.dll
 0002:000000b0       __imp_LeaveCriticalSection 000000018004d0b0     kernel32:KERNEL32.dll
 0002:000000b8       __imp_DeleteCriticalSection 000000018004d0b8     kernel32:KERNEL32.dll
 0002:000000c0       __imp_InitializeCriticalSectionAndSpinCount 000000018004d0c0     kernel32:KERNEL32.dll
 0002:000000c8       __imp_TlsAlloc             000000018004d0c8     kernel32:KERNEL32.dll
 0002:000000d0       __imp_TlsGetValue          000000018004d0d0     kernel32:KERNEL32.dll
 0002:000000d8       __imp_TlsSetValue          000000018004d0d8     kernel32:KERNEL32.dll
 0002:000000e0       __imp_TlsFree              000000018004d0e0     kernel32:KERNEL32.dll
 0002:000000e8       __imp_FreeLibrary          000000018004d0e8     kernel32:KERNEL32.dll
 0002:000000f0       __imp_GetProcAddress       000000018004d0f0     kernel32:KERNEL32.dll
 0002:000000f8       __imp_LoadLibraryExW       000000018004d0f8     kernel32:KERNEL32.dll
 0002:00000100       __imp_EncodePointer        000000018004d100     kernel32:KERNEL32.dll
 0002:00000108       __imp_RaiseException       000000018004d108     kernel32:KERNEL32.dll
 0002:00000110       __imp_RtlPcToFileHeader    000000018004d110     kernel32:KERNEL32.dll
 0002:00000118       __imp_ExitProcess          000000018004d118     kernel32:KERNEL32.dll
 0002:00000120       __imp_GetModuleHandleExW   000000018004d120     kernel32:KERNEL32.dll
 0002:00000128       __imp_GetModuleFileNameW   000000018004d128     kernel32:KERNEL32.dll
 0002:00000130       __imp_HeapAlloc            000000018004d130     kernel32:KERNEL32.dll
 0002:00000138       __imp_HeapSize             000000018004d138     kernel32:KERNEL32.dll
 0002:00000140       __imp_HeapValidate         000000018004d140     kernel32:KERNEL32.dll
 0002:00000148       __imp_GetSystemInfo        000000018004d148     kernel32:KERNEL32.dll
 0002:00000150       __imp_FindClose            000000018004d150     kernel32:KERNEL32.dll
 0002:00000158       __imp_FindFirstFileExW     000000018004d158     kernel32:KERNEL32.dll
 0002:00000160       __imp_FindNextFileW        000000018004d160     kernel32:KERNEL32.dll
 0002:00000168       __imp_IsValidCodePage      000000018004d168     kernel32:KERNEL32.dll
 0002:00000170       __imp_GetACP               000000018004d170     kernel32:KERNEL32.dll
 0002:00000178       __imp_GetOEMCP             000000018004d178     kernel32:KERNEL32.dll
 0002:00000180       __imp_GetCPInfo            000000018004d180     kernel32:KERNEL32.dll
 0002:00000188       __imp_GetCommandLineA      000000018004d188     kernel32:KERNEL32.dll
 0002:00000190       __imp_GetCommandLineW      000000018004d190     kernel32:KERNEL32.dll
 0002:00000198       __imp_MultiByteToWideChar  000000018004d198     kernel32:KERNEL32.dll
 0002:000001a0       __imp_WideCharToMultiByte  000000018004d1a0     kernel32:KERNEL32.dll
 0002:000001a8       __imp_GetEnvironmentStringsW 000000018004d1a8     kernel32:KERNEL32.dll
 0002:000001b0       __imp_FreeEnvironmentStringsW 000000018004d1b0     kernel32:KERNEL32.dll
 0002:000001b8       __imp_FlsAlloc             000000018004d1b8     kernel32:KERNEL32.dll
 0002:000001c0       __imp_FlsGetValue          000000018004d1c0     kernel32:KERNEL32.dll
 0002:000001c8       __imp_FlsSetValue          000000018004d1c8     kernel32:KERNEL32.dll
 0002:000001d0       __imp_FlsFree              000000018004d1d0     kernel32:KERNEL32.dll
 0002:000001d8       __imp_LCMapStringW         000000018004d1d8     kernel32:KERNEL32.dll
 0002:000001e0       __imp_GetProcessHeap       000000018004d1e0     kernel32:KERNEL32.dll
 0002:000001e8       __imp_GetStdHandle         000000018004d1e8     kernel32:KERNEL32.dll
 0002:000001f0       __imp_GetFileType          000000018004d1f0     kernel32:KERNEL32.dll
 0002:000001f8       __imp_HeapFree             000000018004d1f8     kernel32:KERNEL32.dll
 0002:00000200       __imp_HeapReAlloc          000000018004d200     kernel32:KERNEL32.dll
 0002:00000208       __imp_HeapQueryInformation 000000018004d208     kernel32:KERNEL32.dll
 0002:00000210       __imp_WriteFile            000000018004d210     kernel32:KERNEL32.dll
 0002:00000218       __imp_OutputDebugStringW   000000018004d218     kernel32:KERNEL32.dll
 0002:00000220       __imp_WriteConsoleW        000000018004d220     kernel32:KERNEL32.dll
 0002:00000228       __imp_GetStringTypeW       000000018004d228     kernel32:KERNEL32.dll
 0002:00000230       __imp_SetStdHandle         000000018004d230     kernel32:KERNEL32.dll
 0002:00000238       __imp_SetFilePointerEx     000000018004d238     kernel32:KERNEL32.dll
 0002:00000240       __imp_FlushFileBuffers     000000018004d240     kernel32:KERNEL32.dll
 0002:00000248       __imp_GetConsoleOutputCP   000000018004d248     kernel32:KERNEL32.dll
 0002:00000250       __imp_GetConsoleMode       000000018004d250     kernel32:KERNEL32.dll
 0002:00000258       __imp_CloseHandle          000000018004d258     kernel32:KERNEL32.dll
 0002:00000260       \177KERNEL32_NULL_THUNK_DATA 000000018004d260     kernel32:KERNEL32.dll
 0002:00000268       __guard_check_icall_fptr   000000018004d268     LIBCMTD:guard_support.obj
 0002:00000270       __guard_xfg_check_icall_fptr 000000018004d270     LIBCMTD:guard_support.obj
 0002:00000278       __guard_dispatch_icall_fptr 000000018004d278     LIBCMTD:guard_support.obj
 0002:00000280       __guard_xfg_dispatch_icall_fptr 000000018004d280     LIBCMTD:guard_support.obj
 0002:00000288       __guard_xfg_table_dispatch_icall_fptr 000000018004d288     LIBCMTD:guard_support.obj
 0002:00000290       __castguard_check_failure_os_handled_fptr 000000018004d290     LIBCMTD:guard_support.obj
 0002:00000298       __guard_memcpy_fptr        000000018004d298     libvcruntimed:softmemtag.obj
 0002:000002a0       __xc_a                     000000018004d2a0     LIBCMTD:initializers.obj
 0002:000002a8       __xc_z                     000000018004d2a8     LIBCMTD:initializers.obj
 0002:000002b0       __xi_a                     000000018004d2b0     LIBCMTD:initializers.obj
 0002:000002b8       __acrt_tran_fma3_initializer 000000018004d2b8     libucrtd:fma3_initializer.obj
 0002:000002c0       __acrt_multibyte_initializer 000000018004d2c0     libucrtd:multibyte_initializer.obj
 0002:000002c8       __acrt_stdio_initializer   000000018004d2c8     libucrtd:stdio_initializer.obj
 0002:000002d0       __xi_z                     000000018004d2d0     LIBCMTD:initializers.obj
 0002:000002d8       __xp_a                     000000018004d2d8     LIBCMTD:initializers.obj
 0002:000002e0       __acrt_locale_terminator   000000018004d2e0     libucrtd:locale_initializer.obj
 0002:000002e8       __dcrt_console_output_terminator 000000018004d2e8     libucrtd:console_output_initializer.obj
 0002:000002f0       __acrt_stdio_terminator    000000018004d2f0     libucrtd:stdio_initializer.obj
 0002:000002f8       __xp_z                     000000018004d2f8     LIBCMTD:initializers.obj
 0002:00000300       __xt_a                     000000018004d300     LIBCMTD:initializers.obj
 0002:00000308       __xt_z                     000000018004d308     LIBCMTD:initializers.obj
 0002:00000638       ??_C@_0BC@CEJOOBCO@Invalid?5Code?5Path@ 000000018004d638     handmade.obj
 0002:0000064c       __real@00000000            000000018004d64c     handmade.obj
 0002:00000650       __real@322bcff1            000000018004d650     handmade.obj
 0002:00000654       __real@3a83126f            000000018004d654     handmade.obj
 0002:00000658       __real@3c23d70a            000000018004d658     handmade.obj
 0002:0000065c       __real@3dcccccd            000000018004d65c     handmade.obj
 0002:00000660       __real@3e4ccccd            000000018004d660     handmade.obj
 0002:00000664       __real@3e800000            000000018004d664     handmade.obj
 0002:00000668       __real@3f000000            000000018004d668     handmade.obj
 0002:0000066c       __real@3f666666            000000018004d66c     handmade.obj
 0002:00000670       __real@3f800000            000000018004d670     handmade.obj
 0002:00000674       __real@3f8ccccd            000000018004d674     handmade.obj
 0002:00000678       __real@3f99999a            000000018004d678     handmade.obj
 0002:0000067c       __real@3fb33333            000000018004d67c     handmade.obj
 0002:00000680       __real@3fc00000            000000018004d680     handmade.obj
 0002:00000684       __real@40000000            000000018004d684     handmade.obj
 0002:00000688       __real@4039999a            000000018004d688     handmade.obj
 0002:0000068c       __real@40400000            000000018004d68c     handmade.obj
 0002:00000690       __real@4079999a            000000018004d690     handmade.obj
 0002:00000694       __real@40866666            000000018004d694     handmade.obj
 0002:00000698       __real@40a00000            000000018004d698     handmade.obj
 0002:0000069c       __real@40c90fdb            000000018004d69c     handmade.obj
 0002:000006a0       __real@41000000            000000018004d6a0     handmade.obj
 0002:000006a4       __real@411e6666            000000018004d6a4     handmade.obj
 0002:000006a8       __real@41200000            000000018004d6a8     handmade.obj
 0002:000006ac       __real@41700000            000000018004d6ac     handmade.obj
 0002:000006b0       __real@41c80000            000000018004d6b0     handmade.obj
 0002:000006b4       __real@41e80000            000000018004d6b4     handmade.obj
 0002:000006b8       __real@41f00000            000000018004d6b8     handmade.obj
 0002:000006bc       __real@42200000            000000018004d6bc     handmade.obj
 0002:000006c0       __real@42280000            000000018004d6c0     handmade.obj
 0002:000006c4       __real@42480000            000000018004d6c4     handmade.obj
 0002:000006c8       __real@42900000            000000018004d6c8     handmade.obj
 0002:000006cc       __real@42a00000            000000018004d6cc     handmade.obj
 0002:000006d0       __real@42c80000            000000018004d6d0     handmade.obj
 0002:000006d4       __real@43360000            000000018004d6d4     handmade.obj
 0002:000006d8       __real@437f0000            000000018004d6d8     handmade.obj
 0002:000006dc       __real@461c4000            000000018004d6dc     handmade.obj
 0002:000006e0       __real@47c35000            000000018004d6e0     handmade.obj
 0002:000006e4       __real@7f7fffff            000000018004d6e4     handmade.obj
 0002:000006e8       __real@be800000            000000018004d6e8     handmade.obj
 0002:000006ec       __real@bf000000            000000018004d6ec     handmade.obj
 0002:000006f0       __real@bf800000            000000018004d6f0     handmade.obj
 0002:000006f4       __real@c11ccccd            000000018004d6f4     handmade.obj
 0002:00000700       __xmm@7fffffffffffffff7fffffffffffffff 000000018004d700     handmade.obj
 0002:00000710       __xmm@80000000800000008000000080000000 000000018004d710     handmade.obj
 0002:00000720       _pDefaultRawDllMain        000000018004d720     LIBCMTD:dll_dllmain.obj
 0002:00000720       _pRawDllMain               000000018004d720     LIBCMTD:dll_dllmain.obj
 0002:00000738       _pDestructExceptionObject  000000018004d738     libvcruntimed:ehhelpers.obj
 0002:00000e50       ??_C@_08EHJDFFNH@__based?$CI@ 000000018004de50     libvcruntimed:undname.obj
 0002:00000e60       ??_C@_07KOLFKCDI@__cdecl@  000000018004de60     libvcruntimed:undname.obj
 0002:00000e68       ??_C@_08GHMPAG@__pascal@   000000018004de68     libvcruntimed:undname.obj
 0002:00000e78       ??_C@_09IFJBGAPI@__stdcall@ 000000018004de78     libvcruntimed:undname.obj
 0002:00000e88       ??_C@_0L@NPHFGOKO@__thiscall@ 000000018004de88     libvcruntimed:undname.obj
 0002:00000e98       ??_C@_0L@JMKHOMEK@__fastcall@ 000000018004de98     libvcruntimed:undname.obj
 0002:00000ea8       ??_C@_0N@BCKKPABJ@__vectorcall@ 000000018004dea8     libvcruntimed:undname.obj
 0002:00000eb8       ??_C@_09HIJEGCPM@__clrcall@ 000000018004deb8     libvcruntimed:undname.obj
 0002:00000ec4       ??_C@_06GHPCKEAG@__eabi@   000000018004dec4     libvcruntimed:undname.obj
 0002:00000ed0       ??_C@_09IOPIDJLG@__swift_1@ 000000018004ded0     libvcruntimed:undname.obj
 0002:00000ee0       ??_C@_09KFNFGKHF@__swift_2@ 000000018004dee0     libvcruntimed:undname.obj
 0002:00000ef0       ??_C@_09LMMOFLDE@__swift_3@ 000000018004def0     libvcruntimed:undname.obj
 0002:00000f00       ??_C@_07JOMMBBKO@__ptr64@  000000018004df00     libvcruntimed:undname.obj
 0002:00000f08       ??_C@_0L@PILCLIHE@__restrict@ 000000018004df08     libvcruntimed:undname.obj
 0002:00000f18       ??_C@_0M@GFIIJFMG@__unaligned@ 000000018004df18     libvcruntimed:undname.obj
 0002:00000f28       ??_C@_09DHDLOLLB@restrict?$CI@ 000000018004df28     libvcruntimed:undname.obj
 0002:00000f32       ??_C@_00CNPNBAHC@@         000000018004df32     libvcruntimed:undname.obj
 0002:00000f34       ??_C@_04NIHEBCM@?5new@     000000018004df34     libvcruntimed:undname.obj
 0002:00000f40       ??_C@_07FPCDHGMM@?5delete@ 000000018004df40     libvcruntimed:undname.obj
 0002:00000f48       ??_C@_01NEMOKFLO@?$DN@     000000018004df48     libvcruntimed:undname.obj
 0002:00000f4c       ??_C@_02GPIOPFAK@?$DO?$DO@ 000000018004df4c     libvcruntimed:undname.obj
 0002:00000f50       ??_C@_02FODMEDOG@?$DM?$DM@ 000000018004df50     libvcruntimed:undname.obj
 0002:00000f54       ??_C@_01DCLJPIOD@?$CB@     000000018004df54     libvcruntimed:undname.obj
 0002:00000f58       ??_C@_02EGOFBIJA@?$DN?$DN@ 000000018004df58     libvcruntimed:undname.obj
 0002:00000f5c       ??_C@_02FDNJECIE@?$CB?$DN@ 000000018004df5c     libvcruntimed:undname.obj
 0002:00000f60       ??_C@_02GPECMEKF@?$FL?$FN@ 000000018004df60     libvcruntimed:undname.obj
 0002:00000f68       ??_C@_08LHJFAFGD@operator@ 000000018004df68     libvcruntimed:undname.obj
 0002:00000f74       ??_C@_02HBOOOICD@?9?$DO@   000000018004df74     libvcruntimed:undname.obj
 0002:00000f78       ??_C@_01NBENCBCI@?$CK@     000000018004df78     libvcruntimed:undname.obj
 0002:00000f7c       ??_C@_02ECNGHCIF@?$CL?$CL@ 000000018004df7c     libvcruntimed:undname.obj
 0002:00000f80       ??_C@_02BAABKJLB@?9?9@     000000018004df80     libvcruntimed:undname.obj
 0002:00000f84       ??_C@_01JOAMLHOP@?9@       000000018004df84     libvcruntimed:undname.obj
 0002:00000f88       ??_C@_01MIFGBAGJ@?$CL@     000000018004df88     libvcruntimed:undname.obj
 0002:00000f8c       ??_C@_01HNPIGOCE@?$CG@     000000018004df8c     libvcruntimed:undname.obj
 0002:00000f90       ??_C@_03MNHNFDLC@?9?$DO?$CK@ 000000018004df90     libvcruntimed:undname.obj
 0002:00000f94       ??_C@_01KMDKNFGN@?1@       000000018004df94     libvcruntimed:undname.obj
 0002:00000f98       ??_C@_01FGNFDNOH@?$CF@     000000018004df98     libvcruntimed:undname.obj
 0002:00000f9c       ??_C@_01MNNFJEPP@?$DM@     000000018004df9c     libvcruntimed:undname.obj
 0002:00000fa0       ??_C@_02EHCHHCKH@?$DM?$DN@ 000000018004dfa0     libvcruntimed:undname.obj
 0002:00000fa4       ??_C@_01PPODPGHN@?$DO@     000000018004dfa4     libvcruntimed:undname.obj
 0002:00000fa8       ??_C@_02EEKDKGMJ@?$DO?$DN@ 000000018004dfa8     libvcruntimed:undname.obj
 0002:00000fac       ??_C@_01IHBHIGKO@?0@       000000018004dfac     libvcruntimed:undname.obj
 0002:00000fb0       ??_C@_02HCKGKOFO@?$CI?$CJ@ 000000018004dfb0     libvcruntimed:undname.obj
 0002:00000fb4       ??_C@_01PJKLJHI@?$HO@      000000018004dfb4     libvcruntimed:undname.obj
 0002:00000fb8       ??_C@_01JKBOJNNK@?$FO@     000000018004dfb8     libvcruntimed:undname.obj
 0002:00000fbc       ??_C@_01DNKMNLPK@?$HM@     000000018004dfbc     libvcruntimed:undname.obj
 0002:00000fc0       ??_C@_02PPKAJPJL@?$CG?$CG@ 000000018004dfc0     libvcruntimed:undname.obj
 0002:00000fc4       ??_C@_02NONPIBCD@?$HM?$HM@ 000000018004dfc4     libvcruntimed:undname.obj
 0002:00000fc8       ??_C@_02FPIMKNGF@?$CK?$DN@ 000000018004dfc8     libvcruntimed:undname.obj
 0002:00000fcc       ??_C@_02FOEOMHFC@?$CL?$DN@ 000000018004dfcc     libvcruntimed:undname.obj
 0002:00000fd0       ??_C@_02FKMDLLOA@?9?$DN@   000000018004dfd0     libvcruntimed:undname.obj
 0002:00000fd4       ??_C@_02FJEHGPIO@?1?$DN@   000000018004dfd4     libvcruntimed:undname.obj
 0002:00000fd8       ??_C@_02FENAOKFI@?$CF?$DN@ 000000018004dfd8     libvcruntimed:undname.obj
 0002:00000fdc       ??_C@_03IKFCCPFF@?$DO?$DO?$DN@ 000000018004dfdc     libvcruntimed:undname.obj
 0002:00000fe0       ??_C@_03CDNPDDLA@?$DM?$DM?$DN@ 000000018004dfe0     libvcruntimed:undname.obj
 0002:00000fe4       ??_C@_02FGJGFEAB@?$CG?$DN@ 000000018004dfe4     libvcruntimed:undname.obj
 0002:00000fe8       ??_C@_02DHLNPPGH@?$HM?$DN@ 000000018004dfe8     libvcruntimed:undname.obj
 0002:00000fec       ??_C@_02MHEGNOJ@?$FO?$DN@  000000018004dfec     libvcruntimed:undname.obj
 0002:00000ff0       ??_C@_09IFPLHPGF@?$GAvftable?8@ 000000018004dff0     libvcruntimed:undname.obj
 0002:00001000       ??_C@_09BLBHBJP@?$GAvbtable?8@ 000000018004e000     libvcruntimed:undname.obj
 0002:00001010       ??_C@_07FEEIOKP@?$GAvcall?8@ 000000018004e010     libvcruntimed:undname.obj
 0002:00001018       ??_C@_08LLFFHHDJ@?$GAtypeof?8@ 000000018004e018     libvcruntimed:undname.obj
 0002:00001028       ??_C@_0BF@KDPPACIK@?$GAlocal?5static?5guard?8@ 000000018004e028     libvcruntimed:undname.obj
 0002:00001040       ??_C@_08OBABFOLI@?$GAstring?8@ 000000018004e040     libvcruntimed:undname.obj
 0002:00001050       ??_C@_0BD@JDLKDPAB@?$GAvbase?5destructor?8@ 000000018004e050     libvcruntimed:undname.obj
 0002:00001068       ??_C@_0BN@DEGPLNFK@?$GAvector?5deleting?5destructor?8@ 000000018004e068     libvcruntimed:undname.obj
 0002:00001088       ??_C@_0BO@OBMKPJIG@?$GAdefault?5constructor?5closure?8@ 000000018004e088     libvcruntimed:undname.obj
 0002:000010a8       ??_C@_0BN@IMDCHIKM@?$GAscalar?5deleting?5destructor?8@ 000000018004e0a8     libvcruntimed:undname.obj
 0002:000010c8       ??_C@_0BO@PFGOCPJJ@?$GAvector?5constructor?5iterator?8@ 000000018004e0c8     libvcruntimed:undname.obj
 0002:000010e8       ??_C@_0BN@LFPFMEDL@?$GAvector?5destructor?5iterator?8@ 000000018004e0e8     libvcruntimed:undname.obj
 0002:00001108       ??_C@_0CE@IKBNEHA@?$GAvector?5vbase?5constructor?5itera@ 000000018004e108     libvcruntimed:undname.obj
 0002:00001130       ??_C@_0BL@NILFHHPC@?$GAvirtual?5displacement?5map?8@ 000000018004e130     libvcruntimed:undname.obj
 0002:00001150       ??_C@_0CB@JONCMFFK@?$GAeh?5vector?5constructor?5iterator@ 000000018004e150     libvcruntimed:undname.obj
 0002:00001178       ??_C@_0CA@GCEOPDGL@?$GAeh?5vector?5destructor?5iterator?8@ 000000018004e178     libvcruntimed:undname.obj
 0002:00001198       ??_C@_0CH@OOJPLCPH@?$GAeh?5vector?5vbase?5constructor?5it@ 000000018004e198     libvcruntimed:undname.obj
 0002:000011c0       ??_C@_0BL@LLKPOHJI@?$GAcopy?5constructor?5closure?8@ 000000018004e1c0     libvcruntimed:undname.obj
 0002:000011e0       ??_C@_0BA@KBCDOMBN@?$GAudt?5returning?8@ 000000018004e1e0     libvcruntimed:undname.obj
 0002:000011f0       ??_C@_03KLGMFNMG@?$GAEH@   000000018004e1f0     libvcruntimed:undname.obj
 0002:000011f4       ??_C@_05KHLCHHI@?$GARTTI@  000000018004e1f4     libvcruntimed:undname.obj
 0002:00001200       ??_C@_0BA@KKLDJDLB@?$GAlocal?5vftable?8@ 000000018004e200     libvcruntimed:undname.obj
 0002:00001210       ??_C@_0CE@IIHCMGGL@?$GAlocal?5vftable?5constructor?5clos@ 000000018004e210     libvcruntimed:undname.obj
 0002:00001234       ??_C@_06FHBGPFGH@?5new?$FL?$FN@ 000000018004e234     libvcruntimed:undname.obj
 0002:00001240       ??_C@_09LBNFPBCA@?5delete?$FL?$FN@ 000000018004e240     libvcruntimed:undname.obj
 0002:00001250       ??_C@_0P@HJKNJFNN@?$GAomni?5callsig?8@ 000000018004e250     libvcruntimed:undname.obj
 0002:00001260       ??_C@_0BL@CNOONJFP@?$GAplacement?5delete?5closure?8@ 000000018004e260     libvcruntimed:undname.obj
 0002:00001280       ??_C@_0BN@CKNJLHMB@?$GAplacement?5delete?$FL?$FN?5closure?8@ 000000018004e280     libvcruntimed:undname.obj
 0002:000012a0       ??_C@_0CG@CFDHKGGD@?$GAmanaged?5vector?5constructor?5ite@ 000000018004e2a0     libvcruntimed:undname.obj
 0002:000012c8       ??_C@_0CF@IMGKMJNO@?$GAmanaged?5vector?5destructor?5iter@ 000000018004e2c8     libvcruntimed:undname.obj
 0002:000012f0       ??_C@_0CG@HLDDJMAG@?$GAeh?5vector?5copy?5constructor?5ite@ 000000018004e2f0     libvcruntimed:undname.obj
 0002:00001318       ??_C@_0CM@FCBBDIGB@?$GAeh?5vector?5vbase?5copy?5construct@ 000000018004e318     libvcruntimed:undname.obj
 0002:00001348       ??_C@_0BL@CLIPGLGB@?$GAdynamic?5initializer?5for?5?8@ 000000018004e348     libvcruntimed:undname.obj
 0002:00001368       ??_C@_0CB@PDBIFEP@?$GAdynamic?5atexit?5destructor?5for?5@ 000000018004e368     libvcruntimed:undname.obj
 0002:00001390       ??_C@_0CD@CGAJBKEJ@?$GAvector?5copy?5constructor?5iterat@ 000000018004e390     libvcruntimed:undname.obj
 0002:000013b8       ??_C@_0CJ@GJELGAMM@?$GAvector?5vbase?5copy?5constructor?5@ 000000018004e3b8     libvcruntimed:undname.obj
 0002:000013e8       ??_C@_0CL@FGIJHLCE@?$GAmanaged?5vector?5copy?5constructo@ 000000018004e3e8     libvcruntimed:undname.obj
 0002:00001418       ??_C@_0BM@PMGGMLDN@?$GAlocal?5static?5thread?5guard?8@ 000000018004e418     libvcruntimed:undname.obj
 0002:00001438       ??_C@_0N@BDNMDMOL@operator?5?$CC?$CC?5@ 000000018004e438     libvcruntimed:undname.obj
 0002:00001448       ??_C@_0BC@GGEBGALA@operator?5co_await@ 000000018004e448     libvcruntimed:undname.obj
 0002:00001460       ??_C@_0M@GAAIMMOH@operator?$DM?$DN?$DO@ 000000018004e460     libvcruntimed:undname.obj
 0002:00001470       ??_C@_0BC@DAFEJGAK@?5Type?5Descriptor?8@ 000000018004e470     libvcruntimed:undname.obj
 0002:00001488       ??_C@_0BM@LDKODKLH@?5Base?5Class?5Descriptor?5at?5?$CI@ 000000018004e488     libvcruntimed:undname.obj
 0002:000014a8       ??_C@_0BD@LGICGFMM@?5Base?5Class?5Array?8@ 000000018004e4a8     libvcruntimed:undname.obj
 0002:000014c0       ??_C@_0BN@MECKDCOJ@?5Class?5Hierarchy?5Descriptor?8@ 000000018004e4c0     libvcruntimed:undname.obj
 0002:000014e0       ??_C@_0BK@CFCOFLF@?5Complete?5Object?5Locator?8@ 000000018004e4e0     libvcruntimed:undname.obj
 0002:00001500       ??_C@_0BG@JNJLAMPM@?$GAanonymous?5namespace?8@ 000000018004e500     libvcruntimed:undname.obj
 0002:00001518       ??_C@_02DKCKIIND@?$CFs@    000000018004e518     libvcruntimed:undname.obj
 0002:0000151c       ??_C@_11LOCGONAA@@         000000018004e51c     libvcruntimed:undname.obj
 0002:00001520       ??_C@_0EK@HNOIOKGA@D?3?2a?2_work?21?2s?2src?2vctools?2crt?2@ 000000018004e520     libvcruntimed:per_thread_data.obj
 0002:00001620       ??_C@_1DM@KHCHBNEB@?$AAa?$AAp?$AAi?$AA?9?$AAm?$AAs?$AA?9?$AAw?$AAi?$AAn?$AA?9?$AAc?$AAo?$AAr?$AAe@ 000000018004e620     libvcruntimed:winapi_downlevel.obj
 0002:00001660       ??_C@_1DK@LPPGFMPP@?$AAa?$AAp?$AAi?$AA?9?$AAm?$AAs?$AA?9?$AAw?$AAi?$AAn?$AA?9?$AAc?$AAo?$AAr?$AAe@ 000000018004e660     libvcruntimed:winapi_downlevel.obj
 0002:000016a0       ??_C@_1BC@GDMECMAK@?$AAk?$AAe?$AAr?$AAn?$AAe?$AAl?$AA3?$AA2@ 000000018004e6a0     libvcruntimed:winapi_downlevel.obj
 0002:000016b8       ??_C@_17CNPHIMPH@?$AA?$CF?$AAl?$AAs@ 000000018004e6b8     libvcruntimed:winapi_downlevel.obj
 0002:000016c0       ??_C@_1BA@PFFKHIOG@?$AAa?$AAp?$AAi?$AA?9?$AAm?$AAs?$AA?9@ 000000018004e6c0     libvcruntimed:winapi_downlevel.obj
 0002:000016d0       ??_C@_1EM@LBIFGLGH@?$AAc?$AAa?$AAc?$AAh?$AAe?$AAd?$AA_?$AAh?$AAa?$AAn?$AAd?$AAl?$AAe?$AA?5?$AA?$DN@ 000000018004e6d0     libvcruntimed:winapi_downlevel.obj
 0002:00001720       ??_C@_1JG@EAIBPIGC@?$AAD?$AA?3?$AA?2?$AAa?$AA?2?$AA_?$AAw?$AAo?$AAr?$AAk?$AA?2?$AA1?$AA?2?$AAs?$AA?2@ 000000018004e720     libvcruntimed:winapi_downlevel.obj
 0002:000017b8       ??_C@_1DI@MAHEDLDB@?$AAc?$AAa?$AAc?$AAh?$AAe?$AAd?$AA_?$AAh?$AAa?$AAn?$AAd?$AAl?$AAe?$AA?5?$AA?$DN@ 000000018004e7b8     libvcruntimed:winapi_downlevel.obj
 0002:000017f0       ??_C@_1FC@IBNCGNKL@?$AAc?$AAa?$AAc?$AAh?$AAe?$AAd?$AA_?$AAf?$AAp?$AA?5?$AA?$DN?$AA?$DN?$AA?5?$AAi?$AAn@ 000000018004e7f0     libvcruntimed:winapi_downlevel.obj
 0002:00001848       ??_C@_1CI@GDJBAGLP@?$AAc?$AAa?$AAc?$AAh?$AAe?$AAd?$AA_?$AAf?$AAp?$AA?5?$AA?$DN?$AA?$DN?$AA?5?$AAn?$AAe@ 000000018004e848     libvcruntimed:winapi_downlevel.obj
 0002:00001878       ??_C@_08KNHFBNJ@FlsAlloc@  000000018004e878     libvcruntimed:winapi_downlevel.obj
 0002:00001890       ??_C@_07PEJMOBNF@FlsFree@  000000018004e890     libvcruntimed:winapi_downlevel.obj
 0002:000018a0       ??_C@_0M@GDNOONDI@FlsGetValue@ 000000018004e8a0     libvcruntimed:winapi_downlevel.obj
 0002:000018b8       ??_C@_0M@JCPCPOEF@FlsSetValue@ 000000018004e8b8     libvcruntimed:winapi_downlevel.obj
 0002:000018d0       ??_C@_0BM@HCFOFFN@InitializeCriticalSectionEx@ 000000018004e8d0     libvcruntimed:winapi_downlevel.obj
 0002:000018f8       ??_7exception@std@@6B@     000000018004e8f8     libvcruntimed:frame.obj
 0002:00001908       ??_C@_0BC@EOODALEL@Unknown?5exception@ 000000018004e908     libvcruntimed:frame.obj
 0002:00001928       ??_7bad_exception@std@@6B@ 000000018004e928     libvcruntimed:frame.obj
 0002:00001938       ??_C@_0O@DPKOEFFH@bad?5exception@ 000000018004e938     libvcruntimed:frame.obj
 0002:00001950       ??_C@_1FK@OACNEHHA@?$AAt?$AAo?$AA?9?$AA?$DO?$AA_?$AAW?$AAh?$AAa?$AAt?$AA?5?$AA?$DN?$AA?$DN?$AA?5?$AAn?$AAu@ 000000018004e950     libvcruntimed:std_exception.obj
 0002:000019b0       ??_C@_1IE@BLOAAGCK@?$AAD?$AA?3?$AA?2?$AAa?$AA?2?$AA_?$AAw?$AAo?$AAr?$AAk?$AA?2?$AA1?$AA?2?$AAs?$AA?2@ 000000018004e9b0     libvcruntimed:std_exception.obj
 0002:00001c90       ??_C@_05KGFAIMPG@sqrtf@    000000018004ec90     libucrtd:sqrtf.obj
 0002:00001ca0       __acrt_exception_action_table 000000018004eca0     libucrtd:exception_filter.obj
 0002:00001d60       __acrt_signal_action_table_count 000000018004ed60     libucrtd:exception_filter.obj
 0002:00001d68       __acrt_signal_action_first_fpe_index 000000018004ed68     libucrtd:exception_filter.obj
 0002:00001d70       __acrt_signal_action_fpe_count 000000018004ed70     libucrtd:exception_filter.obj
 0002:00001df0       ??_C@_1BI@BGOHAHKC@?$AAm?$AAs?$AAc?$AAo?$AAr?$AAe?$AAe?$AA?4?$AAd?$AAl?$AAl@ 000000018004edf0     libucrtd:exit.obj
 0002:00001e08       ??_C@_0P@MIGLKIOC@CorExitProcess@ 000000018004ee08     libucrtd:exit.obj
 0002:00001e40       ??_C@_0DI@KNDIGDEP@minkernel?2crts?2ucrt?2src?2appcrt?2@ 000000018004ee40     libucrtd:argv_parsing.obj
 0002:00001e80       ??_C@_1JO@PGBIJBAM@?$AAm?$AAo?$AAd?$AAe?$AA?5?$AA?$DN?$AA?$DN?$AA?5?$AA_?$AAc?$AAr?$AAt?$AA_?$AAa?$AAr@ 000000018004ee80     libucrtd:argv_parsing.obj
 0002:00001f20       ??_C@_1HA@JMLCANEE@?$AAm?$AAi?$AAn?$AAk?$AAe?$AAr?$AAn?$AAe?$AAl?$AA?2?$AAc?$AAr?$AAt?$AAs?$AA?2@ 000000018004ef20     libucrtd:argv_parsing.obj
 0002:00001f90       ??_C@_1CM@LHOJELIC@?$AAc?$AAo?$AAm?$AAm?$AAo?$AAn?$AA_?$AAc?$AAo?$AAn?$AAf?$AAi?$AAg?$AAu?$AAr@ 000000018004ef90     libucrtd:argv_parsing.obj
 0002:00002010       ??_C@_0EG@LEHKHOEH@minkernel?2crts?2ucrt?2src?2desktop@ 000000018004f010     libucrtd:environment_initialization.obj
 0002:00002060       ??_C@_1IM@IMOFFPLG@?$AAm?$AAi?$AAn?$AAk?$AAe?$AAr?$AAn?$AAe?$AAl?$AA?2?$AAc?$AAr?$AAt?$AAs?$AA?2@ 000000018004f060     libucrtd:environment_initialization.obj
 0002:000020f0       ??_C@_1CG@MNNNBNAK@?$AAc?$AAr?$AAe?$AAa?$AAt?$AAe?$AA_?$AAe?$AAn?$AAv?$AAi?$AAr?$AAo?$AAn?$AAm@ 000000018004f0f0     libucrtd:environment_initialization.obj
 0002:00002120       ??_C@_1HI@OOPIFFGA@?$AAt?$AAr?$AAa?$AAi?$AAt?$AAs?$AA?3?$AA?3?$AAt?$AAc?$AAs?$AAc?$AAp?$AAy?$AA_@ 000000018004f120     libucrtd:environment_initialization.obj
 0002:00002340       ??_C@_04HJMOFLDF@Free@     000000018004f340     libucrtd:debug_heap.obj
 0002:00002348       ??_C@_06EFAGIKOH@Normal@   000000018004f348     libucrtd:debug_heap.obj
 0002:00002350       ??_C@_03OGPFLFLO@CRT@      000000018004f350     libucrtd:debug_heap.obj
 0002:00002354       ??_C@_06KMEJCCGM@Ignore@   000000018004f354     libucrtd:debug_heap.obj
 0002:0000235c       ??_C@_06PJIGMIJB@Client@   000000018004f35c     libucrtd:debug_heap.obj
 0002:000023e0       ??_C@_1CE@LJFEPPMP@?$AA_?$AAC?$AAr?$AAt?$AAC?$AAh?$AAe?$AAc?$AAk?$AAM?$AAe?$AAm?$AAo?$AAr?$AAy@ 000000018004f3e0     libucrtd:debug_heap.obj
 0002:00002410       ??_C@_1GG@OCLHPJPK@?$AAm?$AAi?$AAn?$AAk?$AAe?$AAr?$AAn?$AAe?$AAl?$AA?2?$AAc?$AAr?$AAt?$AAs?$AA?2@ 000000018004f410     libucrtd:debug_heap.obj
 0002:00002478       ??_C@_0DF@BBEGIFEK@Client?5hook?5allocation?5failure?5@ 000000018004f478     libucrtd:debug_heap.obj
 0002:000024b0       ??_C@_0CB@CCLOLAHO@Client?5hook?5allocation?5failure?4@ 000000018004f4b0     libucrtd:debug_heap.obj
 0002:000024d8       ??_C@_0DC@JEMAGEKG@Error?3?5memory?5allocation?3?5bad?5m@ 000000018004f4d8     libucrtd:debug_heap.obj
 0002:00002510       ??_C@_0DI@KKJPDPGM@Client?5hook?5re?9allocation?5failu@ 000000018004f510     libucrtd:debug_heap.obj
 0002:00002548       ??_C@_0CE@DOFMDOL@Client?5hook?5re?9allocation?5failu@ 000000018004f548     libucrtd:debug_heap.obj
 0002:00002570       ??_C@_0FA@EFEIGJKG@Error?3?5memory?5allocation?3?5bad?5m@ 000000018004f570     libucrtd:debug_heap.obj
 0002:000025c0       ??_C@_0EM@LGFLMAGJ@The?5Block?5at?50x?$CFp?5was?5allocated@ 000000018004f5c0     libucrtd:debug_heap.obj
 0002:00002610       ??_C@_1DM@DEDLGNML@?$AA_?$AAC?$AAr?$AAt?$AAI?$AAs?$AAV?$AAa?$AAl?$AAi?$AAd?$AAH?$AAe?$AAa?$AAp@ 000000018004f610     libucrtd:debug_heap.obj
 0002:00002650       ??_C@_1PC@MCGKJLN@?$AAo?$AAl?$AAd?$AA_?$AAh?$AAe?$AAa?$AAd?$AA?9?$AA?$DO?$AA_?$AAl?$AAi?$AAn?$AAe@ 000000018004f650     libucrtd:debug_heap.obj
 0002:00002748       ??_C@_0DA@HFBKENN@Error?3?5possible?5heap?5corruption@ 000000018004f748     libucrtd:debug_heap.obj
 0002:00002780       ??_C@_1JM@MCMEPJEP@?$AAr?$AAe?$AAa?$AAl?$AAl?$AAo?$AAc?$AAa?$AAt?$AAi?$AAo?$AAn?$AA_?$AAi?$AAs@ 000000018004f780     libucrtd:debug_heap.obj
 0002:00002820       ??_C@_1DM@LNOPKAIJ@?$AA_?$AA_?$AAa?$AAc?$AAr?$AAt?$AA_?$AAl?$AAa?$AAs?$AAt?$AA_?$AAb?$AAl?$AAo@ 000000018004f820     libucrtd:debug_heap.obj
 0002:00002860       ??_C@_1DO@HABCJBHO@?$AA_?$AA_?$AAa?$AAc?$AAr?$AAt?$AA_?$AAf?$AAi?$AAr?$AAs?$AAt?$AA_?$AAb?$AAl@ 000000018004f860     libucrtd:debug_heap.obj
 0002:000028a0       ??_C@_1CC@CKEAHJPH@?$AAb?$AAl?$AAo?$AAc?$AAk?$AA?5?$AA?$CB?$AA?$DN?$AA?5?$AAn?$AAu?$AAl?$AAl?$AAp?$AAt@ 000000018004f8a0     libucrtd:debug_heap.obj
 0002:000028d0       ??_C@_0EJ@HEIBCIMJ@The?5Block?5at?50x?$CFp?5was?5allocated@ 000000018004f8d0     libucrtd:debug_heap.obj
 0002:00002920       ??_C@_0BL@KEIPLFAC@Client?5hook?5free?5failure?4?6@ 000000018004f920     libucrtd:debug_heap.obj
 0002:00002940       ??_C@_1FA@KDNEBILF@?$AAi?$AAs?$AA_?$AAb?$AAl?$AAo?$AAc?$AAk?$AA_?$AAt?$AAy?$AAp?$AAe?$AA_?$AAv@ 000000018004f940     libucrtd:debug_heap.obj
 0002:00002990       ??_C@_0KI@JGFOHMEB@HEAP?5CORRUPTION?5DETECTED?3?5befor@ 000000018004f990     libucrtd:debug_heap.obj
 0002:00002a40       ??_C@_0IK@PJCGLBOB@HEAP?5CORRUPTION?5DETECTED?3?5befor@ 000000018004fa40     libucrtd:debug_heap.obj
 0002:00002ad0       ??_C@_0KE@MBMNHHHN@HEAP?5CORRUPTION?5DETECTED?3?5after@ 000000018004fad0     libucrtd:debug_heap.obj
 0002:00002b80       ??_C@_0IG@LEMBDCJK@HEAP?5CORRUPTION?5DETECTED?3?5after@ 000000018004fb80     libucrtd:debug_heap.obj
 0002:00002c10       ??_C@_1OK@GFEOEJAF@?$AAh?$AAe?$AAa?$AAd?$AAe?$AAr?$AA?9?$AA?$DO?$AA_?$AAl?$AAi?$AAn?$AAe?$AA_?$AAn@ 000000018004fc10     libucrtd:debug_heap.obj
 0002:00002d00       ??_C@_1ME@GFALMLNA@?$AAh?$AAe?$AAa?$AAd?$AAe?$AAr?$AA?9?$AA?$DO?$AA_?$AAb?$AAl?$AAo?$AAc?$AAk?$AA_@ 000000018004fd00     libucrtd:debug_heap.obj
 0002:00002dc8       ??_C@_1DI@ILNOPEPI@?$AA_?$AA_?$AAa?$AAc?$AAr?$AAt?$AA_?$AAl?$AAa?$AAs?$AAt?$AA_?$AAb?$AAl?$AAo@ 000000018004fdc8     libucrtd:debug_heap.obj
 0002:00002e00       ??_C@_1DK@KEHFGDIJ@?$AA_?$AA_?$AAa?$AAc?$AAr?$AAt?$AA_?$AAf?$AAi?$AAr?$AAs?$AAt?$AA_?$AAb?$AAl@ 000000018004fe00     libucrtd:debug_heap.obj
 0002:00002e40       ??_C@_1BG@MBKOGDLD@?$AA_?$AAm?$AAs?$AAi?$AAz?$AAe?$AA_?$AAd?$AAb?$AAg@ 000000018004fe40     libucrtd:debug_heap.obj
 0002:00002e58       ??_C@_07OHKEFPKJ@DAMAGED@  000000018004fe58     libucrtd:debug_heap.obj
 0002:00002e60       ??_C@_0KA@IHNJJKPL@HEAP?5CORRUPTION?5DETECTED?3?5on?5to@ 000000018004fe60     libucrtd:debug_heap.obj
 0002:00002f00       ??_C@_0IC@BBJIOOJH@HEAP?5CORRUPTION?5DETECTED?3?5on?5to@ 000000018004ff00     libucrtd:debug_heap.obj
 0002:00002f90       ??_C@_0EG@DGJMPDBH@?$CFhs?5located?5at?50x?$CFp?5is?5?$CFIu?5byte@ 000000018004ff90     libucrtd:debug_heap.obj
 0002:00002fd8       ??_C@_0CI@JMLBEDHJ@?$CFhs?5located?5at?50x?$CFp?5is?5?$CFIu?5byte@ 000000018004ffd8     libucrtd:debug_heap.obj
 0002:00003000       ??_C@_0EG@GPFHANHO@Cycle?5in?5block?5list?5detected?5wh@ 0000000180050000     libucrtd:debug_heap.obj
 0002:00003048       ??_C@_0BJ@ELMAOCAJ@Heap?5validation?5failed?4?6@ 0000000180050048     libucrtd:debug_heap.obj
 0002:00003070       ??_C@_1IE@BBIFDGEB@?$AAn?$AAe?$AAw?$AA_?$AAb?$AAi?$AAt?$AAs?$AA?5?$AA?$DN?$AA?$DN?$AA?5?$AA_?$AAC?$AAR@ 0000000180050070     libucrtd:debug_heap.obj
 0002:000030f8       ??_C@_1BO@GJFDNMNF@?$AA_?$AAC?$AAr?$AAt?$AAS?$AAe?$AAt?$AAD?$AAb?$AAg?$AAF?$AAl?$AAa?$AAg@ 00000001800500f8     libucrtd:debug_heap.obj
 0002:00003118       ??_C@_1CC@BBKMONGA@?$AAs?$AAt?$AAa?$AAt?$AAe?$AA?5?$AA?$CB?$AA?$DN?$AA?5?$AAn?$AAu?$AAl?$AAl?$AAp?$AAt@ 0000000180050118     libucrtd:debug_heap.obj
 0002:00003140       ??_C@_1CE@NJJKELF@?$AA_?$AAC?$AAr?$AAt?$AAM?$AAe?$AAm?$AAC?$AAh?$AAe?$AAc?$AAk?$AAp?$AAo?$AAi@ 0000000180050140     libucrtd:debug_heap.obj
 0002:00003168       ??_C@_0DP@LEFMFBOD@Bad?5memory?5block?5found?5at?50x?$CFp?4@ 0000000180050168     libucrtd:debug_heap.obj
 0002:000031a8       ??_C@_0CB@EAAIGELO@Bad?5memory?5block?5found?5at?50x?$CFp?4@ 00000001800501a8     libucrtd:debug_heap.obj
 0002:000031cc       ??_C@_05MKKEDADM@?$CF?42X?5@ 00000001800501cc     libucrtd:debug_heap.obj
 0002:000031d8       ??_C@_1CC@DIJAHFFJ@?$AAp?$AAr?$AAi?$AAn?$AAt?$AA_?$AAb?$AAl?$AAo?$AAc?$AAk?$AA_?$AAd?$AAa?$AAt@ 00000001800501d8     libucrtd:debug_heap.obj
 0002:00003200       ??_C@_1BI@KALLJECN@?$AA?$CI?$AA?$CK?$AA_?$AAe?$AAr?$AAr?$AAn?$AAo?$AA?$CI?$AA?$CJ?$AA?$CJ@ 0000000180050200     libucrtd:debug_heap.obj
 0002:00003218       ??_C@_0BA@HJBKCELP@?5Data?3?5?$DM?$CFs?$DO?5?$CFs?6@ 0000000180050218     libucrtd:debug_heap.obj
 0002:00003228       ??_C@_0BE@KCIPKCIA@Dumping?5objects?5?9?$DO?6@ 0000000180050228     libucrtd:debug_heap.obj
 0002:00003240       ??_C@_0BE@OIEFNFL@?$CDFile?5Error?$CD?$CI?$CFd?$CJ?5?3?5@ 0000000180050240     libucrtd:debug_heap.obj
 0002:00003258       ??_C@_0L@JMEFFCCJ@?$CFhs?$CI?$CFd?$CJ?5?3?5@ 0000000180050258     libucrtd:debug_heap.obj
 0002:00003264       ??_C@_06PKLGBFGM@?$HL?$CFld?$HN?5@ 0000000180050264     libucrtd:debug_heap.obj
 0002:00003270       ??_C@_0DD@GHNAAKBB@client?5block?5at?50x?$CFp?0?5subtype?5?$CF@ 0000000180050270     libucrtd:debug_heap.obj
 0002:000032a8       ??_C@_0CH@FAGDDGPN@normal?5block?5at?50x?$CFp?0?5?$CFIu?5bytes@ 00000001800502a8     libucrtd:debug_heap.obj
 0002:000032d0       ??_C@_0DA@MDLBNIBM@crt?5block?5at?50x?$CFp?0?5subtype?5?$CFx?0?5@ 00000001800502d0     libucrtd:debug_heap.obj
 0002:00003300       ??_C@_0BH@GFGKJDCO@Object?5dump?5complete?4?6@ 0000000180050300     libucrtd:debug_heap.obj
 0002:00003318       ??_C@_0BI@JBFPOEJA@Detected?5memory?5leaks?$CB?6@ 0000000180050318     libucrtd:debug_heap.obj
 0002:00003330       ??_C@_1GI@BBAEIKL@?$AA?$CI?$AA?$CI?$AAd?$AAe?$AAs?$AAt?$AAi?$AAn?$AAa?$AAt?$AAi?$AAo?$AAn?$AA?$CJ?$AA?$CJ@ 0000000180050330     libucrtd:strcpy_s.obj
 0002:000033a0       ??_C@_1HI@PBJPCEBC@?$AAm?$AAi?$AAn?$AAk?$AAe?$AAr?$AAn?$AAe?$AAl?$AA?2?$AAc?$AAr?$AAt?$AAs?$AA?2@ 00000001800503a0     libucrtd:strcpy_s.obj
 0002:00003418       ??_C@_1CA@FHIAGDFH@?$AAc?$AAo?$AAm?$AAm?$AAo?$AAn?$AA_?$AAt?$AAc?$AAs?$AAc?$AAp?$AAy?$AA_?$AAs@ 0000000180050418     libucrtd:strcpy_s.obj
 0002:00003438       ??_C@_1CK@EIOKGPJL@?$AA?$CI?$AA?$CI?$AA?$CI?$AAs?$AAo?$AAu?$AAr?$AAc?$AAe?$AA?$CJ?$AA?$CJ?$AA?$CJ?$AA?5?$AA?$CB?$AA?$DN@ 0000000180050438     libucrtd:strcpy_s.obj
 0002:00003468       ??_C@_1CI@HCPHDDLE@?$AAB?$AAu?$AAf?$AAf?$AAe?$AAr?$AA?5?$AAi?$AAs?$AA?5?$AAt?$AAo?$AAo?$AA?5?$AAs@ 0000000180050468     libucrtd:strcpy_s.obj
 0002:00003490       ??_C@_1DM@MADKGDLO@?$AA?$CI?$AAL?$AA?$CC?$AAB?$AAu?$AAf?$AAf?$AAe?$AAr?$AA?5?$AAi?$AAs?$AA?5?$AAt?$AAo@ 0000000180050490     libucrtd:strcpy_s.obj
 0002:000034d0       ??_C@_1DA@LLLMNMKI@?$AAa?$AAb?$AAo?$AAr?$AAt?$AA?$CI?$AA?$CJ?$AA?5?$AAh?$AAa?$AAs?$AA?5?$AAb?$AAe?$AAe@ 00000001800504d0     libucrtd:abort.obj
 0002:00003500       ?format_validation_lookup_table_spectre@__crt_stdio_output@@3V?$spectre_mitigated_lookup_table@Ustate_transition_pair@__crt_stdio_output@@$0IA@@1@B 0000000180050500     libucrtd:output.obj
 0002:000036a0       ??_C@_1GE@DPGDJKLM@?$AAm?$AAi?$AAn?$AAk?$AAe?$AAr?$AAn?$AAe?$AAl?$AA?2?$AAc?$AAr?$AAt?$AAs?$AA?2@ 00000001800506a0     libucrtd:output.obj
 0002:00003710       ??_C@_1GA@MOBAPGIO@?$AAm?$AAi?$AAn?$AAk?$AAe?$AAr?$AAn?$AAe?$AAl?$AA?2?$AAc?$AAr?$AAt?$AAs?$AA?2@ 0000000180050710     libucrtd:output.obj
 0002:00003770       ??_C@_1CE@EAKLPBKK@?$AAf?$AAo?$AAr?$AAm?$AAa?$AAt?$AA?5?$AA?$CB?$AA?$DN?$AA?5?$AAn?$AAu?$AAl?$AAl?$AAp@ 0000000180050770     libucrtd:output.obj
 0002:00003798       ??_C@_1CA@PIMGHCEK@?$AAc?$AAo?$AAm?$AAm?$AAo?$AAn?$AA_?$AAv?$AAs?$AAp?$AAr?$AAi?$AAn?$AAt?$AAf@ 0000000180050798     libucrtd:output.obj
 0002:000037c0       ??_C@_1EO@EGEEFEFM@?$AAb?$AAu?$AAf?$AAf?$AAe?$AAr?$AA_?$AAc?$AAo?$AAu?$AAn?$AAt?$AA?5?$AA?$DN?$AA?$DN@ 00000001800507c0     libucrtd:output.obj
 0002:00003810       ??_C@_1CE@JEILLNB@?$AAc?$AAo?$AAm?$AAm?$AAo?$AAn?$AA_?$AAv?$AAs?$AAp?$AAr?$AAi?$AAn?$AAt?$AAf@ 0000000180050810     libucrtd:output.obj
 0002:00003840       ??_C@_1EM@OAFHAOLH@?$AAb?$AAu?$AAf?$AAf?$AAe?$AAr?$AA?5?$AA?$CB?$AA?$DN?$AA?5?$AAn?$AAu?$AAl?$AAl?$AAp@ 0000000180050840     libucrtd:output.obj
 0002:00003890       ??_C@_1DA@HPBFKMEB@?$AA?$CI?$AA?$CC?$AAB?$AAu?$AAf?$AAf?$AAe?$AAr?$AA?5?$AAt?$AAo?$AAo?$AA?5?$AAs?$AAm@ 0000000180050890     libucrtd:output.obj
 0002:000038c0       ??_C@_1CG@LHFJHFBB@?$AAc?$AAo?$AAm?$AAm?$AAo?$AAn?$AA_?$AAv?$AAs?$AAn?$AAp?$AAr?$AAi?$AAn?$AAt@ 00000001800508c0     libucrtd:output.obj
 0002:000038e8       ??_C@_1CM@JOIJBMEM@?$AA_?$AAf?$AAo?$AAr?$AAm?$AAa?$AAt?$AA_?$AAi?$AAt?$AA?5?$AA?$CB?$AA?$DN?$AA?5?$AAn@ 00000001800508e8     libucrtd:output.obj
 0002:00003920       ??_C@_1HA@DMAAKIJP@?$AAm?$AAi?$AAn?$AAk?$AAe?$AAr?$AAn?$AAe?$AAl?$AA?2?$AAc?$AAr?$AAt?$AAs?$AA?2@ 0000000180050920     libucrtd:output.obj
 0002:00003990       ??_C@_1EE@DMAIGNBG@?$AA?$CI?$AA?$CC?$AAI?$AAn?$AAc?$AAo?$AAr?$AAr?$AAe?$AAc?$AAt?$AA?5?$AAf?$AAo?$AAr@ 0000000180050990     libucrtd:output.obj
 0002:000039e0       ??_C@_1FG@OBJBDPAC@?$AA?$CI?$AA?$CC?$AAN?$AA?5?$AAl?$AAe?$AAn?$AAg?$AAt?$AAh?$AA?5?$AAm?$AAo?$AAd?$AAi@ 00000001800509e0     libucrtd:output.obj
 0002:00003a40       ??_C@_1EC@GJPNJDCN@?$AA_?$AAl?$AAe?$AAn?$AAg?$AAt?$AAh?$AA?5?$AA?$DN?$AA?$DN?$AA?5?$AAl?$AAe?$AAn?$AAg@ 0000000180050a40     libucrtd:output.obj
 0002:00003a88       ??_C@_1DG@CEJKFDMO@?$AAs?$AAt?$AAa?$AAt?$AAe?$AA_?$AAc?$AAa?$AAs?$AAe?$AA_?$AAn?$AAo?$AAr?$AAm@ 0000000180050a88     libucrtd:output.obj
 0002:00003ac0       ??_C@_1CI@DDKMNCPP@?$AA_?$AAc?$AAo?$AAn?$AAt?$AAe?$AAx?$AAt?$AA?5?$AA?$CB?$AA?$DN?$AA?5?$AAn?$AAu?$AAl@ 0000000180050ac0     libucrtd:output.obj
 0002:00003af0       ??_C@_1HK@IIPGOADH@?$AA_?$AA_?$AAc?$AAr?$AAt?$AA_?$AAs?$AAt?$AAd?$AAi?$AAo?$AA_?$AAo?$AAu?$AAt@ 0000000180050af0     libucrtd:output.obj
 0002:00003b70       ??_C@_1HE@IACOMEJF@?$AA_?$AA_?$AAc?$AAr?$AAt?$AA_?$AAs?$AAt?$AAd?$AAi?$AAo?$AA_?$AAo?$AAu?$AAt@ 0000000180050b70     libucrtd:output.obj
 0002:00003bf0       ??_C@_1GC@BNMHNGKM@?$AA_?$AAs?$AAt?$AAa?$AAt?$AAe?$AA?5?$AA?$DN?$AA?$DN?$AA?5?$AAs?$AAt?$AAa?$AAt?$AAe@ 0000000180050bf0     libucrtd:output.obj
 0002:00003c60       ??_C@_1EK@PNGFDECN@?$AA?$CI?$AA?$CC?$AA?8?$AAn?$AA?8?$AA?5?$AAf?$AAo?$AAr?$AAm?$AAa?$AAt?$AA?5?$AAs?$AAp@ 0000000180050c60     libucrtd:output.obj
 0002:00003cb0       ??_C@_1EO@GHKFGFKL@?$AA?$CI?$AA?$CC?$AAI?$AAn?$AAv?$AAa?$AAl?$AAi?$AAd?$AA?5?$AAi?$AAn?$AAt?$AAe?$AAg@ 0000000180050cb0     libucrtd:output.obj
 0002:00003d00       ??_C@_1BEC@NDOOKIMC@?$AA_?$AA_?$AAc?$AAr?$AAt?$AA_?$AAs?$AAt?$AAd?$AAi?$AAo?$AA_?$AAo?$AAu?$AAt@ 0000000180050d00     libucrtd:output.obj
 0002:00003e50       ??_C@_1BDG@KOLEFKPF@?$AA_?$AA_?$AAc?$AAr?$AAt?$AA_?$AAs?$AAt?$AAd?$AAi?$AAo?$AA_?$AAo?$AAu?$AAt@ 0000000180050e50     libucrtd:output.obj
 0002:00003f88       ??_C@_1O@CEDCILHN@?$AA?$CI?$AAn?$AAu?$AAl?$AAl?$AA?$CJ@ 0000000180050f88     libucrtd:output.obj
 0002:00003f98       ??_C@_06OJHGLDPL@?$CInull?$CJ@ 0000000180050f98     libucrtd:output.obj
 0002:00003fa0       ??_C@_1CK@LGDCECDH@?$AA_?$AAf?$AAo?$AAr?$AAm?$AAa?$AAt?$AA_?$AAc?$AAh?$AAa?$AAr?$AA?5?$AA?$CB?$AA?$DN@ 0000000180050fa0     libucrtd:output.obj
 0002:00003fd0       ??_C@_0DI@KIFBHMNO@minkernel?2crts?2ucrt?2inc?2corecrt@ 0000000180050fd0     libucrtd:output.obj
 0002:00004010       ??_C@_1BMK@JGIBNIA@?$AA_?$AA_?$AAc?$AAr?$AAt?$AA_?$AAs?$AAt?$AAd?$AAi?$AAo?$AA_?$AAo?$AAu?$AAt@ 0000000180051010     libucrtd:output.obj
 0002:000041e0       ??_C@_1BLC@INKIGOCN@?$AA_?$AA_?$AAc?$AAr?$AAt?$AA_?$AAs?$AAt?$AAd?$AAi?$AAo?$AA_?$AAo?$AAu?$AAt@ 00000001800511e0     libucrtd:output.obj
 0002:000043a0       ??_C@_1BNK@KHNJGCCP@?$AA_?$AA_?$AAc?$AAr?$AAt?$AA_?$AAs?$AAt?$AAd?$AAi?$AAo?$AA_?$AAo?$AAu?$AAt@ 00000001800513a0     libucrtd:output.obj
 0002:00004580       ??_C@_1BNO@OHFFMOOJ@?$AA_?$AA_?$AAc?$AAr?$AAt?$AA_?$AAs?$AAt?$AAd?$AAi?$AAo?$AA_?$AAo?$AAu?$AAt@ 0000000180051580     libucrtd:output.obj
 0002:00004760       ??_C@_1BMC@FAGJFBLI@?$AA_?$AA_?$AAc?$AAr?$AAt?$AA_?$AAs?$AAt?$AAd?$AAi?$AAo?$AA_?$AAo?$AAu?$AAt@ 0000000180051760     libucrtd:output.obj
 0002:00004930       ??_C@_1BMG@CGPDIFDK@?$AA_?$AA_?$AAc?$AAr?$AAt?$AA_?$AAs?$AAt?$AAd?$AAi?$AAo?$AA_?$AAo?$AAu?$AAt@ 0000000180051930     libucrtd:output.obj
 0002:00004b00       ??_C@_1BNC@OHPDPPJK@?$AA_?$AA_?$AAc?$AAr?$AAt?$AA_?$AAs?$AAt?$AAd?$AAi?$AAo?$AA_?$AAo?$AAu?$AAt@ 0000000180051b00     libucrtd:output.obj
 0002:00004ce0       ??_C@_1BLK@FOLFMPJH@?$AA_?$AA_?$AAc?$AAr?$AAt?$AA_?$AAs?$AAt?$AAd?$AAi?$AAo?$AA_?$AAo?$AAu?$AAt@ 0000000180051ce0     libucrtd:output.obj
 0002:00004ea0       ??_C@_1BNC@JPKLPOHO@?$AA_?$AA_?$AAc?$AAr?$AAt?$AA_?$AAs?$AAt?$AAd?$AAi?$AAo?$AA_?$AAo?$AAu?$AAt@ 0000000180051ea0     libucrtd:output.obj
 0002:00005080       ??_C@_1EO@MLJCKPIB@?$AAb?$AAa?$AAs?$AAe?$AA?5?$AA?$DN?$AA?$DN?$AA?5?$AA0?$AA?5?$AA?$HM?$AA?$HM?$AA?5?$AA?$CI?$AA2@ 0000000180052080     libucrtd:output.obj
 0002:000050d0       ??_C@_1DI@BANODKFL@?$AA_?$AA_?$AAc?$AAr?$AAt?$AA_?$AAs?$AAt?$AAr?$AAt?$AAo?$AAx?$AA?3?$AA?3?$AAp@ 00000001800520d0     libucrtd:output.obj
 0002:00005110       ??_C@_1BNO@NAODCKFA@?$AA_?$AA_?$AAc?$AAr?$AAt?$AA_?$AAs?$AAt?$AAd?$AAi?$AAo?$AA_?$AAo?$AAu?$AAt@ 0000000180052110     libucrtd:output.obj
 0002:000052f0       ??_C@_1BMG@BBEFGBID@?$AA_?$AA_?$AAc?$AAr?$AAt?$AA_?$AAs?$AAt?$AAd?$AAi?$AAo?$AA_?$AAo?$AAu?$AAt@ 00000001800522f0     libucrtd:output.obj
 0002:000054b8       ??_C@_1CM@GJENOOEJ@?$AAc?$AA?5?$AA?$DN?$AA?$DN?$AA?5?$AA?8?$AA?2?$AA0?$AA?8?$AA?5?$AA?$HM?$AA?$HM?$AA?5?$AA?$CK?$AA_@ 00000001800524b8     libucrtd:output.obj
 0002:000054f0       ??_C@_1GK@MNHIDABG@?$AA_?$AA_?$AAc?$AAr?$AAt?$AA_?$AAs?$AAt?$AAr?$AAt?$AAo?$AAx?$AA?3?$AA?3?$AAc@ 00000001800524f0     libucrtd:output.obj
 0002:00005560       ??_C@_1BM@PNEBBBDO@?$AA_?$AAp?$AA?5?$AA?$CB?$AA?$DN?$AA?5?$AAn?$AAu?$AAl?$AAl?$AAp?$AAt?$AAr@ 0000000180052560     libucrtd:output.obj
 0002:00005580       ??_C@_1HA@MKKIHBHP@?$AA_?$AA_?$AAc?$AAr?$AAt?$AA_?$AAs?$AAt?$AAr?$AAt?$AAo?$AAx?$AA?3?$AA?3?$AAc@ 0000000180052580     libucrtd:output.obj
 0002:000055f0       ??_C@_1HA@CONLANFI@?$AA_?$AA_?$AAc?$AAr?$AAt?$AA_?$AAs?$AAt?$AAr?$AAt?$AAo?$AAx?$AA?3?$AA?3?$AAc@ 00000001800525f0     libucrtd:output.obj
 0002:00005660       ??_C@_1HG@FCDBLOEG@?$AA_?$AA_?$AAc?$AAr?$AAt?$AA_?$AAs?$AAt?$AAr?$AAt?$AAo?$AAx?$AA?3?$AA?3?$AAc@ 0000000180052660     libucrtd:output.obj
 0002:000056f0       ??_C@_1BA@GLMCNLEM@?$AAW?$AAa?$AAr?$AAn?$AAi?$AAn?$AAg@ 00000001800526f0     libucrtd:dbgrpt.obj
 0002:00005700       ??_C@_1M@ILHOPKA@?$AAE?$AAr?$AAr?$AAo?$AAr@ 0000000180052700     libucrtd:dbgrpt.obj
 0002:00005710       ??_C@_1CC@CGHMNGDG@?$AAA?$AAs?$AAs?$AAe?$AAr?$AAt?$AAi?$AAo?$AAn?$AA?5?$AAF?$AAa?$AAi?$AAl?$AAe@ 0000000180052710     libucrtd:dbgrpt.obj
 0002:00005740       ??_C@_1OG@PMPPFHAF@?$AA?6?$AA?6?$AAF?$AAo?$AAr?$AA?5?$AAi?$AAn?$AAf?$AAo?$AAr?$AAm?$AAa?$AAt?$AAi@ 0000000180052740     libucrtd:dbgrpt.obj
 0002:00005830       ??_C@_1MG@LJLILFFD@?$AAD?$AAe?$AAb?$AAu?$AAg?$AA?5?$AA?$CF?$AAl?$AAs?$AA?$CB?$AA?6?$AA?6?$AAP?$AAr?$AAo@ 0000000180052830     libucrtd:dbgrpt.obj
 0002:00005900       ??_C@_1MG@OODCADGL@?$AAD?$AAe?$AAb?$AAu?$AAg?$AA?5?$AA?$CF?$AAl?$AAs?$AA?$CB?$AA?6?$AA?6?$AAP?$AAr?$AAo@ 0000000180052900     libucrtd:dbgrpt.obj
 0002:000059c8       ??_C@_0BH@DNAGHKFM@?$DMprogram?5name?5unknown?$DO@ 00000001800529c8     libucrtd:dbgrpt.obj
 0002:000059e0       ??_C@_1CO@EAEJAADC@?$AA?$DM?$AAp?$AAr?$AAo?$AAg?$AAr?$AAa?$AAm?$AA?5?$AAn?$AAa?$AAm?$AAe?$AA?5?$AAu@ 00000001800529e0     libucrtd:dbgrpt.obj
 0002:00005a10       ??_C@_1FO@GMJDLAJD@?$AAm?$AAi?$AAn?$AAk?$AAe?$AAr?$AAn?$AAe?$AAl?$AA?2?$AAc?$AAr?$AAt?$AAs?$AA?2@ 0000000180052a10     libucrtd:dbgrpt.obj
 0002:00005a70       ??_C@_1CM@EHMOGBJJ@?$AAc?$AAo?$AAm?$AAm?$AAo?$AAn?$AA_?$AAm?$AAe?$AAs?$AAs?$AAa?$AAg?$AAe?$AA_@ 0000000180052a70     libucrtd:dbgrpt.obj
 0002:00005aa0       ??_C@_1PE@ECNALGCA@?$AAt?$AAr?$AAa?$AAi?$AAt?$AAs?$AA?3?$AA?3?$AAt?$AAc?$AAs?$AAc?$AAp?$AAy?$AA_@ 0000000180052aa0     libucrtd:dbgrpt.obj
 0002:00005b98       ??_C@_1BK@PEDCIPMA@?$AAE?$AAx?$AAp?$AAr?$AAe?$AAs?$AAs?$AAi?$AAo?$AAn?$AA?3?$AA?5@ 0000000180052b98     libucrtd:dbgrpt.obj
 0002:00005bb4       ??_C@_15IABLJNFO@?$AA?6?$AA?6@ 0000000180052bb4     libucrtd:dbgrpt.obj
 0002:00005bc0       ??_C@_1BA@GLLGCPCK@?$AA?6?$AAL?$AAi?$AAn?$AAe?$AA?3?$AA?5@ 0000000180052bc0     libucrtd:dbgrpt.obj
 0002:00005bd0       ??_C@_1BA@LNHECFIM@?$AA?6?$AAF?$AAi?$AAl?$AAe?$AA?3?$AA?5@ 0000000180052bd0     libucrtd:dbgrpt.obj
 0002:00005be0       ??_C@_17LGKOMLJ@?$AA?4?$AA?4?$AA?4@ 0000000180052be0     libucrtd:dbgrpt.obj
 0002:00005be8       ??_C@_1BE@CGCJKGHI@?$AA?6?$AAM?$AAo?$AAd?$AAu?$AAl?$AAe?$AA?3?$AA?5@ 0000000180052be8     libucrtd:dbgrpt.obj
 0002:00005c00       ??_C@_1JM@IBOIJEOO@?$AAw?$AAc?$AAs?$AAc?$AAp?$AAy?$AA_?$AAs?$AA?$CI?$AAm?$AAe?$AAs?$AAs?$AAa?$AAg@ 0000000180052c00     libucrtd:dbgrpt.obj
 0002:00005ca0       ??_C@_1FG@BBOLDHGF@?$AA_?$AAC?$AAr?$AAt?$AAD?$AAb?$AAg?$AAR?$AAe?$AAp?$AAo?$AAr?$AAt?$AA?3?$AA?5@ 0000000180052ca0     libucrtd:dbgrpt.obj
 0002:00005d00       ??_C@_1EK@MBDPDCGA@?$AAM?$AAi?$AAc?$AAr?$AAo?$AAs?$AAo?$AAf?$AAt?$AA?5?$AAV?$AAi?$AAs?$AAu?$AAa@ 0000000180052d00     libucrtd:dbgrpt.obj
 0002:00005ef0       ??_C@_04LAGPAAHP@sinf@     0000000180052ef0     libucrtd:sincos_special.obj
 0002:00005ef8       ??_C@_04OBBKPIAC@cosf@     0000000180052ef8     libucrtd:sincos_special.obj
 0002:00005f00       __Lcosfarray               0000000180052f00     libucrtd:lsincosf_array.obj
 0002:00005f30       __Lsinfarray               0000000180052f30     libucrtd:lsincosf_array.obj
 0002:00005f50       __L_2_by_pi_bits           0000000180052f50     libucrtd:l2_by_pi_bits.obj
 0002:00006190       ??_C@_0DM@DKIFNNOL@minkernel?2crts?2ucrt?2src?2appcrt?2@ 0000000180053190     libucrtd:per_thread_data.obj
 0002:000061d0       ??_C@_1FO@NMANMHOD@?$AAc?$AAa?$AAc?$AAh?$AAe?$AAd?$AA_?$AAs?$AAt?$AAa?$AAt?$AAe?$AA?5?$AA?$DN?$AA?$DN@ 00000001800531d0     libucrtd:win_policies.obj
 0002:00006230       ??_C@_1HC@GHLNKBJK@?$AAm?$AAi?$AAn?$AAk?$AAe?$AAr?$AAn?$AAe?$AAl?$AA?2?$AAc?$AAr?$AAt?$AAs?$AA?2@ 0000000180053230     libucrtd:win_policies.obj
 0002:00006418       ??_C@_1CE@JMFACANE@?$AAr?$AAe?$AAs?$AAu?$AAl?$AAt?$AA?5?$AA?$CB?$AA?$DN?$AA?5?$AAn?$AAu?$AAl?$AAl?$AAp@ 0000000180053418     libucrtd:errno.obj
 0002:000064b8       ??_C@_0DI@DNFGFCIK@minkernel?2crts?2ucrt?2inc?2corecrt@ 00000001800534b8     libucrtd:argv_wildcards.obj
 0002:000064f0       ??_C@_1HE@CEMHPOHH@?$AAm?$AAi?$AAn?$AAk?$AAe?$AAr?$AAn?$AAe?$AAl?$AA?2?$AAc?$AAr?$AAt?$AAs?$AA?2@ 00000001800534f0     libucrtd:argv_wildcards.obj
 0002:00006568       ??_C@_1DK@IBFFOJGB@?$AAc?$AAo?$AAm?$AAm?$AAo?$AAn?$AA_?$AAe?$AAx?$AAp?$AAa?$AAn?$AAd?$AA_?$AAa@ 0000000180053568     libucrtd:argv_wildcards.obj
 0002:000065b0       ??_C@_1MC@FLPKOFON@?$AAt?$AAr?$AAa?$AAi?$AAt?$AAs?$AA?3?$AA?3?$AAt?$AAc?$AAs?$AAn?$AAc?$AAp?$AAy@ 00000001800535b0     libucrtd:argv_wildcards.obj
 0002:00006678       ??_C@_0DK@FPFMIIJB@minkernel?2crts?2ucrt?2src?2appcrt?2@ 0000000180053678     libucrtd:argv_wildcards.obj
 0002:000066c0       ??_C@_1EA@KOCCBLAD@?$AAc?$AAo?$AAp?$AAy?$AA_?$AAa?$AAn?$AAd?$AA_?$AAa?$AAd?$AAd?$AA_?$AAa?$AAr@ 00000001800536c0     libucrtd:argv_wildcards.obj
 0002:00006700       ??_C@_1KM@GDJIGAGL@?$AAt?$AAr?$AAa?$AAi?$AAt?$AAs?$AA?3?$AA?3?$AAt?$AAc?$AAs?$AAn?$AAc?$AAp?$AAy@ 0000000180053700     libucrtd:argv_wildcards.obj
 0002:000067b0       ??_C@_1PI@FGFLAGCC@?$AAt?$AAr?$AAa?$AAi?$AAt?$AAs?$AA?3?$AA?3?$AAt?$AAc?$AAs?$AAn?$AAc?$AAp?$AAy@ 00000001800537b0     libucrtd:argv_wildcards.obj
 0002:000068f0       ??_C@_1M@HPNHIDJI@?$AAj?$AAa?$AA?9?$AAJ?$AAP@ 00000001800538f0     libucrtd:mbctype.obj
 0002:00006900       ??_C@_1M@BIBDDEMK@?$AAz?$AAh?$AA?9?$AAC?$AAN@ 0000000180053900     libucrtd:mbctype.obj
 0002:00006910       ??_C@_1M@JLOOOEGK@?$AAk?$AAo?$AA?9?$AAK?$AAR@ 0000000180053910     libucrtd:mbctype.obj
 0002:00006920       ??_C@_1M@CLNBBOPM@?$AAz?$AAh?$AA?9?$AAT?$AAW@ 0000000180053920     libucrtd:mbctype.obj
 0002:00006980       ??_C@_0DE@HGDKNBFD@minkernel?2crts?2ucrt?2src?2appcrt?2@ 0000000180053980     libucrtd:mbctype.obj
 0002:000069c0       ??_C@_0ED@BLPEHJAI@minkernel?2crts?2ucrt?2src?2desktop@ 00000001800539c0     libucrtd:get_environment_from_os.obj
 0002:00006ac0       ??_C@_1EA@JGEFHKEI@?$AAa?$AAp?$AAi?$AA?9?$AAm?$AAs?$AA?9?$AAw?$AAi?$AAn?$AA?9?$AAc?$AAo?$AAr?$AAe@ 0000000180053ac0     libucrtd:winapi_thunks.obj
 0002:00006b00       ??_C@_1DI@KMEPCBPN@?$AAa?$AAp?$AAi?$AA?9?$AAm?$AAs?$AA?9?$AAw?$AAi?$AAn?$AA?9?$AAc?$AAo?$AAr?$AAe@ 0000000180053b00     libucrtd:winapi_thunks.obj
 0002:00006b38       ??_C@_1DI@IJCEHOCB@?$AAa?$AAp?$AAi?$AA?9?$AAm?$AAs?$AA?9?$AAw?$AAi?$AAn?$AA?9?$AAc?$AAo?$AAr?$AAe@ 0000000180053b38     libucrtd:winapi_thunks.obj
 0002:00006b70       ??_C@_1EI@MPIAOHOC@?$AAa?$AAp?$AAi?$AA?9?$AAm?$AAs?$AA?9?$AAw?$AAi?$AAn?$AA?9?$AAc?$AAo?$AAr?$AAe@ 0000000180053b70     libucrtd:winapi_thunks.obj
 0002:00006bc0       ??_C@_1FK@FPHCKFIE@?$AAa?$AAp?$AAi?$AA?9?$AAm?$AAs?$AA?9?$AAw?$AAi?$AAn?$AA?9?$AAc?$AAo?$AAr?$AAe@ 0000000180053bc0     libucrtd:winapi_thunks.obj
 0002:00006c20       ??_C@_1EM@DILCGIIO@?$AAa?$AAp?$AAi?$AA?9?$AAm?$AAs?$AA?9?$AAw?$AAi?$AAn?$AA?9?$AAc?$AAo?$AAr?$AAe@ 0000000180053c20     libucrtd:winapi_thunks.obj
 0002:00006c70       ??_C@_1DM@LNCGDDPN@?$AAa?$AAp?$AAi?$AA?9?$AAm?$AAs?$AA?9?$AAw?$AAi?$AAn?$AA?9?$AAc?$AAo?$AAr?$AAe@ 0000000180053c70     libucrtd:winapi_thunks.obj
 0002:00006cb0       ??_C@_1DO@FPAPJEMD@?$AAa?$AAp?$AAi?$AA?9?$AAm?$AAs?$AA?9?$AAw?$AAi?$AAn?$AA?9?$AAc?$AAo?$AAr?$AAe@ 0000000180053cb0     libucrtd:winapi_thunks.obj
 0002:00006cf0       ??_C@_1DK@NDHNAHIO@?$AAa?$AAp?$AAi?$AA?9?$AAm?$AAs?$AA?9?$AAw?$AAi?$AAn?$AA?9?$AAc?$AAo?$AAr?$AAe@ 0000000180053cf0     libucrtd:winapi_thunks.obj
 0002:00006d30       ??_C@_1DM@KGHDGBCM@?$AAa?$AAp?$AAi?$AA?9?$AAm?$AAs?$AA?9?$AAw?$AAi?$AAn?$AA?9?$AAc?$AAo?$AAr?$AAe@ 0000000180053d30     libucrtd:winapi_thunks.obj
 0002:00006d70       ??_C@_1EO@IJIOEFOH@?$AAa?$AAp?$AAi?$AA?9?$AAm?$AAs?$AA?9?$AAw?$AAi?$AAn?$AA?9?$AAr?$AAt?$AAc?$AAo@ 0000000180053d70     libucrtd:winapi_thunks.obj
 0002:00006dc0       ??_C@_1FG@HHGEKANL@?$AAa?$AAp?$AAi?$AA?9?$AAm?$AAs?$AA?9?$AAw?$AAi?$AAn?$AA?9?$AAs?$AAe?$AAc?$AAu@ 0000000180053dc0     libucrtd:winapi_thunks.obj
 0002:00006e20       ??_C@_1EG@DBIOJECG@?$AAe?$AAx?$AAt?$AA?9?$AAm?$AAs?$AA?9?$AAw?$AAi?$AAn?$AA?9?$AAn?$AAt?$AAu?$AAs@ 0000000180053e20     libucrtd:winapi_thunks.obj
 0002:00006e70       ??_C@_1EO@FIHMJCLF@?$AAe?$AAx?$AAt?$AA?9?$AAm?$AAs?$AA?9?$AAw?$AAi?$AAn?$AA?9?$AAn?$AAt?$AAu?$AAs@ 0000000180053e70     libucrtd:winapi_thunks.obj
 0002:00006ec0       ??_C@_1BC@DNHGCMLG@?$AAa?$AAd?$AAv?$AAa?$AAp?$AAi?$AA3?$AA2@ 0000000180053ec0     libucrtd:winapi_thunks.obj
 0002:00006ed8       ??_C@_1BG@CJPGBMEF@?$AAk?$AAe?$AAr?$AAn?$AAe?$AAl?$AAb?$AAa?$AAs?$AAe@ 0000000180053ed8     libucrtd:winapi_thunks.obj
 0002:00006ef0       ??_C@_1M@OAIMIKLP@?$AAn?$AAt?$AAd?$AAl?$AAl@ 0000000180053ef0     libucrtd:winapi_thunks.obj
 0002:00006f00       ??_C@_1EG@DPGNFKGC@?$AAa?$AAp?$AAi?$AA?9?$AAm?$AAs?$AA?9?$AAw?$AAi?$AAn?$AA?9?$AAa?$AAp?$AAp?$AAm@ 0000000180053f00     libucrtd:winapi_thunks.obj
 0002:00006f48       ??_C@_1O@BCCLBEOE@?$AAu?$AAs?$AAe?$AAr?$AA3?$AA2@ 0000000180053f48     libucrtd:winapi_thunks.obj
 0002:00006f58       ??_C@_1BA@IAIFMGEF@?$AAe?$AAx?$AAt?$AA?9?$AAm?$AAs?$AA?9@ 0000000180053f58     libucrtd:winapi_thunks.obj
 0002:00006f70       ??_C@_1HE@OILMBOBA@?$AAm?$AAi?$AAn?$AAk?$AAe?$AAr?$AAn?$AAe?$AAl?$AA?2?$AAc?$AAr?$AAt?$AAs?$AA?2@ 0000000180053f70     libucrtd:winapi_thunks.obj
 0002:00006fe8       ??_C@_0BA@FHFNEAED@AreFileApisANSI@ 0000000180053fe8     libucrtd:winapi_thunks.obj
 0002:00007000       ??_C@_0BA@HNOPNCHB@GetActiveWindow@ 0000000180054000     libucrtd:winapi_thunks.obj
 0002:00007018       ??_C@_0BD@HHGDFDBJ@GetLastActivePopup@ 0000000180054018     libucrtd:winapi_thunks.obj
 0002:00007038       ??_C@_0BI@DFKBFLJE@GetProcessWindowStation@ 0000000180054038     libucrtd:winapi_thunks.obj
 0002:00007058       ??_C@_0BK@DEKFELLI@GetUserObjectInformationW@ 0000000180054058     libucrtd:winapi_thunks.obj
 0002:00007088       ??_C@_0O@KKBNKAPF@LCMapStringEx@ 0000000180054088     libucrtd:winapi_thunks.obj
 0002:000070a0       ??_C@_0BB@HBDEELFH@LocaleNameToLCID@ 00000001800540a0     libucrtd:winapi_thunks.obj
 0002:000070c0       ??_C@_0M@CHKKJDAI@MessageBoxA@ 00000001800540c0     libucrtd:winapi_thunks.obj
 0002:000070d8       ??_C@_0M@DLDCCGNP@MessageBoxW@ 00000001800540d8     libucrtd:winapi_thunks.obj
 0002:000070e8       ??_C@_0CF@OJOFEIGO@AppPolicyGetProcessTerminationM@ 00000001800540e8     libucrtd:winapi_thunks.obj
 0002:00007118       ??_C@_0CE@OICFMIKE@AppPolicyGetShowDeveloperDiagno@ 0000000180054118     libucrtd:winapi_thunks.obj
 0002:00007140       ??_C@_0BL@ODDJNEDA@AppPolicyGetWindowingModel@ 0000000180054140     libucrtd:winapi_thunks.obj
 0002:00007188       ??_C@_1DA@NBILLKNO@?$AAl?$AAo?$AAc?$AAa?$AAl?$AA_?$AAa?$AAc?$AAt?$AAi?$AAo?$AAn?$AA?5?$AA?$CB?$AA?$DN@ 0000000180054188     libucrtd:signal.obj
 0002:000071c0       ??_C@_1FO@CCGDPEKE@?$AAm?$AAi?$AAn?$AAk?$AAe?$AAr?$AAn?$AAe?$AAl?$AA?2?$AAc?$AAr?$AAt?$AAs?$AA?2@ 00000001800541c0     libucrtd:signal.obj
 0002:00007220       ??_C@_1M@DMJEIKHL@?$AAr?$AAa?$AAi?$AAs?$AAe@ 0000000180054220     libucrtd:signal.obj
 0002:00007230       ??_C@_1DO@MLNEDKGB@?$AA?$CI?$AA?$CC?$AAI?$AAn?$AAv?$AAa?$AAl?$AAi?$AAd?$AA?5?$AAs?$AAi?$AAg?$AAn?$AAa@ 0000000180054230     libucrtd:signal.obj
 0002:00007270       __lc_time_c                0000000180054270     libucrtd:nlsdata.obj
 0002:00007530       ??_C@_03KOEHGMDN@Sun@      0000000180054530     libucrtd:nlsdata.obj
 0002:00007534       ??_C@_03PDAGKDH@Mon@       0000000180054534     libucrtd:nlsdata.obj
 0002:00007538       ??_C@_03NAGEINEP@Tue@      0000000180054538     libucrtd:nlsdata.obj
 0002:0000753c       ??_C@_03MHOMLAJA@Wed@      000000018005453c     libucrtd:nlsdata.obj
 0002:00007540       ??_C@_03IOFIKPDN@Thu@      0000000180054540     libucrtd:nlsdata.obj
 0002:00007544       ??_C@_03IDIOELNC@Fri@      0000000180054544     libucrtd:nlsdata.obj
 0002:00007548       ??_C@_03FEFJNEK@Sat@       0000000180054548     libucrtd:nlsdata.obj
 0002:0000754c       ??_C@_06OOPIFAJ@Sunday@    000000018005454c     libucrtd:nlsdata.obj
 0002:00007554       ??_C@_06JLEDEDGH@Monday@   0000000180054554     libucrtd:nlsdata.obj
 0002:00007560       ??_C@_07BAAGCFCM@Tuesday@  0000000180054560     libucrtd:nlsdata.obj
 0002:00007568       ??_C@_09DLIGFAKA@Wednesday@ 0000000180054568     libucrtd:nlsdata.obj
 0002:00007578       ??_C@_08HACCIKIA@Thursday@ 0000000180054578     libucrtd:nlsdata.obj
 0002:00007584       ??_C@_06JECMNKMI@Friday@   0000000180054584     libucrtd:nlsdata.obj
 0002:00007590       ??_C@_08INBOOONO@Saturday@ 0000000180054590     libucrtd:nlsdata.obj
 0002:0000759c       ??_C@_03JIHJHPIE@Jan@      000000018005459c     libucrtd:nlsdata.obj
 0002:000075a0       ??_C@_03HJBDCHOM@Feb@      00000001800545a0     libucrtd:nlsdata.obj
 0002:000075a4       ??_C@_03ODNJBKGA@Mar@      00000001800545a4     libucrtd:nlsdata.obj
 0002:000075a8       ??_C@_03LEOLGMJP@Apr@      00000001800545a8     libucrtd:nlsdata.obj
 0002:000075ac       ??_C@_03CNMDKL@May@        00000001800545ac     libucrtd:nlsdata.obj
 0002:000075b0       ??_C@_03IDFGHECI@Jun@      00000001800545b0     libucrtd:nlsdata.obj
 0002:000075b4       ??_C@_03LBGABGKK@Jul@      00000001800545b4     libucrtd:nlsdata.obj
 0002:000075b8       ??_C@_03IFJFEIGA@Aug@      00000001800545b8     libucrtd:nlsdata.obj
 0002:000075bc       ??_C@_03GGCAPAJC@Sep@      00000001800545bc     libucrtd:nlsdata.obj
 0002:000075c0       ??_C@_03BMAOKBAD@Oct@      00000001800545c0     libucrtd:nlsdata.obj
 0002:000075c4       ??_C@_03JPJOFNIA@Nov@      00000001800545c4     libucrtd:nlsdata.obj
 0002:000075c8       ??_C@_03MKABNOCG@Dec@      00000001800545c8     libucrtd:nlsdata.obj
 0002:000075d0       ??_C@_07CGJPFGJA@January@  00000001800545d0     libucrtd:nlsdata.obj
 0002:000075d8       ??_C@_08GNJGEPFN@February@ 00000001800545d8     libucrtd:nlsdata.obj
 0002:000075e4       ??_C@_05HPCKOFNC@March@    00000001800545e4     libucrtd:nlsdata.obj
 0002:000075ec       ??_C@_05DMJDNLEJ@April@    00000001800545ec     libucrtd:nlsdata.obj
 0002:000075f4       ??_C@_04CNLMGBGM@June@     00000001800545f4     libucrtd:nlsdata.obj
 0002:000075fc       ??_C@_04MIEPOIFP@July@     00000001800545fc     libucrtd:nlsdata.obj
 0002:00007604       ??_C@_06LBBHFDDG@August@   0000000180054604     libucrtd:nlsdata.obj
 0002:00007610       ??_C@_09BHHEALKD@September@ 0000000180054610     libucrtd:nlsdata.obj
 0002:00007620       ??_C@_07JJNFCEND@October@  0000000180054620     libucrtd:nlsdata.obj
 0002:00007628       ??_C@_08HCHEGEOA@November@ 0000000180054628     libucrtd:nlsdata.obj
 0002:00007638       ??_C@_08EDHMEBNP@December@ 0000000180054638     libucrtd:nlsdata.obj
 0002:00007644       ??_C@_02DEDBPAFC@AM@       0000000180054644     libucrtd:nlsdata.obj
 0002:00007648       ??_C@_02CJNFDJBF@PM@       0000000180054648     libucrtd:nlsdata.obj
 0002:00007650       ??_C@_08BPBNCDIB@MM?1dd?1yy@ 0000000180054650     libucrtd:nlsdata.obj
 0002:00007660       ??_C@_0BE@CKGJFCPC@dddd?0?5MMMM?5dd?0?5yyyy@ 0000000180054660     libucrtd:nlsdata.obj
 0002:00007678       ??_C@_08JCCMCCIL@HH?3mm?3ss@ 0000000180054678     libucrtd:nlsdata.obj
 0002:00007688       ??_C@_17MBGCMIPB@?$AAS?$AAu?$AAn@ 0000000180054688     libucrtd:nlsdata.obj
 0002:00007690       ??_C@_17KBOMKBF@?$AAM?$AAo?$AAn@ 0000000180054690     libucrtd:nlsdata.obj
 0002:00007698       ??_C@_17BMKGEGOJ@?$AAT?$AAu?$AAe@ 0000000180054698     libucrtd:nlsdata.obj
 0002:000076a0       ??_C@_17CJEDCEPE@?$AAW?$AAe?$AAd@ 00000001800546a0     libucrtd:nlsdata.obj
 0002:000076a8       ??_C@_17PDPHAADD@?$AAT?$AAh?$AAu@ 00000001800546a8     libucrtd:nlsdata.obj
 0002:000076b0       ??_C@_17HFOLPPLP@?$AAF?$AAr?$AAi@ 00000001800546b0     libucrtd:nlsdata.obj
 0002:000076b8       ??_C@_17GGIBDPIH@?$AAS?$AAa?$AAt@ 00000001800546b8     libucrtd:nlsdata.obj
 0002:000076c0       ??_C@_1O@IHNHDHPB@?$AAS?$AAu?$AAn?$AAd?$AAa?$AAy@ 00000001800546c0     libucrtd:nlsdata.obj
 0002:000076d0       ??_C@_1O@MMNBFLIA@?$AAM?$AAo?$AAn?$AAd?$AAa?$AAy@ 00000001800546d0     libucrtd:nlsdata.obj
 0002:000076e0       ??_C@_1BA@ENFBFFEK@?$AAT?$AAu?$AAe?$AAs?$AAd?$AAa?$AAy@ 00000001800546e0     libucrtd:nlsdata.obj
 0002:000076f0       ??_C@_1BE@EBOGMDOH@?$AAW?$AAe?$AAd?$AAn?$AAe?$AAs?$AAd?$AAa?$AAy@ 00000001800546f0     libucrtd:nlsdata.obj
 0002:00007708       ??_C@_1BC@HHMNLIHE@?$AAT?$AAh?$AAu?$AAr?$AAs?$AAd?$AAa?$AAy@ 0000000180054708     libucrtd:nlsdata.obj
 0002:00007720       ??_C@_1O@PDICJHAG@?$AAF?$AAr?$AAi?$AAd?$AAa?$AAy@ 0000000180054720     libucrtd:nlsdata.obj
 0002:00007730       ??_C@_1BC@ENMNNPAJ@?$AAS?$AAa?$AAt?$AAu?$AAr?$AAd?$AAa?$AAy@ 0000000180054730     libucrtd:nlsdata.obj
 0002:00007748       ??_C@_17DKNBKCHM@?$AAJ?$AAa?$AAn@ 0000000180054748     libucrtd:nlsdata.obj
 0002:00007750       ??_C@_17LMDJEKJN@?$AAF?$AAe?$AAb@ 0000000180054750     libucrtd:nlsdata.obj
 0002:00007758       ??_C@_17CKNLEDEC@?$AAM?$AAa?$AAr@ 0000000180054758     libucrtd:nlsdata.obj
 0002:00007760       ??_C@_17LFPOIHDD@?$AAA?$AAp?$AAr@ 0000000180054760     libucrtd:nlsdata.obj
 0002:00007768       ??_C@_17PNNKMEED@?$AAM?$AAa?$AAy@ 0000000180054768     libucrtd:nlsdata.obj
 0002:00007770       ??_C@_17KCJGOCPB@?$AAJ?$AAu?$AAn@ 0000000180054770     libucrtd:nlsdata.obj
 0002:00007778       ??_C@_17IJPCKHK@?$AAJ?$AAu?$AAl@ 0000000180054778     libucrtd:nlsdata.obj
 0002:00007780       ??_C@_17ICPELBCN@?$AAA?$AAu?$AAg@ 0000000180054780     libucrtd:nlsdata.obj
 0002:00007788       ??_C@_17HCHCOKMG@?$AAS?$AAe?$AAp@ 0000000180054788     libucrtd:nlsdata.obj
 0002:00007790       ??_C@_17FNLKOI@?$AAO?$AAc?$AAt@ 0000000180054790     libucrtd:nlsdata.obj
 0002:00007798       ??_C@_17BBDMLCIG@?$AAN?$AAo?$AAv@ 0000000180054798     libucrtd:nlsdata.obj
 0002:000077a0       ??_C@_17EGKACKIF@?$AAD?$AAe?$AAc@ 00000001800547a0     libucrtd:nlsdata.obj
 0002:000077a8       ??_C@_1BA@EFMEIEBA@?$AAJ?$AAa?$AAn?$AAu?$AAa?$AAr?$AAy@ 00000001800547a8     libucrtd:nlsdata.obj
 0002:000077b8       ??_C@_1BC@JGDDFFAM@?$AAF?$AAe?$AAb?$AAr?$AAu?$AAa?$AAr?$AAy@ 00000001800547b8     libucrtd:nlsdata.obj
 0002:000077d0       ??_C@_1M@IKEENEDF@?$AAM?$AAa?$AAr?$AAc?$AAh@ 00000001800547d0     libucrtd:nlsdata.obj
 0002:000077e0       ??_C@_1M@GJNLMHFD@?$AAA?$AAp?$AAr?$AAi?$AAl@ 00000001800547e0     libucrtd:nlsdata.obj
 0002:000077f0       ??_C@_19EPFLPGAP@?$AAJ?$AAu?$AAn?$AAe@ 00000001800547f0     libucrtd:nlsdata.obj
 0002:00007800       ??_C@_19BIFMLPCD@?$AAJ?$AAu?$AAl?$AAy@ 0000000180054800     libucrtd:nlsdata.obj
 0002:00007810       ??_C@_1O@PAHLKOAC@?$AAA?$AAu?$AAg?$AAu?$AAs?$AAt@ 0000000180054810     libucrtd:nlsdata.obj
 0002:00007820       ??_C@_1BE@DKAAMBJL@?$AAS?$AAe?$AAp?$AAt?$AAe?$AAm?$AAb?$AAe?$AAr@ 0000000180054820     libucrtd:nlsdata.obj
 0002:00007838       ??_C@_1BA@EPANDLNG@?$AAO?$AAc?$AAt?$AAo?$AAb?$AAe?$AAr@ 0000000180054838     libucrtd:nlsdata.obj
 0002:00007848       ??_C@_1BC@BGLIFPF@?$AAN?$AAo?$AAv?$AAe?$AAm?$AAb?$AAe?$AAr@ 0000000180054848     libucrtd:nlsdata.obj
 0002:00007860       ??_C@_1BC@FEMKIFH@?$AAD?$AAe?$AAc?$AAe?$AAm?$AAb?$AAe?$AAr@ 0000000180054860     libucrtd:nlsdata.obj
 0002:00007874       ??_C@_15ODEHAHHF@?$AAA?$AAM@ 0000000180054874     libucrtd:nlsdata.obj
 0002:0000787c       ??_C@_15CLMNNGEL@?$AAP?$AAM@ 000000018005487c     libucrtd:nlsdata.obj
 0002:00007888       ??_C@_1BC@IEBCMHCM@?$AAM?$AAM?$AA?1?$AAd?$AAd?$AA?1?$AAy?$AAy@ 0000000180054888     libucrtd:nlsdata.obj
 0002:000078a0       ??_C@_1CI@KNAKOEBC@?$AAd?$AAd?$AAd?$AAd?$AA?0?$AA?5?$AAM?$AAM?$AAM?$AAM?$AA?5?$AAd?$AAd?$AA?0?$AA?5@ 00000001800548a0     libucrtd:nlsdata.obj
 0002:000078c8       ??_C@_1BC@GDGBMEMK@?$AAH?$AAH?$AA?3?$AAm?$AAm?$AA?3?$AAs?$AAs@ 00000001800548c8     libucrtd:nlsdata.obj
 0002:000078e0       ??_C@_1M@BMHNFIME@?$AAe?$AAn?$AA?9?$AAU?$AAS@ 00000001800548e0     libucrtd:nlsdata.obj
 0002:000078f0       ??_C@_1DC@OGOLMDEL@?$AAp?$AAu?$AAb?$AAl?$AAi?$AAc?$AA_?$AAs?$AAt?$AAr?$AAe?$AAa?$AAm?$AA?5?$AA?$CB@ 00000001800548f0     libucrtd:_sftbuf.obj
 0002:00007928       ??_C@_1CI@JELMFMDH@?$AAc?$AA?5?$AA?$DO?$AA?$DN?$AA?5?$AA?9?$AA1?$AA?5?$AA?$CG?$AA?$CG?$AA?5?$AAc?$AA?5?$AA?$DM?$AA?$DN@ 0000000180054928     libucrtd:isctype.obj
 0002:00007950       ??_C@_1GG@KPBGDFHJ@?$AAm?$AAi?$AAn?$AAk?$AAe?$AAr?$AAn?$AAe?$AAl?$AA?2?$AAc?$AAr?$AAt?$AAs?$AA?2@ 0000000180054950     libucrtd:isctype.obj
 0002:000079c0       ??_C@_1FO@GEKPJHID@?$AAm?$AAi?$AAn?$AAk?$AAe?$AAr?$AAn?$AAe?$AAl?$AA?2?$AAc?$AAr?$AAt?$AAs?$AA?2@ 00000001800549c0     libucrtd:expand.obj
 0002:00007a20       ??_C@_1BK@JMCGJOCC@?$AA_?$AAe?$AAx?$AAp?$AAa?$AAn?$AAd?$AA_?$AAb?$AAa?$AAs?$AAe@ 0000000180054a20     libucrtd:expand.obj
 0002:00007a90       ??_C@_1IC@DCNEKBE@?$AAm?$AAi?$AAn?$AAk?$AAe?$AAr?$AAn?$AAe?$AAl?$AA?2?$AAc?$AAr?$AAt?$AAs?$AA?2@ 0000000180054a90     libucrtd:report_runtime_error.obj
 0002:00007b18       ??_C@_1DI@BLFJHKKP@?$AA_?$AA_?$AAa?$AAc?$AAr?$AAt?$AA_?$AAr?$AAe?$AAp?$AAo?$AAr?$AAt?$AA_?$AAr@ 0000000180054b18     libucrtd:report_runtime_error.obj
 0002:00007b50       ??_C@_1LE@MHPGJGKE@?$AAw?$AAc?$AAs?$AAc?$AAp?$AAy?$AA_?$AAs?$AA?$CI?$AAo?$AAu?$AAt?$AAm?$AAs?$AAg@ 0000000180054b50     libucrtd:report_runtime_error.obj
 0002:00007c08       ??_C@_1DE@JNGNBFGO@?$AAR?$AAu?$AAn?$AAt?$AAi?$AAm?$AAe?$AA?5?$AAE?$AAr?$AAr?$AAo?$AAr?$AA?$CB?$AA?6@ 0000000180054c08     libucrtd:report_runtime_error.obj
 0002:00007c40       ??_C@_1HK@FJJNAABO@?$AAw?$AAc?$AAs?$AAc?$AAp?$AAy?$AA_?$AAs?$AA?$CI?$AAp?$AAr?$AAo?$AAg?$AAn?$AAa@ 0000000180054c40     libucrtd:report_runtime_error.obj
 0002:00007cc0       ??_C@_1HI@FLHKGEBE@?$AAw?$AAc?$AAs?$AAn?$AAc?$AAp?$AAy?$AA_?$AAs?$AA?$CI?$AAp?$AAc?$AAh?$AA?0?$AA?5@ 0000000180054cc0     libucrtd:report_runtime_error.obj
 0002:00007d40       ??_C@_1IG@MNNKBLBI@?$AAw?$AAc?$AAs?$AAc?$AAa?$AAt?$AA_?$AAs?$AA?$CI?$AAo?$AAu?$AAt?$AAm?$AAs?$AAg@ 0000000180054d40     libucrtd:report_runtime_error.obj
 0002:00007dd0       ??_C@_1IG@DFBBBDAN@?$AAw?$AAc?$AAs?$AAc?$AAa?$AAt?$AA_?$AAs?$AA?$CI?$AAo?$AAu?$AAt?$AAm?$AAs?$AAg@ 0000000180054dd0     libucrtd:report_runtime_error.obj
 0002:00007ee0       ??_C@_03OEIAHPBN@INF@      0000000180054ee0     libucrtd:cvt.obj
 0002:00007ee4       ??_C@_03OJHLLCGB@inf@      0000000180054ee4     libucrtd:cvt.obj
 0002:00007ee8       ??_C@_03LKNCIKJB@NAN@      0000000180054ee8     libucrtd:cvt.obj
 0002:00007eec       ??_C@_03LHCJEHON@nan@      0000000180054eec     libucrtd:cvt.obj
 0002:00007ef0       ??_C@_09OFJJIMPC@NAN?$CISNAN?$CJ@ 0000000180054ef0     libucrtd:cvt.obj
 0002:00007f00       ??_C@_09IPFBKMDL@nan?$CIsnan?$CJ@ 0000000180054f00     libucrtd:cvt.obj
 0002:00007f10       ??_C@_08IKHNHAJ@NAN?$CIIND?$CJ@ 0000000180054f10     libucrtd:cvt.obj
 0002:00007f20       ??_C@_08OFCDMILK@nan?$CIind?$CJ@ 0000000180054f20     libucrtd:cvt.obj
 0002:00007f30       ??_C@_1FO@GKAKAPLI@?$AAm?$AAi?$AAn?$AAk?$AAe?$AAr?$AAn?$AAe?$AAl?$AA?2?$AAc?$AAr?$AAt?$AAs?$AA?2@ 0000000180054f30     libucrtd:cvt.obj
 0002:00007f90       ??_C@_1DE@EHGIGIDK@?$AAf?$AAp?$AA_?$AAf?$AAo?$AAr?$AAm?$AAa?$AAt?$AA_?$AAn?$AAa?$AAn?$AA_?$AAo@ 0000000180054f90     libucrtd:cvt.obj
 0002:00007fd0       ??_C@_1LI@PCMLJPCO@?$AAs?$AAt?$AAr?$AAc?$AAp?$AAy?$AA_?$AAs?$AA?$CI?$AA?5?$AAr?$AAe?$AAs?$AAu?$AAl@ 0000000180054fd0     libucrtd:cvt.obj
 0002:00008090       ??_C@_1KO@LJHOFBCD@?$AAr?$AAe?$AAs?$AAu?$AAl?$AAt?$AA_?$AAb?$AAu?$AAf?$AAf?$AAe?$AAr?$AA_?$AAc@ 0000000180055090     libucrtd:cvt.obj
 0002:00008140       ??_C@_1CK@BOLHOMFO@?$AAf?$AAp?$AA_?$AAf?$AAo?$AAr?$AAm?$AAa?$AAt?$AA_?$AAe?$AA_?$AAi?$AAn?$AAt@ 0000000180055140     libucrtd:cvt.obj
 0002:00008170       ??_C@_1BBE@LHDOMEDC@?$AAs?$AAt?$AAr?$AAc?$AAp?$AAy?$AA_?$AAs?$AA?$CI?$AA?5?$AAp?$AA?0?$AA?5?$AAr?$AAe@ 0000000180055170     libucrtd:cvt.obj
 0002:00008284       ??_C@_05KLBDPFGC@e?$CL000@ 0000000180055284     libucrtd:cvt.obj
 0002:00008290       ??_C@_1IC@FILKPBAB@?$AAr?$AAe?$AAs?$AAu?$AAl?$AAt?$AA_?$AAb?$AAu?$AAf?$AAf?$AAe?$AAr?$AA_?$AAc@ 0000000180055290     libucrtd:cvt.obj
 0002:00008318       ??_C@_1BI@PNBDLNBB@?$AAf?$AAp?$AA_?$AAf?$AAo?$AAr?$AAm?$AAa?$AAt?$AA_?$AAa@ 0000000180055318     libucrtd:cvt.obj
 0002:00008330       ??_C@_1DC@MGKAFPFD@?$AAr?$AAe?$AAs?$AAu?$AAl?$AAt?$AA_?$AAb?$AAu?$AAf?$AAf?$AAe?$AAr?$AA?5?$AA?$CB@ 0000000180055330     libucrtd:cvt.obj
 0002:00008368       ??_C@_1CC@LDAHJAKK@?$AA_?$AA_?$AAa?$AAc?$AAr?$AAt?$AA_?$AAf?$AAp?$AA_?$AAf?$AAo?$AAr?$AAm?$AAa@ 0000000180055368     libucrtd:cvt.obj
 0002:00008390       ??_C@_1DA@NMLJJOCO@?$AAr?$AAe?$AAs?$AAu?$AAl?$AAt?$AA_?$AAb?$AAu?$AAf?$AAf?$AAe?$AAr?$AA_?$AAc@ 0000000180055390     libucrtd:cvt.obj
 0002:000083c0       ??_C@_1DE@MNOPBCOK@?$AAs?$AAc?$AAr?$AAa?$AAt?$AAc?$AAh?$AA_?$AAb?$AAu?$AAf?$AAf?$AAe?$AAr?$AA?5@ 00000001800553c0     libucrtd:cvt.obj
 0002:000083f8       ??_C@_1DC@CKBKNFKH@?$AAs?$AAc?$AAr?$AAa?$AAt?$AAc?$AAh?$AA_?$AAb?$AAu?$AAf?$AAf?$AAe?$AAr?$AA_@ 00000001800553f8     libucrtd:cvt.obj
 0002:00008430       ??_C@_1EI@JAHBOGIM@?$AA?$CI?$AA?$CC?$AAU?$AAn?$AAs?$AAu?$AAp?$AAp?$AAo?$AAr?$AAt?$AAe?$AAd?$AA?5?$AAf@ 0000000180055430     libucrtd:cvt.obj
 0002:00008478       ??_C@_1DK@NBNOAGKB@?$AAd?$AAe?$AAs?$AAt?$AAi?$AAn?$AAa?$AAt?$AAi?$AAo?$AAn?$AA_?$AAc?$AAo?$AAu@ 0000000180055478     libucrtd:wctomb.obj
 0002:000084c0       ??_C@_1GE@FCCEPHFG@?$AAm?$AAi?$AAn?$AAk?$AAe?$AAr?$AAn?$AAe?$AAl?$AA?2?$AAc?$AAr?$AAt?$AAs?$AA?2@ 00000001800554c0     libucrtd:wctomb.obj
 0002:00008528       ??_C@_1CC@DNLKBKLK@?$AA_?$AAw?$AAc?$AAt?$AAo?$AAm?$AAb?$AA_?$AAi?$AAn?$AAt?$AAe?$AAr?$AAn?$AAa@ 0000000180055528     libucrtd:wctomb.obj
 0002:00008550       ??_C@_1CM@ENFEGCNE@?$AAd?$AAe?$AAs?$AAt?$AAi?$AAn?$AAa?$AAt?$AAi?$AAo?$AAn?$AA_?$AAc?$AAo?$AAu@ 0000000180055550     libucrtd:wctomb.obj
 0002:00008580       ??_C@_1MK@HFAFPEDL@?$AAl?$AAo?$AAc?$AAa?$AAl?$AAe?$AA?9?$AA?$DO?$AAl?$AAo?$AAc?$AAi?$AAn?$AAf?$AAo@ 0000000180055580     libucrtd:mbtowc.obj
 0002:00008650       ??_C@_1GE@CGIHMDEJ@?$AAm?$AAi?$AAn?$AAk?$AAe?$AAr?$AAn?$AAe?$AAl?$AA?2?$AAc?$AAr?$AAt?$AAs?$AA?2@ 0000000180055650     libucrtd:mbtowc.obj
 0002:000086c0       ??_C@_1HA@KNBGJAIN@?$AAU?$AAT?$AAF?$AA?9?$AA8?$AA?5?$AAi?$AAs?$AAn?$AA?8?$AAt?$AA?5?$AAs?$AAu?$AAp@ 00000001800556c0     libucrtd:mbtowc.obj
 0002:00008730       ??_C@_1OM@FCINAOPP@?$AAl?$AAo?$AAc?$AAa?$AAl?$AAe?$AA?9?$AA?$DO?$AAl?$AAo?$AAc?$AAi?$AAn?$AAf?$AAo@ 0000000180055730     libucrtd:mbtowc.obj
 0002:00008820       ??_C@_1GA@CPNOFAH@?$AAl?$AAo?$AAc?$AAa?$AAl?$AAe?$AA?9?$AA?$DO?$AAl?$AAo?$AAc?$AAi?$AAn?$AAf?$AAo@ 0000000180055820     libucrtd:mbtowc.obj
 0002:00008880       ??_C@_1BO@MHPFFFJJ@?$AAs?$AAt?$AAr?$AAe?$AAa?$AAm?$AA?4?$AAv?$AAa?$AAl?$AAi?$AAd?$AA?$CI?$AA?$CJ@ 0000000180055880     libucrtd:fileno.obj
 0002:000088a0       ??_C@_1GA@KCAHHNGP@?$AAm?$AAi?$AAn?$AAk?$AAe?$AAr?$AAn?$AAe?$AAl?$AA?2?$AAc?$AAr?$AAt?$AAs?$AA?2@ 00000001800558a0     libucrtd:fileno.obj
 0002:00008900       ??_C@_1BA@JGHIEKKM@?$AA_?$AAf?$AAi?$AAl?$AAe?$AAn?$AAo@ 0000000180055900     libucrtd:fileno.obj
 0002:00008910       ??_C@_0CP@GDJHIDC@minkernel?2crts?2ucrt?2src?2appcrt?2@ 0000000180055910     libucrtd:_file.obj
 0002:00008940       ??_C@_1GA@LFAOKOOP@?$AAm?$AAi?$AAn?$AAk?$AAe?$AAr?$AAn?$AAe?$AAl?$AA?2?$AAc?$AAr?$AAt?$AAs?$AA?2@ 0000000180055940     libucrtd:dbgrptt.obj
 0002:000089a0       ??_C@_1CA@KHJHLKA@?$AA_?$AAV?$AAC?$AAr?$AAt?$AAD?$AAb?$AAg?$AAR?$AAe?$AAp?$AAo?$AAr?$AAt?$AAA@ 00000001800559a0     libucrtd:dbgrptt.obj
 0002:000089c0       ??_C@_1FA@JPHJBHEM@?$AA_?$AAi?$AAt?$AAo?$AAa?$AA_?$AAs?$AA?$CI?$AAn?$AAL?$AAi?$AAn?$AAe?$AA?0?$AA?5@ 00000001800559c0     libucrtd:dbgrptt.obj
 0002:00008a10       ??_C@_0CG@BNGLOCEO@Second?5Chance?5Assertion?5Failed?3@ 0000000180055a10     libucrtd:dbgrptt.obj
 0002:00008a38       ??_C@_0P@DFJNDPOP@?$DMfile?5unknown?$DO@ 0000000180055a38     libucrtd:dbgrptt.obj
 0002:00008a48       ??_C@_07BHGABMGB@?0?5Line?5@ 0000000180055a48     libucrtd:dbgrptt.obj
 0002:00008a50       ??_C@_01EEMJAFIK@?6@       0000000180055a50     libucrtd:dbgrptt.obj
 0002:00008a60       ??_C@_1JI@GAALPGBM@?$AAs?$AAt?$AAr?$AAc?$AAp?$AAy?$AA_?$AAs?$AA?$CI?$AAs?$AAz?$AAU?$AAs?$AAe?$AAr@ 0000000180055a60     libucrtd:dbgrptt.obj
 0002:00008af8       ??_C@_0CL@EACFGMNB@_CrtDbgReport?3?5String?5too?5long?5@ 0000000180055af8     libucrtd:dbgrptt.obj
 0002:00008b30       ??_C@_1KK@GIGAEDMO@?$AAs?$AAt?$AAr?$AAc?$AAp?$AAy?$AA_?$AAs?$AA?$CI?$AAs?$AAz?$AAL?$AAi?$AAn?$AAe@ 0000000180055b30     libucrtd:dbgrptt.obj
 0002:00008be0       ??_C@_0BD@CAENFOHP@Assertion?5failed?3?5@ 0000000180055be0     libucrtd:dbgrptt.obj
 0002:00008bf8       ??_C@_0BC@LAIDCHCH@Assertion?5failed?$CB@ 0000000180055bf8     libucrtd:dbgrptt.obj
 0002:00008c10       ??_C@_1FK@NPGBPOFO@?$AAs?$AAt?$AAr?$AAc?$AAa?$AAt?$AA_?$AAs?$AA?$CI?$AAs?$AAz?$AAL?$AAi?$AAn?$AAe@ 0000000180055c10     libucrtd:dbgrptt.obj
 0002:00008c70       ??_C@_1EI@CACDLAFK@?$AAs?$AAt?$AAr?$AAc?$AAa?$AAt?$AA_?$AAs?$AA?$CI?$AAs?$AAz?$AAL?$AAi?$AAn?$AAe@ 0000000180055c70     libucrtd:dbgrptt.obj
 0002:00008cb8       ??_C@_01LIIJDEN@?$AN@      0000000180055cb8     libucrtd:dbgrptt.obj
 0002:00008cc0       ??_C@_1EI@LDHJEDO@?$AAs?$AAt?$AAr?$AAc?$AAa?$AAt?$AA_?$AAs?$AA?$CI?$AAs?$AAz?$AAL?$AAi?$AAn?$AAe@ 0000000180055cc0     libucrtd:dbgrptt.obj
 0002:00008d08       ??_C@_0M@IPILFDFN@?$CFs?$CI?$CFd?$CJ?5?3?5?$CFs@ 0000000180055d08     libucrtd:dbgrptt.obj
 0002:00008d20       ??_C@_1JG@CPKCIOEE@?$AAs?$AAt?$AAr?$AAc?$AAp?$AAy?$AA_?$AAs?$AA?$CI?$AAs?$AAz?$AAO?$AAu?$AAt?$AAM@ 0000000180055d20     libucrtd:dbgrptt.obj
 0002:00008dc0       ??_C@_1FI@IBIOIHEG@?$AAs?$AAt?$AAr?$AAc?$AAp?$AAy?$AA_?$AAs?$AA?$CI?$AAs?$AAz?$AAO?$AAu?$AAt?$AAM@ 0000000180055dc0     libucrtd:dbgrptt.obj
 0002:00008e20       ??_C@_1IM@OOKIFKOH@?$AAe?$AA?5?$AA?$DN?$AA?5?$AAm?$AAb?$AAs?$AAt?$AAo?$AAw?$AAc?$AAs?$AA_?$AAs?$AA?$CI@ 0000000180055e20     libucrtd:dbgrptt.obj
 0002:00008eb0       ??_C@_1MC@IGEECMDB@?$AAw?$AAc?$AAs?$AAc?$AAp?$AAy?$AA_?$AAs?$AA?$CI?$AAs?$AAz?$AAO?$AAu?$AAt?$AAM@ 0000000180055eb0     libucrtd:dbgrptt.obj
 0002:00008f80       ??_C@_1HO@PJOFIKFE@?$AA_?$AAC?$AAr?$AAt?$AAD?$AAb?$AAg?$AAR?$AAe?$AAp?$AAo?$AAr?$AAt?$AA?3?$AA?5@ 0000000180055f80     libucrtd:dbgrptt.obj
 0002:00009000       ??_C@_1CA@HPALHDOD@?$AA_?$AAV?$AAC?$AAr?$AAt?$AAD?$AAb?$AAg?$AAR?$AAe?$AAp?$AAo?$AAr?$AAt?$AAW@ 0000000180056000     libucrtd:dbgrptt.obj
 0002:00009020       ??_C@_1FA@CNLLOMHI@?$AA_?$AAi?$AAt?$AAo?$AAw?$AA_?$AAs?$AA?$CI?$AAn?$AAL?$AAi?$AAn?$AAe?$AA?0?$AA?5@ 0000000180056020     libucrtd:dbgrptt.obj
 0002:00009070       ??_C@_1EM@MJFLEDMB@?$AAS?$AAe?$AAc?$AAo?$AAn?$AAd?$AA?5?$AAC?$AAh?$AAa?$AAn?$AAc?$AAe?$AA?5?$AAA@ 0000000180056070     libucrtd:dbgrptt.obj
 0002:000090c0       ??_C@_1BO@OCHMLCAG@?$AA?$DM?$AAf?$AAi?$AAl?$AAe?$AA?5?$AAu?$AAn?$AAk?$AAn?$AAo?$AAw?$AAn?$AA?$DO@ 00000001800560c0     libucrtd:dbgrptt.obj
 0002:000090e0       ??_C@_1BA@ELMMDCFC@?$AA?0?$AA?5?$AAL?$AAi?$AAn?$AAe?$AA?5@ 00000001800560e0     libucrtd:dbgrptt.obj
 0002:000090f0       ??_C@_13LBAGMAIH@?$AA?6@   00000001800560f0     libucrtd:dbgrptt.obj
 0002:00009100       ??_C@_1JK@KHFABAEO@?$AAw?$AAc?$AAs?$AAc?$AAp?$AAy?$AA_?$AAs?$AA?$CI?$AAs?$AAz?$AAU?$AAs?$AAe?$AAr@ 0000000180056100     libucrtd:dbgrptt.obj
 0002:000091a0       ??_C@_1KO@DGAHENCH@?$AAw?$AAc?$AAs?$AAc?$AAp?$AAy?$AA_?$AAs?$AA?$CI?$AAs?$AAz?$AAL?$AAi?$AAn?$AAe@ 00000001800561a0     libucrtd:dbgrptt.obj
 0002:00009250       ??_C@_1CG@FFFGGODN@?$AAA?$AAs?$AAs?$AAe?$AAr?$AAt?$AAi?$AAo?$AAn?$AA?5?$AAf?$AAa?$AAi?$AAl?$AAe@ 0000000180056250     libucrtd:dbgrptt.obj
 0002:00009278       ??_C@_1CE@OJBNHDMO@?$AAA?$AAs?$AAs?$AAe?$AAr?$AAt?$AAi?$AAo?$AAn?$AA?5?$AAf?$AAa?$AAi?$AAl?$AAe@ 0000000180056278     libucrtd:dbgrptt.obj
 0002:000092a0       ??_C@_1FK@HPADHBBD@?$AAw?$AAc?$AAs?$AAc?$AAa?$AAt?$AA_?$AAs?$AA?$CI?$AAs?$AAz?$AAL?$AAi?$AAn?$AAe@ 00000001800562a0     libucrtd:dbgrptt.obj
 0002:00009300       ??_C@_1EK@NMDFGHMF@?$AAw?$AAc?$AAs?$AAc?$AAa?$AAt?$AA_?$AAs?$AA?$CI?$AAs?$AAz?$AAL?$AAi?$AAn?$AAe@ 0000000180056300     libucrtd:dbgrptt.obj
 0002:0000934c       ??_C@_13CMNBPIDO@?$AA?$AN@ 000000018005634c     libucrtd:dbgrptt.obj
 0002:00009350       ??_C@_1EK@PHCBEDKB@?$AAw?$AAc?$AAs?$AAc?$AAa?$AAt?$AA_?$AAs?$AA?$CI?$AAs?$AAz?$AAL?$AAi?$AAn?$AAe@ 0000000180056350     libucrtd:dbgrptt.obj
 0002:000093a0       ??_C@_1BM@GIBPMLNL@?$AA?$CF?$AAl?$AAs?$AA?$CI?$AA?$CF?$AAd?$AA?$CJ?$AA?5?$AA?3?$AA?5?$AA?$CF?$AAl?$AAs@ 00000001800563a0     libucrtd:dbgrptt.obj
 0002:000093c0       ??_C@_1JI@EACPGHID@?$AAw?$AAc?$AAs?$AAc?$AAp?$AAy?$AA_?$AAs?$AA?$CI?$AAs?$AAz?$AAO?$AAu?$AAt?$AAM@ 00000001800563c0     libucrtd:dbgrptt.obj
 0002:00009460       ??_C@_1FI@DBAIJPJE@?$AAw?$AAc?$AAs?$AAc?$AAp?$AAy?$AA_?$AAs?$AA?$CI?$AAs?$AAz?$AAO?$AAu?$AAt?$AAM@ 0000000180056460     libucrtd:dbgrptt.obj
 0002:000094c0       ??_C@_1IK@LEBMBAP@?$AAw?$AAc?$AAs?$AAt?$AAo?$AAm?$AAb?$AAs?$AA_?$AAs?$AA?$CI?$AAn?$AAu?$AAl?$AAl@ 00000001800564c0     libucrtd:dbgrptt.obj
 0002:00009550       ??_C@_1MA@LBAMNNOB@?$AAs?$AAt?$AAr?$AAc?$AAp?$AAy?$AA_?$AAs?$AA?$CI?$AAs?$AAz?$AAO?$AAu?$AAt?$AAM@ 0000000180056550     libucrtd:dbgrptt.obj
 0002:00009610       ??_C@_0DP@GNPEPHJD@_CrtDbgReport?3?5String?5too?5long?5@ 0000000180056610     libucrtd:dbgrptt.obj
 0002:00009650       ??_C@_1IE@CPGKIAGP@?$AAw?$AAc?$AAs?$AAt?$AAo?$AAm?$AAb?$AAs?$AA_?$AAs?$AA?$CI?$AA?$CG?$AAr?$AAe?$AAt@ 0000000180056650     libucrtd:dbgrptt.obj
 0002:000096f0       ??_C@_05HGHHAHAP@log10@    00000001800566f0     libucrtd:fpexcept.obj
 0002:00009700       ??_C@_1BKC@NBNHJIDM@?$AA?$CI?$AAp?$AAt?$AAl?$AAo?$AAc?$AAi?$AA?9?$AA?$DO?$AAl?$AAc?$AA_?$AAc?$AAa?$AAt@ 0000000180056700     libucrtd:locale_refcounting.obj
 0002:000098b0       ??_C@_1HK@HCNMEOLA@?$AAm?$AAi?$AAn?$AAk?$AAe?$AAr?$AAn?$AAe?$AAl?$AA?2?$AAc?$AAr?$AAt?$AAs?$AA?2@ 00000001800568b0     libucrtd:locale_refcounting.obj
 0002:00009958       ??_C@_1DI@OOEEHOBJ@?$AAb?$AAa?$AAs?$AAe?$AA?5?$AA?$CB?$AA?$DN?$AA?5?$AAn?$AAu?$AAl?$AAl?$AAp?$AAt?$AAr@ 0000000180056958     libucrtd:qsort.obj
 0002:00009990       ??_C@_1GA@KPPCKKGE@?$AAm?$AAi?$AAn?$AAk?$AAe?$AAr?$AAn?$AAe?$AAl?$AA?2?$AAc?$AAr?$AAt?$AAs?$AA?2@ 0000000180056990     libucrtd:qsort.obj
 0002:000099f0       ??_C@_1M@INMHODIG@?$AAq?$AAs?$AAo?$AAr?$AAt@ 00000001800569f0     libucrtd:qsort.obj
 0002:00009a00       ??_C@_1BE@NJBEBBME@?$AAw?$AAi?$AAd?$AAt?$AAh?$AA?5?$AA?$DO?$AA?5?$AA0@ 0000000180056a00     libucrtd:qsort.obj
 0002:00009a18       ??_C@_1CA@LIDFOMIN@?$AAc?$AAo?$AAm?$AAp?$AA?5?$AA?$CB?$AA?$DN?$AA?5?$AAn?$AAu?$AAl?$AAl?$AAp?$AAt?$AAr@ 0000000180056a18     libucrtd:qsort.obj
 0002:00009a38       ??_C@_1CC@CHNFGJIC@?$AAc?$AAo?$AAm?$AAm?$AAo?$AAn?$AA_?$AAt?$AAc?$AAs?$AAn?$AAc?$AAp?$AAy?$AA_@ 0000000180056a38     libucrtd:wcsncpy_s.obj
 0002:00009a60       ??_C@_1CE@BLLJFLOH@?$AAs?$AAt?$AAr?$AAi?$AAn?$AAg?$AA?5?$AA?$CB?$AA?$DN?$AA?5?$AAn?$AAu?$AAl?$AAl?$AAp@ 0000000180056a60     libucrtd:mbsdec.obj
 0002:00009a90       ??_C@_1GO@DDOMFNGF@?$AAm?$AAi?$AAn?$AAk?$AAe?$AAr?$AAn?$AAe?$AAl?$AA?2?$AAc?$AAr?$AAt?$AAs?$AA?2@ 0000000180056a90     libucrtd:mbsdec.obj
 0002:00009b00       ??_C@_1BE@KLNCOLCD@?$AA_?$AAm?$AAb?$AAs?$AAd?$AAe?$AAc?$AA_?$AAl@ 0000000180056b00     libucrtd:mbsdec.obj
 0002:00009b18       ??_C@_1CG@CMGPGAOD@?$AAc?$AAu?$AAr?$AAr?$AAe?$AAn?$AAt?$AA?5?$AA?$CB?$AA?$DN?$AA?5?$AAn?$AAu?$AAl?$AAl@ 0000000180056b18     libucrtd:mbsdec.obj
 0002:00009b40       ??_C@_1FE@KNPCCODH@?$AA?$CI?$AA?$CC?$AAC?$AAo?$AAr?$AAr?$AAu?$AAp?$AAt?$AAe?$AAd?$AA?5?$AAp?$AAo?$AAi@ 0000000180056b40     libucrtd:getstringtypea.obj
 0002:00009ba0       ??_C@_1EM@GPJLADAA@?$AAV?$AAC?$AAC?$AAR?$AAT?$AA?2?$AAv?$AAc?$AAr?$AAu?$AAn?$AAt?$AAi?$AAm?$AAe@ 0000000180056ba0     libucrtd:getstringtypea.obj
 0002:00009bf0       ??_C@_0DJ@HCPJODDK@minkernel?2crts?2ucrt?2src?2appcrt?2@ 0000000180056bf0     libucrtd:getstringtypea.obj
 0002:00009c30       ??_C@_0DH@IKPCBLP@minkernel?2crts?2ucrt?2src?2appcrt?2@ 0000000180056c30     libucrtd:lcmapstringa.obj
 0002:0000aab0       ??_C@_15EMKDOKLE@?$AAa?$AAr@ 0000000180057ab0     libucrtd:lcidtoname_downlevel.obj
 0002:0000aab8       ??_C@_15KNPADPLH@?$AAb?$AAg@ 0000000180057ab8     libucrtd:lcidtoname_downlevel.obj
 0002:0000aac0       ??_C@_15EDMHLDMO@?$AAc?$AAa@ 0000000180057ac0     libucrtd:lcidtoname_downlevel.obj
 0002:0000aac8       ??_C@_1O@BPEAJADD@?$AAz?$AAh?$AA?9?$AAC?$AAH?$AAS@ 0000000180057ac8     libucrtd:lcidtoname_downlevel.obj
 0002:0000aad8       ??_C@_15LJNHCMNK@?$AAc?$AAs@ 0000000180057ad8     libucrtd:lcidtoname_downlevel.obj
 0002:0000aae0       ??_C@_15FOMCIDHG@?$AAd?$AAa@ 0000000180057ae0     libucrtd:lcidtoname_downlevel.obj
 0002:0000aae8       ??_C@_15NBKABECB@?$AAd?$AAe@ 0000000180057ae8     libucrtd:lcidtoname_downlevel.obj
 0002:0000aaf0       ??_C@_15GHPEIIAO@?$AAe?$AAl@ 0000000180057af0     libucrtd:lcidtoname_downlevel.obj
 0002:0000aaf8       ??_C@_15MNPNEAIF@?$AAe?$AAn@ 0000000180057af8     libucrtd:lcidtoname_downlevel.obj
 0002:0000ab00       ??_C@_15GPIOMPMH@?$AAe?$AAs@ 0000000180057b00     libucrtd:lcidtoname_downlevel.obj
 0002:0000ab08       ??_C@_15NGLOAKJC@?$AAf?$AAi@ 0000000180057b08     libucrtd:lcidtoname_downlevel.obj
 0002:0000ab10       ??_C@_15FBKGNKAM@?$AAf?$AAr@ 0000000180057b10     libucrtd:lcidtoname_downlevel.obj
 0002:0000ab18       ??_C@_15KGGCNEFK@?$AAh?$AAe@ 0000000180057b18     libucrtd:lcidtoname_downlevel.obj
 0002:0000ab20       ??_C@_15PGHLIDMF@?$AAh?$AAu@ 0000000180057b20     libucrtd:lcidtoname_downlevel.obj
 0002:0000ab28       ??_C@_15BIEMAPLM@?$AAi?$AAs@ 0000000180057b28     libucrtd:lcidtoname_downlevel.obj
 0002:0000ab30       ??_C@_15IFJLDHAF@?$AAi?$AAt@ 0000000180057b30     libucrtd:lcidtoname_downlevel.obj
 0002:0000ab38       ??_C@_15GEMIOCAG@?$AAj?$AAa@ 0000000180057b38     libucrtd:lcidtoname_downlevel.obj
 0002:0000ab40       ??_C@_15EPELEGJA@?$AAk?$AAo@ 0000000180057b40     libucrtd:lcidtoname_downlevel.obj
 0002:0000ab48       ??_C@_15NDDHIMN@?$AAn?$AAl@ 0000000180057b48     libucrtd:lcidtoname_downlevel.obj
 0002:0000ab50       ??_C@_15BPIGNHCD@?$AAn?$AAo@ 0000000180057b50     libucrtd:lcidtoname_downlevel.obj
 0002:0000ab58       ??_C@_15DEOPBLCG@?$AAp?$AAl@ 0000000180057b58     libucrtd:lcidtoname_downlevel.obj
 0002:0000ab60       ??_C@_15KBECGEFG@?$AAp?$AAt@ 0000000180057b60     libucrtd:lcidtoname_downlevel.obj
 0002:0000ab68       ??_C@_15GLJCBFMD@?$AAr?$AAo@ 0000000180057b68     libucrtd:lcidtoname_downlevel.obj
 0002:0000ab70       ??_C@_15FEDGKCDI@?$AAr?$AAu@ 0000000180057b70     libucrtd:lcidtoname_downlevel.obj
 0002:0000ab78       ??_C@_15GLKMLLHM@?$AAh?$AAr@ 0000000180057b78     libucrtd:lcidtoname_downlevel.obj
 0002:0000ab80       ??_C@_15CPKMFBDB@?$AAs?$AAk@ 0000000180057b80     libucrtd:lcidtoname_downlevel.obj
 0002:0000ab88       ??_C@_15BAAIOGMK@?$AAs?$AAq@ 0000000180057b88     libucrtd:lcidtoname_downlevel.obj
 0002:0000ab90       ??_C@_15INNPNOHD@?$AAs?$AAv@ 0000000180057b90     libucrtd:lcidtoname_downlevel.obj
 0002:0000ab98       ??_C@_15CABMMOGH@?$AAt?$AAh@ 0000000180057b98     libucrtd:lcidtoname_downlevel.obj
 0002:0000aba0       ??_C@_15BPLIHJJM@?$AAt?$AAr@ 0000000180057ba0     libucrtd:lcidtoname_downlevel.obj
 0002:0000aba8       ??_C@_15NEOEKKDJ@?$AAu?$AAr@ 0000000180057ba8     libucrtd:lcidtoname_downlevel.obj
 0002:0000abb0       ??_C@_15NFICGAJK@?$AAi?$AAd@ 0000000180057bb0     libucrtd:lcidtoname_downlevel.obj
 0002:0000abb8       ??_C@_15PJPFLCCM@?$AAu?$AAk@ 0000000180057bb8     libucrtd:lcidtoname_downlevel.obj
 0002:0000abc0       ??_C@_15HPJPHDM@?$AAb?$AAe@ 0000000180057bc0     libucrtd:lcidtoname_downlevel.obj
 0002:0000abc8       ??_C@_15LCHLGJII@?$AAs?$AAl@ 0000000180057bc8     libucrtd:lcidtoname_downlevel.obj
 0002:0000abd0       ??_C@_15PCFJPHHO@?$AAe?$AAt@ 0000000180057bd0     libucrtd:lcidtoname_downlevel.obj
 0002:0000abd8       ??_C@_15HPFPGODN@?$AAl?$AAv@ 0000000180057bd8     libucrtd:lcidtoname_downlevel.obj
 0002:0000abe0       ??_C@_15NFFGKGLG@?$AAl?$AAt@ 0000000180057be0     libucrtd:lcidtoname_downlevel.obj
 0002:0000abe8       ??_C@_15BDAKCCHN@?$AAf?$AAa@ 0000000180057be8     libucrtd:lcidtoname_downlevel.obj
 0002:0000abf0       ??_C@_15NFGIAIAJ@?$AAv?$AAi@ 0000000180057bf0     libucrtd:lcidtoname_downlevel.obj
 0002:0000abf8       ??_C@_15LMKNDMHN@?$AAh?$AAy@ 0000000180057bf8     libucrtd:lcidtoname_downlevel.obj
 0002:0000ac00       ??_C@_15IJBHMCFL@?$AAa?$AAz@ 0000000180057c00     libucrtd:lcidtoname_downlevel.obj
 0002:0000ac08       ??_C@_15EKOFJABL@?$AAe?$AAu@ 0000000180057c08     libucrtd:lcidtoname_downlevel.obj
 0002:0000ac10       ??_C@_15BGHADCNK@?$AAm?$AAk@ 0000000180057c10     libucrtd:lcidtoname_downlevel.obj
 0002:0000ac18       ??_C@_15JDNICKHM@?$AAa?$AAf@ 0000000180057c18     libucrtd:lcidtoname_downlevel.obj
 0002:0000ac20       ??_C@_15KPJEDBKD@?$AAk?$AAa@ 0000000180057c20     libucrtd:lcidtoname_downlevel.obj
 0002:0000ac28       ??_C@_15PDNFFFEO@?$AAf?$AAo@ 0000000180057c28     libucrtd:lcidtoname_downlevel.obj
 0002:0000ac30       ??_C@_15OMLEGLOC@?$AAh?$AAi@ 0000000180057c30     libucrtd:lcidtoname_downlevel.obj
 0002:0000ac38       ??_C@_15IDNNENKK@?$AAm?$AAs@ 0000000180057c38     libucrtd:lcidtoname_downlevel.obj
 0002:0000ac40       ??_C@_15MACJNBMH@?$AAk?$AAk@ 0000000180057c40     libucrtd:lcidtoname_downlevel.obj
 0002:0000ac48       ??_C@_15DKDJEOND@?$AAk?$AAy@ 0000000180057c48     libucrtd:lcidtoname_downlevel.obj
 0002:0000ac50       ??_C@_15DFGDLJBG@?$AAs?$AAw@ 0000000180057c50     libucrtd:lcidtoname_downlevel.obj
 0002:0000ac58       ??_C@_15BBFAICNG@?$AAu?$AAz@ 0000000180057c58     libucrtd:lcidtoname_downlevel.obj
 0002:0000ac60       ??_C@_15DKNDCGEA@?$AAt?$AAt@ 0000000180057c60     libucrtd:lcidtoname_downlevel.obj
 0002:0000ac68       ??_C@_15MGIFMDPL@?$AAp?$AAa@ 0000000180057c68     libucrtd:lcidtoname_downlevel.obj
 0002:0000ac70       ??_C@_15HCNDBBA@?$AAg?$AAu@ 0000000180057c70     libucrtd:lcidtoname_downlevel.obj
 0002:0000ac78       ??_C@_15FNBEIBON@?$AAt?$AAa@ 0000000180057c78     libucrtd:lcidtoname_downlevel.obj
 0002:0000ac80       ??_C@_15NCHGBGLK@?$AAt?$AAe@ 0000000180057c80     libucrtd:lcidtoname_downlevel.obj
 0002:0000ac88       ??_C@_15PHPHCBPF@?$AAk?$AAn@ 0000000180057c88     libucrtd:lcidtoname_downlevel.obj
 0002:0000ac90       ??_C@_15DLGBCKMP@?$AAm?$AAr@ 0000000180057c90     libucrtd:lcidtoname_downlevel.obj
 0002:0000ac98       ??_C@_15EABBLBFF@?$AAs?$AAa@ 0000000180057c98     libucrtd:lcidtoname_downlevel.obj
 0002:0000aca0       ??_C@_15CBKOMCOI@?$AAm?$AAn@ 0000000180057ca0     libucrtd:lcidtoname_downlevel.obj
 0002:0000aca8       ??_C@_15CKDMCJAF@?$AAg?$AAl@ 0000000180057ca8     libucrtd:lcidtoname_downlevel.obj
 0002:0000acb0       ??_C@_17CNJFBPG@?$AAk?$AAo?$AAk@ 0000000180057cb0     libucrtd:lcidtoname_downlevel.obj
 0002:0000acb8       ??_C@_17FFBJICPL@?$AAs?$AAy?$AAr@ 0000000180057cb8     libucrtd:lcidtoname_downlevel.obj
 0002:0000acc0       ??_C@_17KPNDCPAF@?$AAd?$AAi?$AAv@ 0000000180057cc0     libucrtd:lcidtoname_downlevel.obj
 0002:0000acc8       ??_C@_1M@OKAHONE@?$AAa?$AAr?$AA?9?$AAS?$AAA@ 0000000180057cc8     libucrtd:lcidtoname_downlevel.obj
 0002:0000acd8       ??_C@_1M@FFFIGIGK@?$AAb?$AAg?$AA?9?$AAB?$AAG@ 0000000180057cd8     libucrtd:lcidtoname_downlevel.obj
 0002:0000ace8       ??_C@_1M@BJNKEDC@?$AAc?$AAa?$AA?9?$AAE?$AAS@ 0000000180057ce8     libucrtd:lcidtoname_downlevel.obj
 0002:0000acf8       ??_C@_1M@IJJHFJHA@?$AAc?$AAs?$AA?9?$AAC?$AAZ@ 0000000180057cf8     libucrtd:lcidtoname_downlevel.obj
 0002:0000ad08       ??_C@_1M@CLPEOBGI@?$AAd?$AAa?$AA?9?$AAD?$AAK@ 0000000180057d08     libucrtd:lcidtoname_downlevel.obj
 0002:0000ad18       ??_C@_1M@MCMADGCB@?$AAd?$AAe?$AA?9?$AAD?$AAE@ 0000000180057d18     libucrtd:lcidtoname_downlevel.obj
 0002:0000ad28       ??_C@_1M@OOCKEMAM@?$AAe?$AAl?$AA?9?$AAG?$AAR@ 0000000180057d28     libucrtd:lcidtoname_downlevel.obj
 0002:0000ad38       ??_C@_1M@DDNJFGID@?$AAf?$AAi?$AA?9?$AAF?$AAI@ 0000000180057d38     libucrtd:lcidtoname_downlevel.obj
 0002:0000ad48       ??_C@_1M@GLIPPMAC@?$AAf?$AAr?$AA?9?$AAF?$AAR@ 0000000180057d48     libucrtd:lcidtoname_downlevel.obj
 0002:0000ad58       ??_C@_1M@GFMCHPE@?$AAh?$AAe?$AA?9?$AAI?$AAL@ 0000000180057d58     libucrtd:lcidtoname_downlevel.obj
 0002:0000ad68       ??_C@_1M@MHLPGNKM@?$AAh?$AAu?$AA?9?$AAH?$AAU@ 0000000180057d68     libucrtd:lcidtoname_downlevel.obj
 0002:0000ad78       ??_C@_1M@LPDDNNPN@?$AAi?$AAs?$AA?9?$AAI?$AAS@ 0000000180057d78     libucrtd:lcidtoname_downlevel.obj
 0002:0000ad88       ??_C@_1M@MADIPODN@?$AAi?$AAt?$AA?9?$AAI?$AAT@ 0000000180057d88     libucrtd:lcidtoname_downlevel.obj
 0002:0000ad98       ??_C@_1M@IHBJJGG@?$AAn?$AAl?$AA?9?$AAN?$AAL@ 0000000180057d98     libucrtd:lcidtoname_downlevel.obj
 0002:0000ada8       ??_C@_1M@EANAGDL@?$AAn?$AAb?$AA?9?$AAN?$AAO@ 0000000180057da8     libucrtd:lcidtoname_downlevel.obj
 0002:0000adb8       ??_C@_1M@NEIEMEGP@?$AAp?$AAl?$AA?9?$AAP?$AAL@ 0000000180057db8     libucrtd:lcidtoname_downlevel.obj
 0002:0000adc8       ??_C@_1M@BOCFIGEP@?$AAp?$AAt?$AA?9?$AAB?$AAR@ 0000000180057dc8     libucrtd:lcidtoname_downlevel.obj
 0002:0000add8       ??_C@_1M@IMPFOPBG@?$AAr?$AAo?$AA?9?$AAR?$AAO@ 0000000180057dd8     libucrtd:lcidtoname_downlevel.obj
 0002:0000ade8       ??_C@_1M@IDNNEJMM@?$AAr?$AAu?$AA?9?$AAR?$AAU@ 0000000180057de8     libucrtd:lcidtoname_downlevel.obj
 0002:0000adf8       ??_C@_1M@LILEEOGM@?$AAh?$AAr?$AA?9?$AAH?$AAR@ 0000000180057df8     libucrtd:lcidtoname_downlevel.obj
 0002:0000ae08       ??_C@_1M@FKIFEHPB@?$AAs?$AAk?$AA?9?$AAS?$AAK@ 0000000180057e08     libucrtd:lcidtoname_downlevel.obj
 0002:0000ae18       ??_C@_1M@LJMAMNPJ@?$AAs?$AAq?$AA?9?$AAA?$AAL@ 0000000180057e18     libucrtd:lcidtoname_downlevel.obj
 0002:0000ae28       ??_C@_1M@GIAKDKJK@?$AAs?$AAv?$AA?9?$AAS?$AAE@ 0000000180057e28     libucrtd:lcidtoname_downlevel.obj
 0002:0000ae38       ??_C@_1M@MKJKIKCL@?$AAt?$AAh?$AA?9?$AAT?$AAH@ 0000000180057e38     libucrtd:lcidtoname_downlevel.obj
 0002:0000ae48       ??_C@_1M@MFLCCMPB@?$AAt?$AAr?$AA?9?$AAT?$AAR@ 0000000180057e48     libucrtd:lcidtoname_downlevel.obj
 0002:0000ae58       ??_C@_1M@OIJHDKJN@?$AAu?$AAr?$AA?9?$AAP?$AAK@ 0000000180057e58     libucrtd:lcidtoname_downlevel.obj
 0002:0000ae68       ??_C@_1M@LHIPCIEK@?$AAi?$AAd?$AA?9?$AAI?$AAD@ 0000000180057e68     libucrtd:lcidtoname_downlevel.obj
 0002:0000ae78       ??_C@_1M@MFMOBGI@?$AAu?$AAk?$AA?9?$AAU?$AAA@ 0000000180057e78     libucrtd:lcidtoname_downlevel.obj
 0002:0000ae88       ??_C@_1M@OBGLJIPL@?$AAb?$AAe?$AA?9?$AAB?$AAY@ 0000000180057e88     libucrtd:lcidtoname_downlevel.obj
 0002:0000ae98       ??_C@_1M@BCFAJEAD@?$AAs?$AAl?$AA?9?$AAS?$AAI@ 0000000180057e98     libucrtd:lcidtoname_downlevel.obj
 0002:0000aea8       ??_C@_1M@FKFFEDDN@?$AAe?$AAt?$AA?9?$AAE?$AAE@ 0000000180057ea8     libucrtd:lcidtoname_downlevel.obj
 0002:0000aeb8       ??_C@_1M@KGKKAACI@?$AAl?$AAv?$AA?9?$AAL?$AAV@ 0000000180057eb8     libucrtd:lcidtoname_downlevel.obj
 0002:0000aec8       ??_C@_1M@IFGBIJO@?$AAl?$AAt?$AA?9?$AAL?$AAT@ 0000000180057ec8     libucrtd:lcidtoname_downlevel.obj
 0002:0000aed8       ??_C@_1M@FGEAHEDM@?$AAf?$AAa?$AA?9?$AAI?$AAR@ 0000000180057ed8     libucrtd:lcidtoname_downlevel.obj
 0002:0000aee8       ??_C@_1M@KBMAIBFN@?$AAv?$AAi?$AA?9?$AAV?$AAN@ 0000000180057ee8     libucrtd:lcidtoname_downlevel.obj
 0002:0000aef8       ??_C@_1M@GPCBKDJK@?$AAh?$AAy?$AA?9?$AAA?$AAM@ 0000000180057ef8     libucrtd:lcidtoname_downlevel.obj
 0002:0000af08       ??_C@_1BG@BECMDDJB@?$AAa?$AAz?$AA?9?$AAA?$AAZ?$AA?9?$AAL?$AAa?$AAt?$AAn@ 0000000180057f08     libucrtd:lcidtoname_downlevel.obj
 0002:0000af20       ??_C@_1M@MAOFCAEA@?$AAe?$AAu?$AA?9?$AAE?$AAS@ 0000000180057f20     libucrtd:lcidtoname_downlevel.obj
 0002:0000af30       ??_C@_1M@IGHABKPI@?$AAm?$AAk?$AA?9?$AAM?$AAK@ 0000000180057f30     libucrtd:lcidtoname_downlevel.obj
 0002:0000af40       ??_C@_1M@IAIGNEJG@?$AAt?$AAn?$AA?9?$AAZ?$AAA@ 0000000180057f40     libucrtd:lcidtoname_downlevel.obj
 0002:0000af50       ??_C@_1M@IIJCOJFA@?$AAx?$AAh?$AA?9?$AAZ?$AAA@ 0000000180057f50     libucrtd:lcidtoname_downlevel.obj
 0002:0000af60       ??_C@_1M@LGPJHNJH@?$AAz?$AAu?$AA?9?$AAZ?$AAA@ 0000000180057f60     libucrtd:lcidtoname_downlevel.obj
 0002:0000af70       ??_C@_1M@HOKAOIO@?$AAa?$AAf?$AA?9?$AAZ?$AAA@ 0000000180057f70     libucrtd:lcidtoname_downlevel.obj
 0002:0000af80       ??_C@_1M@DPCLHLIE@?$AAk?$AAa?$AA?9?$AAG?$AAE@ 0000000180057f80     libucrtd:lcidtoname_downlevel.obj
 0002:0000af90       ??_C@_1M@BLKMHJBI@?$AAf?$AAo?$AA?9?$AAF?$AAO@ 0000000180057f90     libucrtd:lcidtoname_downlevel.obj
 0002:0000afa0       ??_C@_1M@LGGJAPPB@?$AAh?$AAi?$AA?9?$AAI?$AAN@ 0000000180057fa0     libucrtd:lcidtoname_downlevel.obj
 0002:0000afb0       ??_C@_1M@FIKPIHFE@?$AAm?$AAt?$AA?9?$AAM?$AAT@ 0000000180057fb0     libucrtd:lcidtoname_downlevel.obj
 0002:0000afc0       ??_C@_1M@HEGGPBFA@?$AAs?$AAe?$AA?9?$AAN?$AAO@ 0000000180057fc0     libucrtd:lcidtoname_downlevel.obj
 0002:0000afd0       ??_C@_1M@EIBJEEPA@?$AAm?$AAs?$AA?9?$AAM?$AAY@ 0000000180057fd0     libucrtd:lcidtoname_downlevel.obj
 0002:0000afe0       ??_C@_1M@FHLBGMPP@?$AAk?$AAk?$AA?9?$AAK?$AAZ@ 0000000180057fe0     libucrtd:lcidtoname_downlevel.obj
 0002:0000aff0       ??_C@_1M@NGJJLCGI@?$AAk?$AAy?$AA?9?$AAK?$AAG@ 0000000180057ff0     libucrtd:lcidtoname_downlevel.obj
 0002:0000b000       ??_C@_1M@GIENNBFC@?$AAs?$AAw?$AA?9?$AAK?$AAE@ 0000000180058000     libucrtd:lcidtoname_downlevel.obj
 0002:0000b010       ??_C@_1BG@NDGMJIMJ@?$AAu?$AAz?$AA?9?$AAU?$AAZ?$AA?9?$AAL?$AAa?$AAt?$AAn@ 0000000180058010     libucrtd:lcidtoname_downlevel.obj
 0002:0000b028       ??_C@_1M@IDCCIHBC@?$AAt?$AAt?$AA?9?$AAR?$AAU@ 0000000180058028     libucrtd:lcidtoname_downlevel.obj
 0002:0000b038       ??_C@_1M@LOICPMOJ@?$AAb?$AAn?$AA?9?$AAI?$AAN@ 0000000180058038     libucrtd:lcidtoname_downlevel.obj
 0002:0000b048       ??_C@_1M@KPKKNEAH@?$AAp?$AAa?$AA?9?$AAI?$AAN@ 0000000180058048     libucrtd:lcidtoname_downlevel.obj
 0002:0000b058       ??_C@_1M@PJGPPBOG@?$AAg?$AAu?$AA?9?$AAI?$AAN@ 0000000180058058     libucrtd:lcidtoname_downlevel.obj
 0002:0000b068       ??_C@_1M@KMKMOPHI@?$AAt?$AAa?$AA?9?$AAI?$AAN@ 0000000180058068     libucrtd:lcidtoname_downlevel.obj
 0002:0000b078       ??_C@_1M@KFEHEPAC@?$AAt?$AAe?$AA?9?$AAI?$AAN@ 0000000180058078     libucrtd:lcidtoname_downlevel.obj
 0002:0000b088       ??_C@_1M@CDCLMGHI@?$AAk?$AAn?$AA?9?$AAI?$AAN@ 0000000180058088     libucrtd:lcidtoname_downlevel.obj
 0002:0000b098       ??_C@_1M@MIODLDKF@?$AAm?$AAl?$AA?9?$AAI?$AAN@ 0000000180058098     libucrtd:lcidtoname_downlevel.obj
 0002:0000b0a8       ??_C@_1M@PBIEACPO@?$AAm?$AAr?$AA?9?$AAI?$AAN@ 00000001800580a8     libucrtd:lcidtoname_downlevel.obj
 0002:0000b0b8       ??_C@_1M@NIDEAGPH@?$AAs?$AAa?$AA?9?$AAI?$AAN@ 00000001800580b8     libucrtd:lcidtoname_downlevel.obj
 0002:0000b0c8       ??_C@_1M@FHIHCBIO@?$AAm?$AAn?$AA?9?$AAM?$AAN@ 00000001800580c8     libucrtd:lcidtoname_downlevel.obj
 0002:0000b0d8       ??_C@_1M@JAIJPENP@?$AAc?$AAy?$AA?9?$AAG?$AAB@ 00000001800580d8     libucrtd:lcidtoname_downlevel.obj
 0002:0000b0e8       ??_C@_1M@PHGFBEPN@?$AAg?$AAl?$AA?9?$AAE?$AAS@ 00000001800580e8     libucrtd:lcidtoname_downlevel.obj
 0002:0000b0f8       ??_C@_1O@KPIPDNCP@?$AAk?$AAo?$AAk?$AA?9?$AAI?$AAN@ 00000001800580f8     libucrtd:lcidtoname_downlevel.obj
 0002:0000b108       ??_C@_1O@KNHJLDJA@?$AAs?$AAy?$AAr?$AA?9?$AAS?$AAY@ 0000000180058108     libucrtd:lcidtoname_downlevel.obj
 0002:0000b118       ??_C@_1O@MKEKBLAH@?$AAd?$AAi?$AAv?$AA?9?$AAM?$AAV@ 0000000180058118     libucrtd:lcidtoname_downlevel.obj
 0002:0000b128       ??_C@_1O@OHDCKDDF@?$AAq?$AAu?$AAz?$AA?9?$AAB?$AAO@ 0000000180058128     libucrtd:lcidtoname_downlevel.obj
 0002:0000b138       ??_C@_1M@LEPJNLFD@?$AAn?$AAs?$AA?9?$AAZ?$AAA@ 0000000180058138     libucrtd:lcidtoname_downlevel.obj
 0002:0000b148       ??_C@_1M@OMLEIIJB@?$AAm?$AAi?$AA?9?$AAN?$AAZ@ 0000000180058148     libucrtd:lcidtoname_downlevel.obj
 0002:0000b158       ??_C@_1M@PMPEAILG@?$AAa?$AAr?$AA?9?$AAI?$AAQ@ 0000000180058158     libucrtd:lcidtoname_downlevel.obj
 0002:0000b168       ??_C@_1M@CNKPNOEE@?$AAd?$AAe?$AA?9?$AAC?$AAH@ 0000000180058168     libucrtd:lcidtoname_downlevel.obj
 0002:0000b178       ??_C@_1M@LKMGMLKO@?$AAe?$AAn?$AA?9?$AAG?$AAB@ 0000000180058178     libucrtd:lcidtoname_downlevel.obj
 0002:0000b188       ??_C@_1M@PGKJFFGL@?$AAe?$AAs?$AA?9?$AAM?$AAX@ 0000000180058188     libucrtd:lcidtoname_downlevel.obj
 0002:0000b198       ??_C@_1M@DNNANBDC@?$AAf?$AAr?$AA?9?$AAB?$AAE@ 0000000180058198     libucrtd:lcidtoname_downlevel.obj
 0002:0000b1a8       ??_C@_1M@HLGMDFHM@?$AAi?$AAt?$AA?9?$AAC?$AAH@ 00000001800581a8     libucrtd:lcidtoname_downlevel.obj
 0002:0000b1b8       ??_C@_1M@CLLBGJH@?$AAn?$AAl?$AA?9?$AAB?$AAE@ 00000001800581b8     libucrtd:lcidtoname_downlevel.obj
 0002:0000b1c8       ??_C@_1M@BODBOGLF@?$AAn?$AAn?$AA?9?$AAN?$AAO@ 00000001800581c8     libucrtd:lcidtoname_downlevel.obj
 0002:0000b1d8       ??_C@_1M@HFFAHKAD@?$AAp?$AAt?$AA?9?$AAP?$AAT@ 00000001800581d8     libucrtd:lcidtoname_downlevel.obj
 0002:0000b1e8       ??_C@_1BG@LNOAKHIE@?$AAs?$AAr?$AA?9?$AAS?$AAP?$AA?9?$AAL?$AAa?$AAt?$AAn@ 00000001800581e8     libucrtd:lcidtoname_downlevel.obj
 0002:0000b200       ??_C@_1M@HBMHBGAK@?$AAs?$AAv?$AA?9?$AAF?$AAI@ 0000000180058200     libucrtd:lcidtoname_downlevel.obj
 0002:0000b210       ??_C@_1BG@DGCJGJBE@?$AAa?$AAz?$AA?9?$AAA?$AAZ?$AA?9?$AAC?$AAy?$AAr?$AAl@ 0000000180058210     libucrtd:lcidtoname_downlevel.obj
 0002:0000b228       ??_C@_1M@KEJDAAHB@?$AAs?$AAe?$AA?9?$AAS?$AAE@ 0000000180058228     libucrtd:lcidtoname_downlevel.obj
 0002:0000b238       ??_C@_1M@HEIBJJAD@?$AAm?$AAs?$AA?9?$AAB?$AAN@ 0000000180058238     libucrtd:lcidtoname_downlevel.obj
 0002:0000b248       ??_C@_1BG@PBGJMCEM@?$AAu?$AAz?$AA?9?$AAU?$AAZ?$AA?9?$AAC?$AAy?$AAr?$AAl@ 0000000180058248     libucrtd:lcidtoname_downlevel.obj
 0002:0000b260       ??_C@_1O@LAOBCMDF@?$AAq?$AAu?$AAz?$AA?9?$AAE?$AAC@ 0000000180058260     libucrtd:lcidtoname_downlevel.obj
 0002:0000b270       ??_C@_1M@POEEMAIO@?$AAa?$AAr?$AA?9?$AAE?$AAG@ 0000000180058270     libucrtd:lcidtoname_downlevel.obj
 0002:0000b280       ??_C@_1M@EFAKDEDL@?$AAz?$AAh?$AA?9?$AAH?$AAK@ 0000000180058280     libucrtd:lcidtoname_downlevel.obj
 0002:0000b290       ??_C@_1M@HKKIJHGI@?$AAd?$AAe?$AA?9?$AAA?$AAT@ 0000000180058290     libucrtd:lcidtoname_downlevel.obj
 0002:0000b2a0       ??_C@_1M@KBFBEHJF@?$AAe?$AAn?$AA?9?$AAA?$AAU@ 00000001800582a0     libucrtd:lcidtoname_downlevel.obj
 0002:0000b2b0       ??_C@_1M@MNPLFAAH@?$AAe?$AAs?$AA?9?$AAE?$AAS@ 00000001800582b0     libucrtd:lcidtoname_downlevel.obj
 0002:0000b2c0       ??_C@_1M@HJOOJFMA@?$AAf?$AAr?$AA?9?$AAC?$AAA@ 00000001800582c0     libucrtd:lcidtoname_downlevel.obj
 0002:0000b2d0       ??_C@_1BG@JPOFPNAB@?$AAs?$AAr?$AA?9?$AAS?$AAP?$AA?9?$AAC?$AAy?$AAr?$AAl@ 00000001800582d0     libucrtd:lcidtoname_downlevel.obj
 0002:0000b2e8       ??_C@_1M@LNFOCMOB@?$AAs?$AAe?$AA?9?$AAF?$AAI@ 00000001800582e8     libucrtd:lcidtoname_downlevel.obj
 0002:0000b2f8       ??_C@_1O@MGJBOAMB@?$AAq?$AAu?$AAz?$AA?9?$AAP?$AAE@ 00000001800582f8     libucrtd:lcidtoname_downlevel.obj
 0002:0000b308       ??_C@_1M@GJINLBOK@?$AAa?$AAr?$AA?9?$AAL?$AAY@ 0000000180058308     libucrtd:lcidtoname_downlevel.obj
 0002:0000b318       ??_C@_1M@GGMNHJNL@?$AAz?$AAh?$AA?9?$AAS?$AAG@ 0000000180058318     libucrtd:lcidtoname_downlevel.obj
 0002:0000b328       ??_C@_1M@HOIKODND@?$AAd?$AAe?$AA?9?$AAL?$AAU@ 0000000180058328     libucrtd:lcidtoname_downlevel.obj
 0002:0000b338       ??_C@_1M@DDOCCGFG@?$AAe?$AAn?$AA?9?$AAC?$AAA@ 0000000180058338     libucrtd:lcidtoname_downlevel.obj
 0002:0000b348       ??_C@_1M@BNOEMJLF@?$AAe?$AAs?$AA?9?$AAG?$AAT@ 0000000180058348     libucrtd:lcidtoname_downlevel.obj
 0002:0000b358       ??_C@_1M@EOGNKEK@?$AAf?$AAr?$AA?9?$AAC?$AAH@ 0000000180058358     libucrtd:lcidtoname_downlevel.obj
 0002:0000b368       ??_C@_1M@FLIDJFHL@?$AAh?$AAr?$AA?9?$AAB?$AAA@ 0000000180058368     libucrtd:lcidtoname_downlevel.obj
 0002:0000b378       ??_C@_1O@FMCELNAJ@?$AAs?$AAm?$AAj?$AA?9?$AAN?$AAO@ 0000000180058378     libucrtd:lcidtoname_downlevel.obj
 0002:0000b388       ??_C@_1M@JHGLJMGJ@?$AAa?$AAr?$AA?9?$AAD?$AAZ@ 0000000180058388     libucrtd:lcidtoname_downlevel.obj
 0002:0000b398       ??_C@_1M@JKKFDCNP@?$AAz?$AAh?$AA?9?$AAM?$AAO@ 0000000180058398     libucrtd:lcidtoname_downlevel.obj
 0002:0000b3a8       ??_C@_1M@GEEFALPE@?$AAd?$AAe?$AA?9?$AAL?$AAI@ 00000001800583a8     libucrtd:lcidtoname_downlevel.obj
 0002:0000b3b8       ??_C@_1M@IGEOFBG@?$AAe?$AAn?$AA?9?$AAN?$AAZ@ 00000001800583b8     libucrtd:lcidtoname_downlevel.obj
 0002:0000b3c8       ??_C@_1M@KDBONEHP@?$AAe?$AAs?$AA?9?$AAC?$AAR@ 00000001800583c8     libucrtd:lcidtoname_downlevel.obj
 0002:0000b3d8       ??_C@_1M@FHMDOHNN@?$AAf?$AAr?$AA?9?$AAL?$AAU@ 00000001800583d8     libucrtd:lcidtoname_downlevel.obj
 0002:0000b3e8       ??_C@_1BG@NFKKMAFG@?$AAb?$AAs?$AA?9?$AAB?$AAA?$AA?9?$AAL?$AAa?$AAt?$AAn@ 00000001800583e8     libucrtd:lcidtoname_downlevel.obj
 0002:0000b400       ??_C@_1O@IMNBEMCI@?$AAs?$AAm?$AAj?$AA?9?$AAS?$AAE@ 0000000180058400     libucrtd:lcidtoname_downlevel.obj
 0002:0000b410       ??_C@_1M@DHHMBNDP@?$AAa?$AAr?$AA?9?$AAM?$AAA@ 0000000180058410     libucrtd:lcidtoname_downlevel.obj
 0002:0000b420       ??_C@_1M@BNBLJCGH@?$AAe?$AAn?$AA?9?$AAI?$AAE@ 0000000180058420     libucrtd:lcidtoname_downlevel.obj
 0002:0000b430       ??_C@_1M@GEPAFMDL@?$AAe?$AAs?$AA?9?$AAP?$AAA@ 0000000180058430     libucrtd:lcidtoname_downlevel.obj
 0002:0000b440       ??_C@_1M@OJONDMDL@?$AAf?$AAr?$AA?9?$AAM?$AAC@ 0000000180058440     libucrtd:lcidtoname_downlevel.obj
 0002:0000b450       ??_C@_1BG@OBCNFJB@?$AAs?$AAr?$AA?9?$AAB?$AAA?$AA?9?$AAL?$AAa?$AAt?$AAn@ 0000000180058450     libucrtd:lcidtoname_downlevel.obj
 0002:0000b468       ??_C@_1O@KEMEEGPO@?$AAs?$AAm?$AAa?$AA?9?$AAN?$AAO@ 0000000180058468     libucrtd:lcidtoname_downlevel.obj
 0002:0000b478       ??_C@_1M@ELMGFODK@?$AAa?$AAr?$AA?9?$AAT?$AAN@ 0000000180058478     libucrtd:lcidtoname_downlevel.obj
 0002:0000b488       ??_C@_1M@BHDLHFAF@?$AAe?$AAn?$AA?9?$AAZ?$AAA@ 0000000180058488     libucrtd:lcidtoname_downlevel.obj
 0002:0000b498       ??_C@_1M@BMGIGLIF@?$AAe?$AAs?$AA?9?$AAD?$AAO@ 0000000180058498     libucrtd:lcidtoname_downlevel.obj
 0002:0000b4a8       ??_C@_1BG@CMBHIPBE@?$AAs?$AAr?$AA?9?$AAB?$AAA?$AA?9?$AAC?$AAy?$AAr?$AAl@ 00000001800584a8     libucrtd:lcidtoname_downlevel.obj
 0002:0000b4c0       ??_C@_1O@HEDBLHNP@?$AAs?$AAm?$AAa?$AA?9?$AAS?$AAE@ 00000001800584c0     libucrtd:lcidtoname_downlevel.obj
 0002:0000b4d0       ??_C@_1M@DAGCADIM@?$AAa?$AAr?$AA?9?$AAO?$AAM@ 00000001800584d0     libucrtd:lcidtoname_downlevel.obj
 0002:0000b4e0       ??_C@_1M@FODLMICG@?$AAe?$AAn?$AA?9?$AAJ?$AAM@ 00000001800584e0     libucrtd:lcidtoname_downlevel.obj
 0002:0000b4f0       ??_C@_1M@DNMLCIHB@?$AAe?$AAs?$AA?9?$AAV?$AAE@ 00000001800584f0     libucrtd:lcidtoname_downlevel.obj
 0002:0000b500       ??_C@_1O@EOKHMKJK@?$AAs?$AAm?$AAs?$AA?9?$AAF?$AAI@ 0000000180058500     libucrtd:lcidtoname_downlevel.obj
 0002:0000b510       ??_C@_1M@CAFJMKOF@?$AAa?$AAr?$AA?9?$AAY?$AAE@ 0000000180058510     libucrtd:lcidtoname_downlevel.obj
 0002:0000b520       ??_C@_1M@CBFHIJLI@?$AAe?$AAn?$AA?9?$AAC?$AAB@ 0000000180058520     libucrtd:lcidtoname_downlevel.obj
 0002:0000b530       ??_C@_1M@BGNFLDN@?$AAe?$AAs?$AA?9?$AAC?$AAO@ 0000000180058530     libucrtd:lcidtoname_downlevel.obj
 0002:0000b540       ??_C@_1O@JMPHMAMC@?$AAs?$AAm?$AAn?$AA?9?$AAF?$AAI@ 0000000180058540     libucrtd:lcidtoname_downlevel.obj
 0002:0000b550       ??_C@_1M@JLANABKE@?$AAa?$AAr?$AA?9?$AAS?$AAY@ 0000000180058550     libucrtd:lcidtoname_downlevel.obj
 0002:0000b560       ??_C@_1M@HPKGCFGN@?$AAe?$AAn?$AA?9?$AAB?$AAZ@ 0000000180058560     libucrtd:lcidtoname_downlevel.obj
 0002:0000b570       ??_C@_1M@OLJCMLGM@?$AAe?$AAs?$AA?9?$AAP?$AAE@ 0000000180058570     libucrtd:lcidtoname_downlevel.obj
 0002:0000b580       ??_C@_1M@MKKGFKLE@?$AAa?$AAr?$AA?9?$AAJ?$AAO@ 0000000180058580     libucrtd:lcidtoname_downlevel.obj
 0002:0000b590       ??_C@_1M@EKPGLDNI@?$AAe?$AAn?$AA?9?$AAT?$AAT@ 0000000180058590     libucrtd:lcidtoname_downlevel.obj
 0002:0000b5a0       ??_C@_1M@OONGHFHE@?$AAe?$AAs?$AA?9?$AAA?$AAR@ 00000001800585a0     libucrtd:lcidtoname_downlevel.obj
 0002:0000b5b0       ??_C@_1M@OOJFGBHE@?$AAa?$AAr?$AA?9?$AAL?$AAB@ 00000001800585b0     libucrtd:lcidtoname_downlevel.obj
 0002:0000b5c0       ??_C@_1M@GCEJHNEG@?$AAe?$AAn?$AA?9?$AAZ?$AAW@ 00000001800585c0     libucrtd:lcidtoname_downlevel.obj
 0002:0000b5d0       ??_C@_1M@JNOCAHJI@?$AAe?$AAs?$AA?9?$AAE?$AAC@ 00000001800585d0     libucrtd:lcidtoname_downlevel.obj
 0002:0000b5e0       ??_C@_1M@JEFHPGGB@?$AAa?$AAr?$AA?9?$AAK?$AAW@ 00000001800585e0     libucrtd:lcidtoname_downlevel.obj
 0002:0000b5f0       ??_C@_1M@MLKIBJOJ@?$AAe?$AAn?$AA?9?$AAP?$AAH@ 00000001800585f0     libucrtd:lcidtoname_downlevel.obj
 0002:0000b600       ??_C@_1M@BDNIPEND@?$AAe?$AAs?$AA?9?$AAC?$AAL@ 0000000180058600     libucrtd:lcidtoname_downlevel.obj
 0002:0000b610       ??_C@_1M@MPNMEKBD@?$AAa?$AAr?$AA?9?$AAA?$AAE@ 0000000180058610     libucrtd:lcidtoname_downlevel.obj
 0002:0000b620       ??_C@_1M@KBJALCPI@?$AAe?$AAs?$AA?9?$AAU?$AAY@ 0000000180058620     libucrtd:lcidtoname_downlevel.obj
 0002:0000b630       ??_C@_1M@LLCCOAGA@?$AAa?$AAr?$AA?9?$AAB?$AAH@ 0000000180058630     libucrtd:lcidtoname_downlevel.obj
 0002:0000b640       ??_C@_1M@PBFNCDEL@?$AAe?$AAs?$AA?9?$AAP?$AAY@ 0000000180058640     libucrtd:lcidtoname_downlevel.obj
 0002:0000b650       ??_C@_1M@EDGINPNP@?$AAa?$AAr?$AA?9?$AAQ?$AAA@ 0000000180058650     libucrtd:lcidtoname_downlevel.obj
 0002:0000b660       ??_C@_1M@MKDBIIJI@?$AAe?$AAs?$AA?9?$AAB?$AAO@ 0000000180058660     libucrtd:lcidtoname_downlevel.obj
 0002:0000b670       ??_C@_1M@CPKKEBLD@?$AAe?$AAs?$AA?9?$AAS?$AAV@ 0000000180058670     libucrtd:lcidtoname_downlevel.obj
 0002:0000b680       ??_C@_1M@NDBGMMJL@?$AAe?$AAs?$AA?9?$AAH?$AAN@ 0000000180058680     libucrtd:lcidtoname_downlevel.obj
 0002:0000b690       ??_C@_1M@JIJIBHDP@?$AAe?$AAs?$AA?9?$AAN?$AAI@ 0000000180058690     libucrtd:lcidtoname_downlevel.obj
 0002:0000b6a0       ??_C@_1M@CGFMKEEK@?$AAe?$AAs?$AA?9?$AAP?$AAR@ 00000001800586a0     libucrtd:lcidtoname_downlevel.obj
 0002:0000b6b0       ??_C@_1O@ICJHKIIK@?$AAz?$AAh?$AA?9?$AAC?$AAH?$AAT@ 00000001800586b0     libucrtd:lcidtoname_downlevel.obj
 0002:0000b6c0       ??_C@_15CLNEJCE@?$AAs?$AAr@ 00000001800586c0     libucrtd:lcidtoname_downlevel.obj
 0002:0000c510       ??_C@_1M@KAHEKEIG@?$AAa?$AAf?$AA?9?$AAz?$AAa@ 0000000180059510     libucrtd:lcidtoname_downlevel.obj
 0002:0000c520       ??_C@_1M@GIECOABL@?$AAa?$AAr?$AA?9?$AAa?$AAe@ 0000000180059520     libucrtd:lcidtoname_downlevel.obj
 0002:0000c530       ??_C@_1M@BMLMEKGI@?$AAa?$AAr?$AA?9?$AAb?$AAh@ 0000000180059530     libucrtd:lcidtoname_downlevel.obj
 0002:0000c540       ??_C@_1M@DAPFDGGB@?$AAa?$AAr?$AA?9?$AAd?$AAz@ 0000000180059540     libucrtd:lcidtoname_downlevel.obj
 0002:0000c550       ??_C@_1M@FJNKGKIG@?$AAa?$AAr?$AA?9?$AAe?$AAg@ 0000000180059550     libucrtd:lcidtoname_downlevel.obj
 0002:0000c560       ??_C@_1M@FLGKKCLO@?$AAa?$AAr?$AA?9?$AAi?$AAq@ 0000000180059560     libucrtd:lcidtoname_downlevel.obj
 0002:0000c570       ??_C@_1M@GNDIPALM@?$AAa?$AAr?$AA?9?$AAj?$AAo@ 0000000180059570     libucrtd:lcidtoname_downlevel.obj
 0002:0000c580       ??_C@_1M@DDMJFMGJ@?$AAa?$AAr?$AA?9?$AAk?$AAw@ 0000000180059580     libucrtd:lcidtoname_downlevel.obj
 0002:0000c590       ??_C@_1M@EJALMLHM@?$AAa?$AAr?$AA?9?$AAl?$AAb@ 0000000180059590     libucrtd:lcidtoname_downlevel.obj
 0002:0000c5a0       ??_C@_1M@MOBDBLOC@?$AAa?$AAr?$AA?9?$AAl?$AAy@ 00000001800595a0     libucrtd:lcidtoname_downlevel.obj
 0002:0000c5b0       ??_C@_1M@JAOCLHDH@?$AAa?$AAr?$AA?9?$AAm?$AAa@ 00000001800595b0     libucrtd:lcidtoname_downlevel.obj
 0002:0000c5c0       ??_C@_1M@JHPMKJIE@?$AAa?$AAr?$AA?9?$AAo?$AAm@ 00000001800595c0     libucrtd:lcidtoname_downlevel.obj
 0002:0000c5d0       ??_C@_1M@OEPGHFNH@?$AAa?$AAr?$AA?9?$AAq?$AAa@ 00000001800595d0     libucrtd:lcidtoname_downlevel.obj
 0002:0000c5e0       ??_C@_1M@KJDONENM@?$AAa?$AAr?$AA?9?$AAs?$AAa@ 00000001800595e0     libucrtd:lcidtoname_downlevel.obj
 0002:0000c5f0       ??_C@_1M@DMJDKLKM@?$AAa?$AAr?$AA?9?$AAs?$AAy@ 00000001800595f0     libucrtd:lcidtoname_downlevel.obj
 0002:0000c600       ??_C@_1M@OMFIPEDC@?$AAa?$AAr?$AA?9?$AAt?$AAn@ 0000000180059600     libucrtd:lcidtoname_downlevel.obj
 0002:0000c610       ??_C@_1M@IHMHGAON@?$AAa?$AAr?$AA?9?$AAy?$AAe@ 0000000180059610     libucrtd:lcidtoname_downlevel.obj
 0002:0000c620       ??_C@_1BG@KDCPGJGB@?$AAa?$AAz?$AA?9?$AAa?$AAz?$AA?9?$AAc?$AAy?$AAr?$AAl@ 0000000180059620     libucrtd:lcidtoname_downlevel.obj
 0002:0000c638       ??_C@_1BG@IBCKDDOE@?$AAa?$AAz?$AA?9?$AAa?$AAz?$AA?9?$AAl?$AAa?$AAt?$AAn@ 0000000180059638     libucrtd:lcidtoname_downlevel.obj
 0002:0000c650       ??_C@_1M@EGPFDCPD@?$AAb?$AAe?$AA?9?$AAb?$AAy@ 0000000180059650     libucrtd:lcidtoname_downlevel.obj
 0002:0000c660       ??_C@_1M@PCMGMCGC@?$AAb?$AAg?$AA?9?$AAb?$AAg@ 0000000180059660     libucrtd:lcidtoname_downlevel.obj
 0002:0000c670       ??_C@_1M@BJBMFGOB@?$AAb?$AAn?$AA?9?$AAi?$AAn@ 0000000180059670     libucrtd:lcidtoname_downlevel.obj
 0002:0000c680       ??_C@_1BG@EAKMMACD@?$AAb?$AAs?$AA?9?$AAb?$AAa?$AA?9?$AAl?$AAa?$AAt?$AAn@ 0000000180059680     libucrtd:lcidtoname_downlevel.obj
 0002:0000c698       ??_C@_1M@KGADAODK@?$AAc?$AAa?$AA?9?$AAe?$AAs@ 0000000180059698     libucrtd:lcidtoname_downlevel.obj
 0002:0000c6a8       ??_C@_1M@COAJPDHI@?$AAc?$AAs?$AA?9?$AAc?$AAz@ 00000001800596a8     libucrtd:lcidtoname_downlevel.obj
 0002:0000c6b8       ??_C@_1M@DHBHFONH@?$AAc?$AAy?$AA?9?$AAg?$AAb@ 00000001800596b8     libucrtd:lcidtoname_downlevel.obj
 0002:0000c6c8       ??_C@_1M@IMGKELGA@?$AAd?$AAa?$AA?9?$AAd?$AAk@ 00000001800596c8     libucrtd:lcidtoname_downlevel.obj
 0002:0000c6d8       ??_C@_1M@NNDGDNGA@?$AAd?$AAe?$AA?9?$AAa?$AAt@ 00000001800596d8     libucrtd:lcidtoname_downlevel.obj
 0002:0000c6e8       ??_C@_1M@IKDBHEEM@?$AAd?$AAe?$AA?9?$AAc?$AAh@ 00000001800596e8     libucrtd:lcidtoname_downlevel.obj
 0002:0000c6f8       ??_C@_1M@GFFOJMCJ@?$AAd?$AAe?$AA?9?$AAd?$AAe@ 00000001800596f8     libucrtd:lcidtoname_downlevel.obj
 0002:0000c708       ??_C@_1M@MDNLKBPM@?$AAd?$AAe?$AA?9?$AAl?$AAi@ 0000000180059708     libucrtd:lcidtoname_downlevel.obj
 0002:0000c718       ??_C@_1M@NJBEEJNL@?$AAd?$AAe?$AA?9?$AAl?$AAu@ 0000000180059718     libucrtd:lcidtoname_downlevel.obj
 0002:0000c728       ??_C@_1O@GNNELBAP@?$AAd?$AAi?$AAv?$AA?9?$AAm?$AAv@ 0000000180059728     libucrtd:lcidtoname_downlevel.obj
 0002:0000c738       ??_C@_1M@EJLEOGAE@?$AAe?$AAl?$AA?9?$AAg?$AAr@ 0000000180059738     libucrtd:lcidtoname_downlevel.obj
 0002:0000c748       ??_C@_1M@GMPONJN@?$AAe?$AAn?$AA?9?$AAa?$AAu@ 0000000180059748     libucrtd:lcidtoname_downlevel.obj
 0002:0000c758       ??_C@_1M@NIDIIPGF@?$AAe?$AAn?$AA?9?$AAb?$AAz@ 0000000180059758     libucrtd:lcidtoname_downlevel.obj
 0002:0000c768       ??_C@_1M@JEHMIMFO@?$AAe?$AAn?$AA?9?$AAc?$AAa@ 0000000180059768     libucrtd:lcidtoname_downlevel.obj
 0002:0000c778       ??_C@_1M@IGMJCDLA@?$AAe?$AAn?$AA?9?$AAc?$AAb@ 0000000180059778     libucrtd:lcidtoname_downlevel.obj
 0002:0000c788       ??_C@_1M@BNFIGBKG@?$AAe?$AAn?$AA?9?$AAg?$AAb@ 0000000180059788     libucrtd:lcidtoname_downlevel.obj
 0002:0000c798       ??_C@_1M@LKIFDIGP@?$AAe?$AAn?$AA?9?$AAi?$AAe@ 0000000180059798     libucrtd:lcidtoname_downlevel.obj
 0002:0000c7a8       ??_C@_1M@PJKFGCCO@?$AAe?$AAn?$AA?9?$AAj?$AAm@ 00000001800597a8     libucrtd:lcidtoname_downlevel.obj
 0002:0000c7b8       ??_C@_1M@KPPKEPBO@?$AAe?$AAn?$AA?9?$AAn?$AAz@ 00000001800597b8     libucrtd:lcidtoname_downlevel.obj
 0002:0000c7c8       ??_C@_1M@GMDGLDOB@?$AAe?$AAn?$AA?9?$AAp?$AAh@ 00000001800597c8     libucrtd:lcidtoname_downlevel.obj
 0002:0000c7d8       ??_C@_1M@ONGIBJNA@?$AAe?$AAn?$AA?9?$AAt?$AAt@ 00000001800597d8     libucrtd:lcidtoname_downlevel.obj
 0002:0000c7e8       ??_C@_1M@LLODPCMM@?$AAe?$AAn?$AA?9?$AAu?$AAs@ 00000001800597e8     libucrtd:lcidtoname_downlevel.obj
 0002:0000c7f8       ??_C@_1M@LAKFNPAN@?$AAe?$AAn?$AA?9?$AAz?$AAa@ 00000001800597f8     libucrtd:lcidtoname_downlevel.obj
 0002:0000c808       ??_C@_1M@MFNHNHEO@?$AAe?$AAn?$AA?9?$AAz?$AAw@ 0000000180059808     libucrtd:lcidtoname_downlevel.obj
 0002:0000c818       ??_C@_1M@EJEINPHM@?$AAe?$AAs?$AA?9?$AAa?$AAr@ 0000000180059818     libucrtd:lcidtoname_downlevel.obj
 0002:0000c828       ??_C@_1M@GNKPCCJA@?$AAe?$AAs?$AA?9?$AAb?$AAo@ 0000000180059828     libucrtd:lcidtoname_downlevel.obj
 0002:0000c838       ??_C@_1M@LEEGFONL@?$AAe?$AAs?$AA?9?$AAc?$AAl@ 0000000180059838     libucrtd:lcidtoname_downlevel.obj
 0002:0000c848       ??_C@_1M@KGPDPBDF@?$AAe?$AAs?$AA?9?$AAc?$AAo@ 0000000180059848     libucrtd:lcidtoname_downlevel.obj
 0002:0000c858       ??_C@_1M@EIAHOHH@?$AAe?$AAs?$AA?9?$AAc?$AAr@ 0000000180059858     libucrtd:lcidtoname_downlevel.obj
 0002:0000c868       ??_C@_1M@LLPGMBIN@?$AAe?$AAs?$AA?9?$AAd?$AAo@ 0000000180059868     libucrtd:lcidtoname_downlevel.obj
 0002:0000c878       ??_C@_1M@DKHMKNJA@?$AAe?$AAs?$AA?9?$AAe?$AAc@ 0000000180059878     libucrtd:lcidtoname_downlevel.obj
 0002:0000c888       ??_C@_1M@GKGFPKAP@?$AAe?$AAs?$AA?9?$AAe?$AAs@ 0000000180059888     libucrtd:lcidtoname_downlevel.obj
 0002:0000c898       ??_C@_1M@LKHKGDLN@?$AAe?$AAs?$AA?9?$AAg?$AAt@ 0000000180059898     libucrtd:lcidtoname_downlevel.obj
 0002:0000c8a8       ??_C@_1M@HEIIGGJD@?$AAe?$AAs?$AA?9?$AAh?$AAn@ 00000001800598a8     libucrtd:lcidtoname_downlevel.obj
 0002:0000c8b8       ??_C@_1M@FBDHPPGD@?$AAe?$AAs?$AA?9?$AAm?$AAx@ 00000001800598b8     libucrtd:lcidtoname_downlevel.obj
 0002:0000c8c8       ??_C@_1M@DPAGLNDH@?$AAe?$AAs?$AA?9?$AAn?$AAi@ 00000001800598c8     libucrtd:lcidtoname_downlevel.obj
 0002:0000c8d8       ??_C@_1M@MDGOPGDD@?$AAe?$AAs?$AA?9?$AAp?$AAa@ 00000001800598d8     libucrtd:lcidtoname_downlevel.obj
 0002:0000c8e8       ??_C@_1M@EMAMGBGE@?$AAe?$AAs?$AA?9?$AAp?$AAe@ 00000001800598e8     libucrtd:lcidtoname_downlevel.obj
 0002:0000c8f8       ??_C@_1M@IBMCAOEC@?$AAe?$AAs?$AA?9?$AAp?$AAr@ 00000001800598f8     libucrtd:lcidtoname_downlevel.obj
 0002:0000c908       ??_C@_1M@FGMDIJED@?$AAe?$AAs?$AA?9?$AAp?$AAy@ 0000000180059908     libucrtd:lcidtoname_downlevel.obj
 0002:0000c918       ??_C@_1M@IIDEOLLL@?$AAe?$AAs?$AA?9?$AAs?$AAv@ 0000000180059918     libucrtd:lcidtoname_downlevel.obj
 0002:0000c928       ??_C@_1M@GAOBIPA@?$AAe?$AAs?$AA?9?$AAu?$AAy@ 0000000180059928     libucrtd:lcidtoname_downlevel.obj
 0002:0000c938       ??_C@_1M@JKFFICHJ@?$AAe?$AAs?$AA?9?$AAv?$AAe@ 0000000180059938     libucrtd:lcidtoname_downlevel.obj
 0002:0000c948       ??_C@_1M@PNMLOJDF@?$AAe?$AAt?$AA?9?$AAe?$AAe@ 0000000180059948     libucrtd:lcidtoname_downlevel.obj
 0002:0000c958       ??_C@_1M@GHHLIKEI@?$AAe?$AAu?$AA?9?$AAe?$AAs@ 0000000180059958     libucrtd:lcidtoname_downlevel.obj
 0002:0000c968       ??_C@_1M@PBNONODE@?$AAf?$AAa?$AA?9?$AAi?$AAr@ 0000000180059968     libucrtd:lcidtoname_downlevel.obj
 0002:0000c978       ??_C@_1M@JEEHPMIL@?$AAf?$AAi?$AA?9?$AAf?$AAi@ 0000000180059978     libucrtd:lcidtoname_downlevel.obj
 0002:0000c988       ??_C@_1M@LMDCNDBA@?$AAf?$AAo?$AA?9?$AAf?$AAo@ 0000000180059988     libucrtd:lcidtoname_downlevel.obj
 0002:0000c998       ??_C@_1M@JKEOHLDK@?$AAf?$AAr?$AA?9?$AAb?$AAe@ 0000000180059998     libucrtd:lcidtoname_downlevel.obj
 0002:0000c9a8       ??_C@_1M@NOHADPMI@?$AAf?$AAr?$AA?9?$AAc?$AAa@ 00000001800599a8     libucrtd:lcidtoname_downlevel.obj
 0002:0000c9b8       ??_C@_1M@KDHIHAEC@?$AAf?$AAr?$AA?9?$AAc?$AAh@ 00000001800599b8     libucrtd:lcidtoname_downlevel.obj
 0002:0000c9c8       ??_C@_1M@MMBBFGAK@?$AAf?$AAr?$AA?9?$AAf?$AAr@ 00000001800599c8     libucrtd:lcidtoname_downlevel.obj
 0002:0000c9d8       ??_C@_1M@PAFNENNF@?$AAf?$AAr?$AA?9?$AAl?$AAu@ 00000001800599d8     libucrtd:lcidtoname_downlevel.obj
 0002:0000c9e8       ??_C@_1M@EOHDJGDD@?$AAf?$AAr?$AA?9?$AAm?$AAc@ 00000001800599e8     libucrtd:lcidtoname_downlevel.obj
 0002:0000c9f8       ??_C@_1M@FAPLLOPF@?$AAg?$AAl?$AA?9?$AAe?$AAs@ 00000001800599f8     libucrtd:lcidtoname_downlevel.obj
 0002:0000ca08       ??_C@_1M@FOPBFLOO@?$AAg?$AAu?$AA?9?$AAi?$AAn@ 0000000180059a08     libucrtd:lcidtoname_downlevel.obj
 0002:0000ca18       ??_C@_1M@KBMCINPM@?$AAh?$AAe?$AA?9?$AAi?$AAl@ 0000000180059a18     libucrtd:lcidtoname_downlevel.obj
 0002:0000ca28       ??_C@_1M@BBPHKFPJ@?$AAh?$AAi?$AA?9?$AAi?$AAn@ 0000000180059a28     libucrtd:lcidtoname_downlevel.obj
 0002:0000ca38       ??_C@_1M@PMBNDPHD@?$AAh?$AAr?$AA?9?$AAb?$AAa@ 0000000180059a38     libucrtd:lcidtoname_downlevel.obj
 0002:0000ca48       ??_C@_1M@BPCKOEGE@?$AAh?$AAr?$AA?9?$AAh?$AAr@ 0000000180059a48     libucrtd:lcidtoname_downlevel.obj
 0002:0000ca58       ??_C@_1M@GACBMHKE@?$AAh?$AAu?$AA?9?$AAh?$AAu@ 0000000180059a58     libucrtd:lcidtoname_downlevel.obj
 0002:0000ca68       ??_C@_1M@MILPAJJC@?$AAh?$AAy?$AA?9?$AAa?$AAm@ 0000000180059a68     libucrtd:lcidtoname_downlevel.obj
 0002:0000ca78       ??_C@_1M@BABBICEC@?$AAi?$AAd?$AA?9?$AAi?$AAd@ 0000000180059a78     libucrtd:lcidtoname_downlevel.obj
 0002:0000ca88       ??_C@_1M@BIKNHHPF@?$AAi?$AAs?$AA?9?$AAi?$AAs@ 0000000180059a88     libucrtd:lcidtoname_downlevel.obj
 0002:0000ca98       ??_C@_1M@NMPCJPHE@?$AAi?$AAt?$AA?9?$AAc?$AAh@ 0000000180059a98     libucrtd:lcidtoname_downlevel.obj
 0002:0000caa8       ??_C@_1M@GHKGFEDF@?$AAi?$AAt?$AA?9?$AAi?$AAt@ 0000000180059aa8     libucrtd:lcidtoname_downlevel.obj
 0002:0000cab8       ??_C@_1M@NIEJCJJA@?$AAj?$AAa?$AA?9?$AAj?$AAp@ 0000000180059ab8     libucrtd:lcidtoname_downlevel.obj
 0002:0000cac8       ??_C@_1M@JILFNBIM@?$AAk?$AAa?$AA?9?$AAg?$AAe@ 0000000180059ac8     libucrtd:lcidtoname_downlevel.obj
 0002:0000cad8       ??_C@_1M@PACPMGPH@?$AAk?$AAk?$AA?9?$AAk?$AAz@ 0000000180059ad8     libucrtd:lcidtoname_downlevel.obj
 0002:0000cae8       ??_C@_1M@IELFGMHA@?$AAk?$AAn?$AA?9?$AAi?$AAn@ 0000000180059ae8     libucrtd:lcidtoname_downlevel.obj
 0002:0000caf8       ??_C@_1O@IBBJHCH@?$AAk?$AAo?$AAk?$AA?9?$AAi?$AAn@ 0000000180059af8     libucrtd:lcidtoname_downlevel.obj
 0002:0000cb08       ??_C@_1M@DMHAEOGC@?$AAk?$AAo?$AA?9?$AAk?$AAr@ 0000000180059b08     libucrtd:lcidtoname_downlevel.obj
 0002:0000cb18       ??_C@_1M@HBAHBIGA@?$AAk?$AAy?$AA?9?$AAk?$AAg@ 0000000180059b18     libucrtd:lcidtoname_downlevel.obj
 0002:0000cb28       ??_C@_1M@KPMILCJG@?$AAl?$AAt?$AA?9?$AAl?$AAt@ 0000000180059b28     libucrtd:lcidtoname_downlevel.obj
 0002:0000cb38       ??_C@_1M@BDEKKCA@?$AAl?$AAv?$AA?9?$AAl?$AAv@ 0000000180059b38     libucrtd:lcidtoname_downlevel.obj
 0002:0000cb48       ??_C@_1M@ELCKCCJJ@?$AAm?$AAi?$AA?9?$AAn?$AAz@ 0000000180059b48     libucrtd:lcidtoname_downlevel.obj
 0002:0000cb58       ??_C@_1M@CBOOLAPA@?$AAm?$AAk?$AA?9?$AAm?$AAk@ 0000000180059b58     libucrtd:lcidtoname_downlevel.obj
 0002:0000cb68       ??_C@_1M@GPHNBJKN@?$AAm?$AAl?$AA?9?$AAi?$AAn@ 0000000180059b68     libucrtd:lcidtoname_downlevel.obj
 0002:0000cb78       ??_C@_1M@PABJILIG@?$AAm?$AAn?$AA?9?$AAm?$AAn@ 0000000180059b78     libucrtd:lcidtoname_downlevel.obj
 0002:0000cb88       ??_C@_1M@FGBKKIPG@?$AAm?$AAr?$AA?9?$AAi?$AAn@ 0000000180059b88     libucrtd:lcidtoname_downlevel.obj
 0002:0000cb98       ??_C@_1M@NDBPDDAL@?$AAm?$AAs?$AA?9?$AAb?$AAn@ 0000000180059b98     libucrtd:lcidtoname_downlevel.obj
 0002:0000cba8       ??_C@_1M@OPIHOOPI@?$AAm?$AAs?$AA?9?$AAm?$AAy@ 0000000180059ba8     libucrtd:lcidtoname_downlevel.obj
 0002:0000cbb8       ??_C@_1M@PPDBCNFM@?$AAm?$AAt?$AA?9?$AAm?$AAt@ 0000000180059bb8     libucrtd:lcidtoname_downlevel.obj
 0002:0000cbc8       ??_C@_1M@KDJDKMDD@?$AAn?$AAb?$AA?9?$AAn?$AAo@ 0000000180059bc8     libucrtd:lcidtoname_downlevel.obj
 0002:0000cbd8       ??_C@_1M@KFCFLMJP@?$AAn?$AAl?$AA?9?$AAb?$AAe@ 0000000180059bd8     libucrtd:lcidtoname_downlevel.obj
 0002:0000cbe8       ??_C@_1M@KPOPDDGO@?$AAn?$AAl?$AA?9?$AAn?$AAl@ 0000000180059be8     libucrtd:lcidtoname_downlevel.obj
 0002:0000cbf8       ??_C@_1M@LJKPEMLN@?$AAn?$AAn?$AA?9?$AAn?$AAo@ 0000000180059bf8     libucrtd:lcidtoname_downlevel.obj
 0002:0000cc08       ??_C@_1M@BDGHHBFL@?$AAn?$AAs?$AA?9?$AAz?$AAa@ 0000000180059c08     libucrtd:lcidtoname_downlevel.obj
 0002:0000cc18       ??_C@_1M@IDEHOAP@?$AAp?$AAa?$AA?9?$AAi?$AAn@ 0000000180059c18     libucrtd:lcidtoname_downlevel.obj
 0002:0000cc28       ??_C@_1M@HDBKGOGH@?$AAp?$AAl?$AA?9?$AAp?$AAl@ 0000000180059c28     libucrtd:lcidtoname_downlevel.obj
 0002:0000cc38       ??_C@_1M@LJLLCMEH@?$AAp?$AAt?$AA?9?$AAb?$AAr@ 0000000180059c38     libucrtd:lcidtoname_downlevel.obj
 0002:0000cc48       ??_C@_1M@NCMONAAL@?$AAp?$AAt?$AA?9?$AAp?$AAt@ 0000000180059c48     libucrtd:lcidtoname_downlevel.obj
 0002:0000cc58       ??_C@_1O@EAKMAJDN@?$AAq?$AAu?$AAz?$AA?9?$AAb?$AAo@ 0000000180059c58     libucrtd:lcidtoname_downlevel.obj
 0002:0000cc68       ??_C@_1O@BHHPIGDN@?$AAq?$AAu?$AAz?$AA?9?$AAe?$AAc@ 0000000180059c68     libucrtd:lcidtoname_downlevel.obj
 0002:0000cc78       ??_C@_1O@GBAPEKMJ@?$AAq?$AAu?$AAz?$AA?9?$AAp?$AAe@ 0000000180059c78     libucrtd:lcidtoname_downlevel.obj
 0002:0000cc88       ??_C@_1M@CLGLEFBO@?$AAr?$AAo?$AA?9?$AAr?$AAo@ 0000000180059c88     libucrtd:lcidtoname_downlevel.obj
 0002:0000cc98       ??_C@_1M@CEEDODME@?$AAr?$AAu?$AA?9?$AAr?$AAu@ 0000000180059c98     libucrtd:lcidtoname_downlevel.obj
 0002:0000cca8       ??_C@_1M@HPKKKMPP@?$AAs?$AAa?$AA?9?$AAi?$AAn@ 0000000180059ca8     libucrtd:lcidtoname_downlevel.obj
 0002:0000ccb8       ??_C@_1M@BKMAIGOJ@?$AAs?$AAe?$AA?9?$AAf?$AAi@ 0000000180059cb8     libucrtd:lcidtoname_downlevel.obj
 0002:0000ccc8       ??_C@_1M@NDPIFLFI@?$AAs?$AAe?$AA?9?$AAn?$AAo@ 0000000180059cc8     libucrtd:lcidtoname_downlevel.obj
 0002:0000ccd8       ??_C@_1M@DANKKHJ@?$AAs?$AAe?$AA?9?$AAs?$AAe@ 0000000180059cd8     libucrtd:lcidtoname_downlevel.obj
 0002:0000cce8       ??_C@_1M@PNBLONPJ@?$AAs?$AAk?$AA?9?$AAs?$AAk@ 0000000180059ce8     libucrtd:lcidtoname_downlevel.obj
 0002:0000ccf8       ??_C@_1M@LFMODOAL@?$AAs?$AAl?$AA?9?$AAs?$AAi@ 0000000180059cf8     libucrtd:lcidtoname_downlevel.obj
 0002:0000cd08       ??_C@_1O@DFKOMPG@?$AAs?$AAm?$AAa?$AA?9?$AAn?$AAo@ 0000000180059d08     libucrtd:lcidtoname_downlevel.obj
 0002:0000cd18       ??_C@_1O@NDKPBNNH@?$AAs?$AAm?$AAa?$AA?9?$AAs?$AAe@ 0000000180059d18     libucrtd:lcidtoname_downlevel.obj
 0002:0000cd28       ??_C@_1O@PLLKBHAB@?$AAs?$AAm?$AAj?$AA?9?$AAn?$AAo@ 0000000180059d28     libucrtd:lcidtoname_downlevel.obj
 0002:0000cd38       ??_C@_1O@CLEPOGCA@?$AAs?$AAm?$AAj?$AA?9?$AAs?$AAe@ 0000000180059d38     libucrtd:lcidtoname_downlevel.obj
 0002:0000cd48       ??_C@_1O@DLGJGKMK@?$AAs?$AAm?$AAn?$AA?9?$AAf?$AAi@ 0000000180059d48     libucrtd:lcidtoname_downlevel.obj
 0002:0000cd58       ??_C@_1O@OJDJGAJC@?$AAs?$AAm?$AAs?$AA?9?$AAf?$AAi@ 0000000180059d58     libucrtd:lcidtoname_downlevel.obj
 0002:0000cd68       ??_C@_1M@BOFOGHPB@?$AAs?$AAq?$AA?9?$AAa?$AAl@ 0000000180059d68     libucrtd:lcidtoname_downlevel.obj
 0002:0000cd78       ??_C@_1BG@LJBBIPGB@?$AAs?$AAr?$AA?9?$AAb?$AAa?$AA?9?$AAc?$AAy?$AAr?$AAl@ 0000000180059d78     libucrtd:lcidtoname_downlevel.obj
 0002:0000cd90       ??_C@_1BG@JLBENFOE@?$AAs?$AAr?$AA?9?$AAb?$AAa?$AA?9?$AAl?$AAa?$AAt?$AAn@ 0000000180059d90     libucrtd:lcidtoname_downlevel.obj
 0002:0000cda8       ??_C@_1BG@KODPNHE@?$AAs?$AAr?$AA?9?$AAs?$AAp?$AA?9?$AAc?$AAy?$AAr?$AAl@ 0000000180059da8     libucrtd:lcidtoname_downlevel.obj
 0002:0000cdc0       ??_C@_1BG@CIOGKHPB@?$AAs?$AAr?$AA?9?$AAs?$AAp?$AA?9?$AAl?$AAa?$AAt?$AAn@ 0000000180059dc0     libucrtd:lcidtoname_downlevel.obj
 0002:0000cdd8       ??_C@_1M@NGFJLMAC@?$AAs?$AAv?$AA?9?$AAf?$AAi@ 0000000180059dd8     libucrtd:lcidtoname_downlevel.obj
 0002:0000cde8       ??_C@_1M@MPJEJAJC@?$AAs?$AAv?$AA?9?$AAs?$AAe@ 0000000180059de8     libucrtd:lcidtoname_downlevel.obj
 0002:0000cdf8       ??_C@_1M@MPNDHLFK@?$AAs?$AAw?$AA?9?$AAk?$AAe@ 0000000180059df8     libucrtd:lcidtoname_downlevel.obj
 0002:0000ce08       ??_C@_1O@KOHBJJI@?$AAs?$AAy?$AAr?$AA?9?$AAs?$AAy@ 0000000180059e08     libucrtd:lcidtoname_downlevel.obj
 0002:0000ce18       ??_C@_1M@LDCEFHA@?$AAt?$AAa?$AA?9?$AAi?$AAn@ 0000000180059e18     libucrtd:lcidtoname_downlevel.obj
 0002:0000ce28       ??_C@_1M@CNJOFAK@?$AAt?$AAe?$AA?9?$AAi?$AAn@ 0000000180059e28     libucrtd:lcidtoname_downlevel.obj
 0002:0000ce38       ??_C@_1M@GNAECACD@?$AAt?$AAh?$AA?9?$AAt?$AAh@ 0000000180059e38     libucrtd:lcidtoname_downlevel.obj
 0002:0000ce48       ??_C@_1M@CHBIHOJO@?$AAt?$AAn?$AA?9?$AAz?$AAa@ 0000000180059e48     libucrtd:lcidtoname_downlevel.obj
 0002:0000ce58       ??_C@_1M@GCCMIGPJ@?$AAt?$AAr?$AA?9?$AAt?$AAr@ 0000000180059e58     libucrtd:lcidtoname_downlevel.obj
 0002:0000ce68       ??_C@_1M@CELMCNBK@?$AAt?$AAt?$AA?9?$AAr?$AAu@ 0000000180059e68     libucrtd:lcidtoname_downlevel.obj
 0002:0000ce78       ??_C@_1M@KLMCELGA@?$AAu?$AAk?$AA?9?$AAu?$AAa@ 0000000180059e78     libucrtd:lcidtoname_downlevel.obj
 0002:0000ce88       ??_C@_1M@EPAJJAJF@?$AAu?$AAr?$AA?9?$AAp?$AAk@ 0000000180059e88     libucrtd:lcidtoname_downlevel.obj
 0002:0000ce98       ??_C@_1BG@GEGPMCDJ@?$AAu?$AAz?$AA?9?$AAu?$AAz?$AA?9?$AAc?$AAy?$AAr?$AAl@ 0000000180059e98     libucrtd:lcidtoname_downlevel.obj
 0002:0000ceb0       ??_C@_1BG@EGGKJILM@?$AAu?$AAz?$AA?9?$AAu?$AAz?$AA?9?$AAl?$AAa?$AAt?$AAn@ 0000000180059eb0     libucrtd:lcidtoname_downlevel.obj
 0002:0000cec8       ??_C@_1M@GFOCLFF@?$AAv?$AAi?$AA?9?$AAv?$AAn@ 0000000180059ec8     libucrtd:lcidtoname_downlevel.obj
 0002:0000ced8       ??_C@_1M@CPAMEDFI@?$AAx?$AAh?$AA?9?$AAz?$AAa@ 0000000180059ed8     libucrtd:lcidtoname_downlevel.obj
 0002:0000cee8       ??_C@_1O@EBKIFIGN@?$AAz?$AAh?$AA?9?$AAc?$AAh?$AAs@ 0000000180059ee8     libucrtd:lcidtoname_downlevel.obj
 0002:0000cef8       ??_C@_1O@NMHPGANE@?$AAz?$AAh?$AA?9?$AAc?$AAh?$AAt@ 0000000180059ef8     libucrtd:lcidtoname_downlevel.obj
 0002:0000cf08       ??_C@_1M@LPINJOMC@?$AAz?$AAh?$AA?9?$AAc?$AAn@ 0000000180059f08     libucrtd:lcidtoname_downlevel.obj
 0002:0000cf18       ??_C@_1M@OCJEJODD@?$AAz?$AAh?$AA?9?$AAh?$AAk@ 0000000180059f18     libucrtd:lcidtoname_downlevel.obj
 0002:0000cf28       ??_C@_1M@DNDLJINH@?$AAz?$AAh?$AA?9?$AAm?$AAo@ 0000000180059f28     libucrtd:lcidtoname_downlevel.obj
 0002:0000cf38       ??_C@_1M@MBFDNDND@?$AAz?$AAh?$AA?9?$AAs?$AAg@ 0000000180059f38     libucrtd:lcidtoname_downlevel.obj
 0002:0000cf48       ??_C@_1M@IMEPLEPE@?$AAz?$AAh?$AA?9?$AAt?$AAw@ 0000000180059f48     libucrtd:lcidtoname_downlevel.obj
 0002:0000cf58       ??_C@_1M@BBGHNHJP@?$AAz?$AAu?$AA?9?$AAz?$AAa@ 0000000180059f58     libucrtd:lcidtoname_downlevel.obj
 0002:0000cf68       ??_C@_0DB@JFFPGLDM@minkernel?2crts?2ucrt?2src?2appcrt?2@ 0000000180059f68     libucrtd:osfinfo.obj
 0002:0000cfa0       ??_C@_1EM@BPODPNEJ@?$AAs?$AAt?$AAa?$AAt?$AAi?$AAc?$AA_?$AAc?$AAa?$AAs?$AAt?$AA?$DM?$AAu?$AAn?$AAs@ 0000000180059fa0     libucrtd:osfinfo.obj
 0002:0000cff0       ??_C@_1GC@LDGKBAFM@?$AAm?$AAi?$AAn?$AAk?$AAe?$AAr?$AAn?$AAe?$AAl?$AA?2?$AAc?$AAr?$AAt?$AAs?$AA?2@ 0000000180059ff0     libucrtd:osfinfo.obj
 0002:0000d058       ??_C@_1DM@JELNOMLN@?$AA_?$AA_?$AAa?$AAc?$AAr?$AAt?$AA_?$AAl?$AAo?$AAw?$AAi?$AAo?$AA_?$AAe?$AAn@ 000000018005a058     libucrtd:osfinfo.obj
 0002:0000d0a0       ??_C@_1FK@MGHFJLAL@?$AAf?$AAh?$AA?5?$AA?$DO?$AA?$DN?$AA?5?$AA0?$AA?5?$AA?$CG?$AA?$CG?$AA?5?$AA?$CI?$AAu?$AAn?$AAs@ 000000018005a0a0     libucrtd:osfinfo.obj
 0002:0000d100       ??_C@_1BO@EMBOBGKE@?$AA_?$AAg?$AAe?$AAt?$AA_?$AAo?$AAs?$AAf?$AAh?$AAa?$AAn?$AAd?$AAl?$AAe@ 000000018005a100     libucrtd:osfinfo.obj
 0002:0000d120       ??_C@_1CI@ILOIOBLM@?$AA_?$AAo?$AAs?$AAf?$AAi?$AAl?$AAe?$AA?$CI?$AAf?$AAh?$AA?$CJ?$AA?5?$AA?$CG?$AA?5?$AAF@ 000000018005a120     libucrtd:osfinfo.obj
 0002:0000d150       __newctype                 000000018005a150     libucrtd:ctype.obj
 0002:0000d450       __newclmap                 000000018005a450     libucrtd:ctype.obj
 0002:0000d5d0       __newcumap                 000000018005a5d0     libucrtd:ctype.obj
 0002:0000d750       ??_C@_1FO@LPCLHKGE@?$AA?$CI?$AAf?$AAh?$AA?5?$AA?$DO?$AA?$DN?$AA?5?$AA0?$AA?5?$AA?$CG?$AA?$CG?$AA?5?$AA?$CI?$AAu?$AAn@ 000000018005a750     libucrtd:isatty.obj
 0002:0000d7b0       ??_C@_1GA@DEPMKPD@?$AAm?$AAi?$AAn?$AAk?$AAe?$AAr?$AAn?$AAe?$AAl?$AA?2?$AAc?$AAr?$AAt?$AAs?$AA?2@ 000000018005a7b0     libucrtd:isatty.obj
 0002:0000d810       ??_C@_1BA@LEBDGIHM@?$AA_?$AAi?$AAs?$AAa?$AAt?$AAt?$AAy@ 000000018005a810     libucrtd:isatty.obj
 0002:0000d898       ??_C@_1CA@EOJJMFA@?$AAc?$AAo?$AAm?$AAm?$AAo?$AAn?$AA_?$AAt?$AAc?$AAs?$AAc?$AAa?$AAt?$AA_?$AAs@ 000000018005a898     libucrtd:wcscat_s.obj
 0002:0000d8b8       ??_C@_1DM@FHLMIEG@?$AAS?$AAt?$AAr?$AAi?$AAn?$AAg?$AA?5?$AAi?$AAs?$AA?5?$AAn?$AAo?$AAt?$AA?5?$AAn@ 000000018005a8b8     libucrtd:wcscat_s.obj
 0002:0000d900       ??_C@_1FA@MJKDNFFB@?$AA?$CI?$AAL?$AA?$CC?$AAS?$AAt?$AAr?$AAi?$AAn?$AAg?$AA?5?$AAi?$AAs?$AA?5?$AAn?$AAo@ 000000018005a900     libucrtd:wcscat_s.obj
 0002:0000d950       ??_C@_1DE@BCNCAIK@?$AA?$CI?$AA?$CC?$AAI?$AAn?$AAv?$AAa?$AAl?$AAi?$AAd?$AA?5?$AAe?$AAr?$AAr?$AAo?$AAr@ 000000018005a950     libucrtd:set_error_mode.obj
 0002:0000d990       ??_C@_1GO@EBFPMMIJ@?$AAm?$AAi?$AAn?$AAk?$AAe?$AAr?$AAn?$AAe?$AAl?$AA?2?$AAc?$AAr?$AAt?$AAs?$AA?2@ 000000018005a990     libucrtd:set_error_mode.obj
 0002:0000da00       ??_C@_1CA@LFDHAMEM@?$AA_?$AAs?$AAe?$AAt?$AA_?$AAe?$AAr?$AAr?$AAo?$AAr?$AA_?$AAm?$AAo?$AAd?$AAe@ 000000018005aa00     libucrtd:set_error_mode.obj
 0002:0000da20       ??_C@_1CE@MCCHPLBM@?$AAb?$AAu?$AAf?$AAf?$AAe?$AAr?$AA?5?$AA?$CB?$AA?$DN?$AA?5?$AAn?$AAu?$AAl?$AAl?$AAp@ 000000018005aa20     libucrtd:_fptostr.obj
 0002:0000da50       ??_C@_1GI@IMEEHIAK@?$AAm?$AAi?$AAn?$AAk?$AAe?$AAr?$AAn?$AAe?$AAl?$AA?2?$AAc?$AAr?$AAt?$AAs?$AA?2@ 000000018005aa50     libucrtd:_fptostr.obj
 0002:0000dab8       ??_C@_1DG@NMGBKPMI@?$AA_?$AA_?$AAa?$AAc?$AAr?$AAt?$AA_?$AAf?$AAp?$AA_?$AAs?$AAt?$AAr?$AAf?$AAl@ 000000018005aab8     libucrtd:_fptostr.obj
 0002:0000daf0       ??_C@_1CC@ONIJBMJF@?$AAb?$AAu?$AAf?$AAf?$AAe?$AAr?$AA_?$AAc?$AAo?$AAu?$AAn?$AAt?$AA?5?$AA?$DO?$AA?5@ 000000018005aaf0     libucrtd:_fptostr.obj
 0002:0000db20       ??_C@_1IE@EAOKIIFP@?$AAb?$AAu?$AAf?$AAf?$AAe?$AAr?$AA_?$AAc?$AAo?$AAu?$AAn?$AAt?$AA?5?$AA?$DO?$AA?5@ 000000018005ab20     libucrtd:_fptostr.obj
 0002:0000dba8       ??_C@_1CA@EDEEBMBB@?$AAp?$AAf?$AAl?$AAt?$AA?5?$AA?$CB?$AA?$DN?$AA?5?$AAn?$AAu?$AAl?$AAl?$AAp?$AAt?$AAr@ 000000018005aba8     libucrtd:_fptostr.obj
 0002:0000dbd0       ?large_power_data@?1??multiply_by_power_of_ten@__crt_strtox@@YA_NAEAUbig_integer@2@I@Z@4QBIB 000000018005abd0     libucrtd:cfout.obj
 0002:0000e4e0       ?large_power_indices@?1??multiply_by_power_of_ten@__crt_strtox@@YA_NAEAUbig_integer@2@I@Z@4QBUunpack_index@?1??12@YA_N0I@Z@B 000000018005b4e0     libucrtd:cfout.obj
 0002:0000e578       ?small_powers_of_ten@?1??multiply_by_power_of_ten@__crt_strtox@@YA_NAEAUbig_integer@2@I@Z@4QBIB 000000018005b578     libucrtd:cfout.obj
 0002:0000e5a0       ??_C@_1DI@GICAMMFM@?$AA?$CI?$AA?$CC?$AAD?$AAi?$AAv?$AAi?$AAs?$AAi?$AAo?$AAn?$AA?5?$AAb?$AAy?$AA?5?$AAz@ 000000018005b5a0     libucrtd:cfout.obj
 0002:0000e5e0       ??_C@_1GO@BFGDDONN@?$AAm?$AAi?$AAn?$AAk?$AAe?$AAr?$AAn?$AAe?$AAl?$AA?2?$AAc?$AAr?$AAt?$AAs?$AA?2@ 000000018005b5e0     libucrtd:cfout.obj
 0002:0000e650       ??_C@_1GC@DDAKNBNC@?$AAm?$AAi?$AAn?$AAk?$AAe?$AAr?$AAn?$AAe?$AAl?$AA?2?$AAc?$AAr?$AAt?$AAs?$AA?2@ 000000018005b650     libucrtd:cfout.obj
 0002:0000e6b8       ??_C@_1BM@FAAOAKKO@?$AA_?$AA_?$AAa?$AAc?$AAr?$AAt?$AA_?$AAf?$AAl?$AAt?$AAo?$AAu?$AAt@ 000000018005b6b8     libucrtd:cfout.obj
 0002:0000e6e0       ??_C@_1EI@OACEJKEP@?$AAs?$AAt?$AAr?$AAc?$AAp?$AAy?$AA_?$AAs?$AA?$CI?$AAr?$AAe?$AAs?$AAu?$AAl?$AAt@ 000000018005b6e0     libucrtd:cfout.obj
 0002:0000e728       ??_C@_01GBGANLPD@0@        000000018005b728     libucrtd:cfout.obj
 0002:0000e730       ??_C@_1FC@KIECGFMP@?$AAs?$AAt?$AAr?$AAc?$AAp?$AAy?$AA_?$AAs?$AA?$CI?$AAr?$AAe?$AAs?$AAu?$AAl?$AAt@ 000000018005b730     libucrtd:cfout.obj
 0002:0000e784       ??_C@_05DNEBIAHO@1?$CDINF@ 000000018005b784     libucrtd:cfout.obj
 0002:0000e790       ??_C@_1FC@NFPJEIBD@?$AAs?$AAt?$AAr?$AAc?$AAp?$AAy?$AA_?$AAs?$AA?$CI?$AAr?$AAe?$AAs?$AAu?$AAl?$AAt@ 000000018005b790     libucrtd:cfout.obj
 0002:0000e7e4       ??_C@_06IMKFLFPG@1?$CDQNAN@ 000000018005b7e4     libucrtd:cfout.obj
 0002:0000e7f0       ??_C@_1FC@DEJHIMLO@?$AAs?$AAt?$AAr?$AAc?$AAp?$AAy?$AA_?$AAs?$AA?$CI?$AAr?$AAe?$AAs?$AAu?$AAl?$AAt@ 000000018005b7f0     libucrtd:cfout.obj
 0002:0000e844       ??_C@_06PGGFOGJG@1?$CDSNAN@ 000000018005b844     libucrtd:cfout.obj
 0002:0000e850       ??_C@_1FC@KMLHLFPC@?$AAs?$AAt?$AAr?$AAc?$AAp?$AAy?$AA_?$AAs?$AA?$CI?$AAr?$AAe?$AAs?$AAu?$AAl?$AAt@ 000000018005b850     libucrtd:cfout.obj
 0002:0000e8a4       ??_C@_05PHHOCPM@1?$CDIND@  000000018005b8a4     libucrtd:cfout.obj
 0002:0000e8b0       ??_C@_1DE@KHKADFOO@?$AAm?$AAa?$AAn?$AAt?$AAi?$AAs?$AAs?$AAa?$AA_?$AAb?$AAu?$AAf?$AAf?$AAe?$AAr@ 000000018005b8b0     libucrtd:cfout.obj
 0002:0000e8f0       ??_C@_1FI@LFKLOPAC@?$AA?$CI?$AA?$CC?$AAu?$AAn?$AAe?$AAx?$AAp?$AAe?$AAc?$AAt?$AAe?$AAd?$AA?5?$AAi?$AAn@ 000000018005b8f0     libucrtd:cfout.obj
 0002:0000e950       ??_C@_1FG@MLHBDPBG@?$AAq?$AAu?$AAo?$AAt?$AAi?$AAe?$AAn?$AAt?$AA?5?$AA?$DM?$AA?5?$AAd?$AAi?$AAg?$AAi@ 000000018005b950     libucrtd:cfout.obj
 0002:0000e9b0       ??_C@_1EK@OANGPA@?$AA1?$AA?5?$AA?$DM?$AA?$DN?$AA?5?$AAt?$AAr?$AAa?$AAi?$AAl?$AA_?$AAb?$AAy?$AAt?$AAe@ 000000018005b9b0     libucrtd:c32rtomb.obj
 0002:0000ea00       ??_C@_1GI@FBFKMNDD@?$AAm?$AAi?$AAn?$AAk?$AAe?$AAr?$AAn?$AAe?$AAl?$AA?2?$AAc?$AAr?$AAt?$AAs?$AA?2@ 000000018005ba00     libucrtd:c32rtomb.obj
 0002:0000ea70       ??_C@_1EA@DDDCIHI@?$AAc?$AA3?$AA2?$AA?5?$AA?$DM?$AA?5?$AA?$CI?$AA1?$AAu?$AA?5?$AA?$DM?$AA?$DM?$AA?5?$AA?$CI?$AA7@ 000000018005ba70     libucrtd:c32rtomb.obj
 0002:0000eab0       ??_C@_1GG@MCCIENJO@?$AAm?$AAi?$AAn?$AAk?$AAe?$AAr?$AAn?$AAe?$AAl?$AA?2?$AAc?$AAr?$AAt?$AAs?$AA?2@ 000000018005bab0     libucrtd:mbrtowc.obj
 0002:0000eb20       ??_C@_1EK@MCEFBPIK@?$AAr?$AAe?$AAt?$AAv?$AAa?$AAl?$AA?5?$AA?$CB?$AA?$DN?$AA?5?$AA_?$AA_?$AAc?$AAr?$AAt@ 000000018005bb20     libucrtd:mbrtowc.obj
 0002:0000eb70       ??_C@_1GE@GPOPIOIG@?$AAm?$AAi?$AAn?$AAk?$AAe?$AAr?$AAn?$AAe?$AAl?$AA?2?$AAc?$AAr?$AAt?$AAs?$AA?2@ 000000018005bb70     libucrtd:_freebuf.obj
 0002:0000ebe0       ??_C@_1GA@HBEFGMHK@?$AAm?$AAi?$AAn?$AAk?$AAe?$AAr?$AAn?$AAe?$AAl?$AA?2?$AAc?$AAr?$AAt?$AAs?$AA?2@ 000000018005bbe0     libucrtd:xtoa.obj
 0002:0000ec40       ??_C@_1BM@HMPEMLNP@?$AAc?$AAo?$AAm?$AAm?$AAo?$AAn?$AA_?$AAx?$AAt?$AAo?$AAx?$AA_?$AAs@ 000000018005bc40     libucrtd:xtoa.obj
 0002:0000ec60       ??_C@_1HA@JFIOFNKD@?$AAb?$AAu?$AAf?$AAf?$AAe?$AAr?$AA_?$AAc?$AAo?$AAu?$AAn?$AAt?$AA?5?$AA?$DO?$AA?5@ 000000018005bc60     libucrtd:xtoa.obj
 0002:0000ecd0       ??_C@_1DE@PCJGDBBD@?$AA2?$AA?5?$AA?$DM?$AA?$DN?$AA?5?$AAr?$AAa?$AAd?$AAi?$AAx?$AA?5?$AA?$CG?$AA?$CG?$AA?5?$AAr@ 000000018005bcd0     libucrtd:xtoa.obj
 0002:0000ed08       ??_C@_1CM@LONILNIJ@?$AAl?$AAe?$AAn?$AAg?$AAt?$AAh?$AA?5?$AA?$DM?$AA?5?$AAb?$AAu?$AAf?$AAf?$AAe?$AAr@ 000000018005bd08     libucrtd:xtoa.obj
 0002:0000ed38       ??_C@_1BI@OLPLFKOE@?$AAc?$AAo?$AAm?$AAm?$AAo?$AAn?$AA_?$AAx?$AAt?$AAo?$AAx@ 000000018005bd38     libucrtd:xtoa.obj
 0002:0000ed78       ??_C@_1BK@FPAMLIDG@?$AAs?$AA?5?$AA?$CB?$AA?$DN?$AA?5?$AAn?$AAu?$AAl?$AAl?$AAp?$AAt?$AAr@ 000000018005bd78     libucrtd:mbstowcs.obj
 0002:0000eda0       ??_C@_1GI@KABMHNPH@?$AAm?$AAi?$AAn?$AAk?$AAe?$AAr?$AAn?$AAe?$AAl?$AA?2?$AAc?$AAr?$AAt?$AAs?$AA?2@ 000000018005bda0     libucrtd:mbstowcs.obj
 0002:0000ee08       ??_C@_1CG@JEHFHLNG@?$AA_?$AAm?$AAb?$AAs?$AAt?$AAo?$AAw?$AAc?$AAs?$AA_?$AAl?$AA_?$AAh?$AAe?$AAl@ 000000018005be08     libucrtd:mbstowcs.obj
 0002:0000ee30       ??_C@_1JM@MEKBACIG@?$AA?$CI?$AAp?$AAw?$AAc?$AAs?$AA?5?$AA?$DN?$AA?$DN?$AA?5?$AAn?$AAu?$AAl?$AAl?$AAp?$AAt@ 000000018005be30     libucrtd:mbstowcs.obj
 0002:0000eed0       ??_C@_1CG@BILJJDPK@?$AA_?$AAm?$AAb?$AAs?$AAt?$AAo?$AAw?$AAc?$AAs?$AA_?$AAi?$AAn?$AAt?$AAe?$AAr@ 000000018005bed0     libucrtd:mbstowcs.obj
 0002:0000eef8       ??_C@_1CM@LLECFMFH@?$AAb?$AAu?$AAf?$AAf?$AAe?$AAr?$AAS?$AAi?$AAz?$AAe?$AA?5?$AA?$DM?$AA?$DN?$AA?5?$AAI@ 000000018005bef8     libucrtd:mbstowcs.obj
 0002:0000ef28       ??_C@_1CO@JNPEPJAL@?$AAr?$AAe?$AAt?$AAs?$AAi?$AAz?$AAe?$AA?5?$AA?$DM?$AA?$DN?$AA?5?$AAs?$AAi?$AAz?$AAe@ 000000018005bf28     libucrtd:mbstowcs.obj
 0002:0000ef58       ??_C@_1CA@NOKNKDIG@?$AAp?$AAw?$AAc?$AAs?$AA?5?$AA?$CB?$AA?$DN?$AA?5?$AAn?$AAu?$AAl?$AAl?$AAp?$AAt?$AAr@ 000000018005bf58     libucrtd:wcstombs.obj
 0002:0000ef80       ??_C@_1GI@EEJDEALP@?$AAm?$AAi?$AAn?$AAk?$AAe?$AAr?$AAn?$AAe?$AAl?$AA?2?$AAc?$AAr?$AAt?$AAs?$AA?2@ 000000018005bf80     libucrtd:wcstombs.obj
 0002:0000efe8       ??_C@_1CG@LLJCAOHF@?$AA_?$AAw?$AAc?$AAs?$AAt?$AAo?$AAm?$AAb?$AAs?$AA_?$AAl?$AA_?$AAh?$AAe?$AAl@ 000000018005bfe8     libucrtd:wcstombs.obj
 0002:0000f010       ??_C@_1JI@DFNKFCLG@?$AA?$CI?$AAd?$AAs?$AAt?$AA?5?$AA?$CB?$AA?$DN?$AA?5?$AAn?$AAu?$AAl?$AAl?$AAp?$AAt?$AAr@ 000000018005c010     libucrtd:wcstombs.obj
 0002:0000f0a8       ??_C@_1CG@DHFOOGFJ@?$AA_?$AAw?$AAc?$AAs?$AAt?$AAo?$AAm?$AAb?$AAs?$AA_?$AAi?$AAn?$AAt?$AAe?$AAr@ 000000018005c0a8     libucrtd:wcstombs.obj
 0002:0000f0d0       ??_C@_1CM@KEOGBFLI@?$AAs?$AAi?$AAz?$AAe?$AAI?$AAn?$AAB?$AAy?$AAt?$AAe?$AAs?$AA?5?$AA?$DO?$AA?5?$AAr@ 000000018005c0d0     libucrtd:wcstombs.obj
 0002:0000f130       ??_C@_1JE@ECKHFIFP@?$AA?$CI?$AA?$CC?$AAI?$AAn?$AAv?$AAa?$AAl?$AAi?$AAd?$AA?5?$AAf?$AAi?$AAl?$AAe?$AA?5@ 000000018005c130     libucrtd:commit.obj
 0002:0000f1d0       ??_C@_1GA@MPOOLHCO@?$AAm?$AAi?$AAn?$AAk?$AAe?$AAr?$AAn?$AAe?$AAl?$AA?2?$AAc?$AAr?$AAt?$AAs?$AA?2@ 000000018005c1d0     libucrtd:commit.obj
 0002:0000f230       ??_C@_1BA@FLNMBBIM@?$AA_?$AAc?$AAo?$AAm?$AAm?$AAi?$AAt@ 000000018005c230     libucrtd:commit.obj
 0002:0000f240       ??_C@_1CM@OKGMMMDH@?$AA?$CI?$AA_?$AAo?$AAs?$AAf?$AAi?$AAl?$AAe?$AA?$CI?$AAf?$AAh?$AA?$CJ?$AA?5?$AA?$CG?$AA?5@ 000000018005c240     libucrtd:commit.obj
 0002:0000f2a0       ??_C@_1FO@CAMPMGCN@?$AAm?$AAi?$AAn?$AAk?$AAe?$AAr?$AAn?$AAe?$AAl?$AA?2?$AAc?$AAr?$AAt?$AAs?$AA?2@ 000000018005c2a0     libucrtd:write.obj
 0002:0000f300       ??_C@_1CA@PNHCPGNO@?$AA_?$AAw?$AAr?$AAi?$AAt?$AAe?$AA_?$AAi?$AAn?$AAt?$AAe?$AAr?$AAn?$AAa?$AAl@ 000000018005c300     libucrtd:write.obj
 0002:0000f320       ??_C@_1CK@MMEFCHHN@?$AA?$CB?$AA_?$AAd?$AAb?$AAc?$AAs?$AAB?$AAu?$AAf?$AAf?$AAe?$AAr?$AAU?$AAs?$AAe@ 000000018005c320     libucrtd:write.obj
 0002:0000f350       ??_C@_1EG@LICJGLJJ@?$AA1?$AA?5?$AA?$DM?$AA?5?$AAm?$AAb?$AA_?$AAl?$AAe?$AAn?$AA?5?$AA?$CG?$AA?$CG?$AA?5?$AAm@ 000000018005c350     libucrtd:write.obj
 0002:0000f3a0       ??_C@_1FC@NFILPJB@?$AAm?$AAb?$AA_?$AAb?$AAu?$AAf?$AA_?$AAu?$AAs?$AAe?$AAd?$AA?5?$AA?$CL?$AA?5?$AAb@ 000000018005c3a0     libucrtd:write.obj
 0002:0000f400       ??_C@_1FC@HEJOPHLA@?$AAa?$AAv?$AAa?$AAi?$AAl?$AAa?$AAb?$AAl?$AAe?$AA_?$AAb?$AAy?$AAt?$AAe?$AAs@ 000000018005c400     libucrtd:write.obj
 0002:0000f460       ??_C@_1GG@JOGHJGBM@?$AA_?$AAi?$AAs?$AAl?$AAe?$AAa?$AAd?$AAb?$AAy?$AAt?$AAe?$AA_?$AAf?$AAa?$AAs@ 000000018005c460     libucrtd:write.obj
 0002:0000f4c8       ??_C@_1BM@NCANHCIP@?$AA_?$AAw?$AAr?$AAi?$AAt?$AAe?$AA_?$AAn?$AAo?$AAl?$AAo?$AAc?$AAk@ 000000018005c4c8     libucrtd:write.obj
 0002:0000f4e8       ??_C@_1CK@CPEAGIIP@?$AAb?$AAu?$AAf?$AAf?$AAe?$AAr?$AA_?$AAs?$AAi?$AAz?$AAe?$AA?5?$AA?$CF?$AA?5?$AA2@ 000000018005c4e8     libucrtd:write.obj
 0002:0000f770       __real@3ff0000000000000    000000018005c770     libucrtd:ceil.obj
 0002:0000f778       ??_C@_1DG@JNDMIEJL@?$AA?$CI?$AA?$CC?$AAI?$AAn?$AAv?$AAa?$AAl?$AAi?$AAd?$AA?5?$AAi?$AAn?$AAp?$AAu?$AAt@ 000000018005c778     libucrtd:contrlfp.obj
 0002:0000f7b0       ??_C@_1FO@HHLKCIKB@?$AAm?$AAi?$AAn?$AAk?$AAe?$AAr?$AAn?$AAe?$AAl?$AA?2?$AAc?$AAr?$AAt?$AAs?$AA?2@ 000000018005c7b0     libucrtd:contrlfp.obj
 0002:0000f810       ??_C@_1BK@CDOALEA@?$AA_?$AAc?$AAo?$AAn?$AAt?$AAr?$AAo?$AAl?$AAf?$AAp?$AA_?$AAs@ 000000018005c810     libucrtd:contrlfp.obj
 0002:0000f830       ??_C@_1GA@DKNOMDCL@?$AAm?$AAi?$AAn?$AAk?$AAe?$AAr?$AAn?$AAe?$AAl?$AA?2?$AAc?$AAr?$AAt?$AAs?$AA?2@ 000000018005c830     libucrtd:fclose.obj
 0002:0000f890       ??_C@_1DA@IHIKPHIN@?$AA_?$AAf?$AAc?$AAl?$AAo?$AAs?$AAe?$AA_?$AAn?$AAo?$AAl?$AAo?$AAc?$AAk?$AA_@ 000000018005c890     libucrtd:fclose.obj
 0002:0000f8c0       ??_C@_1CC@LPELGHFC@?$AA_?$AAf?$AAc?$AAl?$AAo?$AAs?$AAe?$AA_?$AAi?$AAn?$AAt?$AAe?$AAr?$AAn?$AAa@ 000000018005c8c0     libucrtd:fclose.obj
 0002:0000f8f0       ??_C@_1FO@KIIHJNFN@?$AAm?$AAi?$AAn?$AAk?$AAe?$AAr?$AAn?$AAe?$AAl?$AA?2?$AAc?$AAr?$AAt?$AAs?$AA?2@ 000000018005c8f0     libucrtd:lseek.obj
 0002:0000f950       ??_C@_1DM@LMLOLGJ@?$AA?$CI?$AA?$CC?$AAI?$AAn?$AAv?$AAa?$AAl?$AAi?$AAd?$AA?5?$AAf?$AAi?$AAl?$AAe?$AA?5@ 000000018005c950     libucrtd:lseek.obj
 0002:0000f990       __log10_256_lead           000000018005c990     libucrtd:log10_256_lead_tail_table.obj
 0002:000101a0       __log10_256_tail           000000018005d1a0     libucrtd:log10_256_lead_tail_table.obj
 0002:000109b0       __log_F_inv_qword          000000018005d9b0     libucrtd:log_f_inv_qword_table.obj
 0002:000111c0       ??_C@_1EK@PDBKILLM@?$AA?$CI?$AAm?$AAa?$AAs?$AAk?$AA?$CG?$AA?$HO?$AA?$CI?$AA_?$AAM?$AAC?$AAW?$AA_?$AAD?$AAN@ 000000018005e1c0     libucrtd:ieee.obj
 0002:00011210       ??_C@_1GC@IEFABLII@?$AAm?$AAi?$AAn?$AAk?$AAe?$AAr?$AAn?$AAe?$AAl?$AA?2?$AAc?$AAr?$AAt?$AAs?$AA?2@ 000000018005e210     libucrtd:ieee.obj
 0002:000112a0       ??_C@_1FO@IPDGALOE@?$AAm?$AAi?$AAn?$AAk?$AAe?$AAr?$AAn?$AAe?$AAl?$AA?2?$AAc?$AAr?$AAt?$AAs?$AA?2@ 000000018005e2a0     libucrtd:close.obj
 0002:00011300       ??_C@_1CA@GBJHJLEM@?$AA_?$AAc?$AAl?$AAo?$AAs?$AAe?$AA_?$AAi?$AAn?$AAt?$AAe?$AAr?$AAn?$AAa?$AAl@ 000000018005e300     libucrtd:close.obj
 0002:00011348       ??_C@_1BA@BALFACEM@?$AAC?$AAO?$AAN?$AAO?$AAU?$AAT?$AA$@ 000000018005e348     libucrtd:initcon.obj
 0002:00011360       ??_7type_info@@6B@         000000018005e360     LIBCMTD:std_type_info_static.obj
 0002:00011370       __xmm@00000000000000000000000000000000 000000018005e370     libvcruntimed:strchr.obj
 0002:00011380       _load_config_used          000000018005e380     LIBCMTD:loadcfg.obj
 0002:00011680       ??_R4exception@std@@6B@    000000018005e680     libvcruntimed:frame.obj
 0002:000116a8       ??_R3exception@std@@8      000000018005e6a8     libvcruntimed:frame.obj
 0002:000116c0       ??_R2exception@std@@8      000000018005e6c0     libvcruntimed:frame.obj
 0002:000116d0       ??_R1A@?0A@EA@exception@std@@8 000000018005e6d0     libvcruntimed:frame.obj
 0002:000116f8       ??_R4bad_exception@std@@6B@ 000000018005e6f8     libvcruntimed:frame.obj
 0002:00011720       ??_R3bad_exception@std@@8  000000018005e720     libvcruntimed:frame.obj
 0002:00011738       ??_R2bad_exception@std@@8  000000018005e738     libvcruntimed:frame.obj
 0002:00011750       ??_R1A@?0A@EA@bad_exception@std@@8 000000018005e750     libvcruntimed:frame.obj
 0002:00011778       ??_R4type_info@@6B@        000000018005e778     LIBCMTD:std_type_info_static.obj
 0002:000117a0       ??_R3type_info@@8          000000018005e7a0     LIBCMTD:std_type_info_static.obj
 0002:000117b8       ??_R2type_info@@8          000000018005e7b8     LIBCMTD:std_type_info_static.obj
 0002:000117c8       ??_R1A@?0A@EA@type_info@@8 000000018005e7c8     LIBCMTD:std_type_info_static.obj
 0002:000117ec       __volatile_metadata        000000018005e7ec     <linker-defined>
 0002:000120e8       __rtc_iaa                  000000018005f0e8     LIBCMTD:initsect.obj
 0002:000120f0       __rtc_izz                  000000018005f0f0     LIBCMTD:initsect.obj
 0002:000120f8       __rtc_taa                  000000018005f0f8     LIBCMTD:initsect.obj
 0002:00012100       __rtc_tzz                  000000018005f100     LIBCMTD:initsect.obj
 0002:00013850       _TI2?AVbad_exception@std@@ 0000000180060850     libvcruntimed:frame.obj
 0002:00013870       _CTA2?AVbad_exception@std@@ 0000000180060870     libvcruntimed:frame.obj
 0002:00013888       _CT??_R0?AVbad_exception@std@@@8??0bad_exception@std@@QEAA@AEBV01@@Z24 0000000180060888     libvcruntimed:frame.obj
 0002:000138b0       _CT??_R0?AVexception@std@@@8??0exception@std@@QEAA@AEBV01@@Z24 00000001800608b0     libvcruntimed:frame.obj
 0002:00013954       __IMPORT_DESCRIPTOR_KERNEL32 0000000180060954     kernel32:KERNEL32.dll
 0002:00013968       __NULL_IMPORT_DESCRIPTOR   0000000180060968     kernel32:KERNEL32.dll
 0003:00004000       __security_cookie          0000000180066000     LIBCMTD:gs_cookie.obj
 0003:00004040       __security_cookie_complement 0000000180066040     LIBCMTD:gs_cookie.obj
 0003:00004048       _fltused                   0000000180066048     LIBCMTD:fltused.obj
 0003:0000404c       __scrt_native_dllmain_reason 000000018006604c     LIBCMTD:utility.obj
 0003:00004050       __isa_available            0000000180066050     LIBCMTD:cpu_disp.obj
 0003:00004054       __isa_enabled              0000000180066054     LIBCMTD:cpu_disp.obj
 0003:00004058       __memset_fast_string_threshold 0000000180066058     LIBCMTD:cpu_disp.obj
 0003:00004060       __memset_nt_threshold      0000000180066060     LIBCMTD:cpu_disp.obj
 0003:00004084       _crtDbgFlag                0000000180066084     libucrtd:debug_heap.obj
 0003:00004088       _crtBreakAlloc             0000000180066088     libucrtd:debug_heap.obj
 0003:00004090       __abort_behavior           0000000180066090     libucrtd:abort.obj
 0003:000040c0       __acrt_initial_multibyte_data 00000001800660c0     libucrtd:mbctype.obj
 0003:00004600       __acrt_initial_locale_data 0000000180066600     libucrtd:nlsdata.obj
 0003:00004758       __acrt_initial_locale_pointers 0000000180066758     libucrtd:nlsdata.obj
 0003:00004768       __acrt_wide_c_locale_string 0000000180066768     libucrtd:nlsdata.obj
 0003:00004770       _pfnAllocHook              0000000180066770     libucrtd:debug_heap_hook.obj
 0003:00004780       _iob                       0000000180066780     libucrtd:_file.obj
 0003:00004888       _crtAssertBusy             0000000180066888     libucrtd:dbgrptt.obj
 0003:00004890       _CrtDbgMode                0000000180066890     libucrtd:dbgrptt.obj
 0003:000048a0       _CrtDbgFile                00000001800668a0     libucrtd:dbgrptt.obj
 0003:000048c0       __globallocalestatus       00000001800668c0     libucrtd:glstatus.obj
 0003:000048d0       __acrt_lconv_c             00000001800668d0     libucrtd:localeconv.obj
 0003:00004968       __acrt_lconv_static_decimal 0000000180066968     libucrtd:localeconv.obj
 0003:0000496c       __acrt_lconv_static_W_decimal 000000018006696c     libucrtd:localeconv.obj
 0003:00004970       _lookuptrailbytes          0000000180066970     libucrtd:read.obj
 0003:00004a80       ??_R0?AVbad_exception@std@@@8 0000000180066a80     libvcruntimed:frame.obj
 0003:00004aa8       ??_R0?AVexception@std@@@8  0000000180066aa8     libvcruntimed:frame.obj
 0003:00004ad0       ??_R0?AVtype_info@@@8      0000000180066ad0     LIBCMTD:std_type_info_static.obj
 0003:00005070       ?__type_info_root_node@@3U__type_info_node@@A 0000000180067070     LIBCMTD:tncleanup.obj
 0003:00005080       ?_OptionsStorage@?1??__local_stdio_printf_options@@9@4_KA 0000000180067080     LIBCMTD:default_local_stdio_options.obj
 0003:00005088       ?_OptionsStorage@?1??__local_stdio_scanf_options@@9@4_KA 0000000180067088     LIBCMTD:default_local_stdio_options.obj
 0003:00005090       __scrt_current_native_startup_state 0000000180067090     LIBCMTD:utility.obj
 0003:00005098       __scrt_native_startup_lock 0000000180067098     LIBCMTD:utility.obj
 0003:000050d8       __scrt_debugger_hook_flag  00000001800670d8     LIBCMTD:utility_desktop.obj
 0003:000050dc       __favor                    00000001800670dc     LIBCMTD:cpu_disp.obj
 0003:000050e0       ?__WinRTOutOfMemoryExceptionCallback@@3P6APEAXXZEA 00000001800670e0     libvcruntimed:ehhelpers.obj
 0003:000050e8       ?pArgList@UnDecorator@@0PEAVReplicator@@EA 00000001800670e8     libvcruntimed:undname.obj
 0003:000050f0       ?pZNameList@UnDecorator@@0PEAVReplicator@@EA 00000001800670f0     libvcruntimed:undname.obj
 0003:000050f8       ?pTemplateArgList@UnDecorator@@0PEAVReplicator@@EA 00000001800670f8     libvcruntimed:undname.obj
 0003:00005100       ?gName@UnDecorator@@0PEBDEB 0000000180067100     libvcruntimed:undname.obj
 0003:00005108       ?name@UnDecorator@@0PEBDEB 0000000180067108     libvcruntimed:undname.obj
 0003:00005110       ?disableFlags@UnDecorator@@0KA 0000000180067110     libvcruntimed:undname.obj
 0003:00005114       ?fExplicitTemplateParams@UnDecorator@@0_NA 0000000180067114     libvcruntimed:undname.obj
 0003:00005115       ?fGetTemplateArgumentList@UnDecorator@@0_NA 0000000180067115     libvcruntimed:undname.obj
 0003:00005118       ?m_pGetParameter@UnDecorator@@0P6APEADJ@ZEA 0000000180067118     libvcruntimed:undname.obj
 0003:00005120       ?m_CHPENameOffset@UnDecorator@@0KA 0000000180067120     libvcruntimed:undname.obj
 0003:00005124       ?m_recursionLevel@UnDecorator@@0KA 0000000180067124     libvcruntimed:undname.obj
 0003:00005240       __pPurecall                0000000180067240     libvcruntimed:purevirt_data.obj
 0003:00005368       _environ_table             0000000180067368     libucrtd:environment_initialization.obj
 0003:00005370       _wenviron_table            0000000180067370     libucrtd:environment_initialization.obj
 0003:00005378       __dcrt_initial_wide_environment 0000000180067378     libucrtd:environment_initialization.obj
 0003:00005380       __dcrt_initial_narrow_environment 0000000180067380     libucrtd:environment_initialization.obj
 0003:00005388       __acrt_atexit_table        0000000180067388     libucrtd:onexit.obj
 0003:000053a0       __acrt_at_quick_exit_table 00000001800673a0     libucrtd:onexit.obj
 0003:000053e8       _pfnDumpClient             00000001800673e8     libucrtd:debug_heap.obj
 0003:00005400       __fma3_is_available        0000000180067400     libucrtd:fma3_available.obj
 0003:00005404       __use_fma3_lib             0000000180067404     libucrtd:fma3_available.obj
 0003:00005650       _mbctype                   0000000180067650     libucrtd:mbctype.obj
 0003:00005658       _mbcasemap                 0000000180067658     libucrtd:mbctype.obj
 0003:00005660       __acrt_current_multibyte_data 0000000180067660     libucrtd:mbctype.obj
 0003:00005670       _pgmptr                    0000000180067670     libucrtd:argv_data.obj
 0003:00005678       __argc                     0000000180067678     libucrtd:argv_data.obj
 0003:00005680       __argv                     0000000180067680     libucrtd:argv_data.obj
 0003:00005688       __wargv                    0000000180067688     libucrtd:argv_data.obj
 0003:00005690       _acmdln                    0000000180067690     libucrtd:argv_data.obj
 0003:00005698       _wcmdln                    0000000180067698     libucrtd:argv_data.obj
 0003:00005848       __acrt_heap                0000000180067848     libucrtd:heap_handle.obj
 0003:00005850       __pioinfo                  0000000180067850     libucrtd:ioinit.obj
 0003:00005c50       _nhandle                   0000000180067c50     libucrtd:ioinit.obj
 0003:00005c88       __acrt_current_locale_data 0000000180067c88     libucrtd:nlsdata.obj
 0003:00005c90       __acrt_stdout_buffer       0000000180067c90     libucrtd:_sftbuf.obj
 0003:00005c98       __acrt_stderr_buffer       0000000180067c98     libucrtd:_sftbuf.obj
 0003:00005ca4       __acrt_locale_changed_data 0000000180067ca4     libucrtd:wsetlocale.obj
 0003:000062e0       _nstream                   00000001800682e0     libucrtd:_file.obj
 0003:000062e8       __piob                     00000001800682e8     libucrtd:_file.obj
 0003:000062f8       _pfnReportHook             00000001800682f8     libucrtd:dbgrptt.obj
 0003:00006300       _pReportHookList           0000000180068300     libucrtd:dbgrptt.obj
 0003:00006308       _pReportHookListW          0000000180068308     libucrtd:dbgrptt.obj
 0003:00006310       __acrt_lconv_static_null   0000000180068310     libucrtd:localeconv.obj
 0003:00006314       __acrt_lconv_static_W_null 0000000180068314     libucrtd:localeconv.obj
 0003:00006330       __scrt_ucrt_dll_is_in_use  0000000180068330     <common>
 0003:00006338       __dyn_tls_init_callback    0000000180068338     <common>

 entry point at        0001:0000def0

 Static symbols

 0000:fff91000       .debug$S                   0000000180000000     handmade.exp
 0000:fff91000       .debug$S                   0000000180000000     kernel32:KERNEL32.dll
 0000:fff91000       .debug$S                   0000000180000000     kernel32:KERNEL32.dll
 0000:fff91000       .debug$S                   0000000180000000     kernel32:KERNEL32.dll
 0000:fff91000       .debug$S                   0000000180000000     kernel32:KERNEL32.dll
 0000:fff91000       .debug$S                   0000000180000000     kernel32:KERNEL32.dll
 0000:fff91000       .debug$S                   0000000180000000     kernel32:KERNEL32.dll
 0000:fff91000       .debug$S                   0000000180000000     kernel32:KERNEL32.dll
 0000:fff91000       .debug$S                   0000000180000000     kernel32:KERNEL32.dll
 0000:fff91000       .debug$S                   0000000180000000     kernel32:KERNEL32.dll
 0000:fff91000       .debug$S                   0000000180000000     kernel32:KERNEL32.dll
 0000:fff91000       .debug$S                   0000000180000000     kernel32:KERNEL32.dll
 0000:fff91000       .debug$S                   0000000180000000     kernel32:KERNEL32.dll
 0000:fff91000       .debug$S                   0000000180000000     kernel32:KERNEL32.dll
 0000:fff91000       .debug$S                   0000000180000000     kernel32:KERNEL32.dll
 0000:fff91000       .debug$S                   0000000180000000     kernel32:KERNEL32.dll
 0000:fff91000       .debug$S                   0000000180000000     kernel32:KERNEL32.dll
 0000:fff91000       .debug$S                   0000000180000000     kernel32:KERNEL32.dll
 0000:fff91000       .debug$S                   0000000180000000     kernel32:KERNEL32.dll
 0000:fff91000       .debug$S                   0000000180000000     kernel32:KERNEL32.dll
 0000:fff91000       .debug$S                   0000000180000000     kernel32:KERNEL32.dll
 0000:fff91000       .debug$S                   0000000180000000     kernel32:KERNEL32.dll
 0000:fff91000       .debug$S                   0000000180000000     kernel32:KERNEL32.dll
 0000:fff91000       .debug$S                   0000000180000000     kernel32:KERNEL32.dll
 0000:fff91000       .debug$S                   0000000180000000     kernel32:KERNEL32.dll
 0000:fff91000       .debug$S                   0000000180000000     kernel32:KERNEL32.dll
 0000:fff91000       .debug$S                   0000000180000000     kernel32:KERNEL32.dll
 0000:fff91000       .debug$S                   0000000180000000     kernel32:KERNEL32.dll
 0000:fff91000       .debug$S                   0000000180000000     kernel32:KERNEL32.dll
 0000:fff91000       .debug$S                   0000000180000000     kernel32:KERNEL32.dll
 0000:fff91000       .debug$S                   0000000180000000     kernel32:KERNEL32.dll
 0000:fff91000       .debug$S                   0000000180000000     kernel32:KERNEL32.dll
 0000:fff91000       .debug$S                   0000000180000000     kernel32:KERNEL32.dll
 0000:fff91000       .debug$S                   0000000180000000     kernel32:KERNEL32.dll
 0000:fff91000       .debug$S                   0000000180000000     kernel32:KERNEL32.dll
 0000:fff91000       .debug$S                   0000000180000000     kernel32:KERNEL32.dll
 0000:fff91000       .debug$S                   0000000180000000     kernel32:KERNEL32.dll
 0000:fff91000       .debug$S                   0000000180000000     kernel32:KERNEL32.dll
 0000:fff91000       .debug$S                   0000000180000000     kernel32:KERNEL32.dll
 0000:fff91000       .debug$S                   0000000180000000     kernel32:KERNEL32.dll
 0000:fff91000       .debug$S                   0000000180000000     kernel32:KERNEL32.dll
 0000:fff91000       .debug$S                   0000000180000000     kernel32:KERNEL32.dll
 0000:fff91000       .debug$S                   0000000180000000     kernel32:KERNEL32.dll
 0000:fff91000       .debug$S                   0000000180000000     kernel32:KERNEL32.dll
 0000:fff91000       .debug$S                   0000000180000000     kernel32:KERNEL32.dll
 0000:fff91000       .debug$S                   0000000180000000     kernel32:KERNEL32.dll
 0000:fff91000       .debug$S                   0000000180000000     kernel32:KERNEL32.dll
 0000:fff91000       .debug$S                   0000000180000000     kernel32:KERNEL32.dll
 0000:fff91000       .debug$S                   0000000180000000     kernel32:KERNEL32.dll
 0000:fff91000       .debug$S                   0000000180000000     kernel32:KERNEL32.dll
 0000:fff91000       .debug$S                   0000000180000000     kernel32:KERNEL32.dll
 0000:fff91000       .debug$S                   0000000180000000     kernel32:KERNEL32.dll
 0000:fff91000       .debug$S                   0000000180000000     kernel32:KERNEL32.dll
 0000:fff91000       .debug$S                   0000000180000000     kernel32:KERNEL32.dll
 0000:fff91000       .debug$S                   0000000180000000     kernel32:KERNEL32.dll
 0000:fff91000       .debug$S                   0000000180000000     kernel32:KERNEL32.dll
 0000:fff91000       .debug$S                   0000000180000000     kernel32:KERNEL32.dll
 0000:fff91000       .debug$S                   0000000180000000     kernel32:KERNEL32.dll
 0000:fff91000       .debug$S                   0000000180000000     kernel32:KERNEL32.dll
 0000:fff91000       .debug$S                   0000000180000000     kernel32:KERNEL32.dll
 0000:fff91000       .debug$S                   0000000180000000     kernel32:KERNEL32.dll
 0000:fff91000       .debug$S                   0000000180000000     kernel32:KERNEL32.dll
 0000:fff91000       .debug$S                   0000000180000000     kernel32:KERNEL32.dll
 0000:fff91000       .debug$S                   0000000180000000     kernel32:KERNEL32.dll
 0000:fff91000       .debug$S                   0000000180000000     kernel32:KERNEL32.dll
 0000:fff91000       .debug$S                   0000000180000000     kernel32:KERNEL32.dll
 0000:fff91000       .debug$S                   0000000180000000     kernel32:KERNEL32.dll
 0000:fff91000       .debug$S                   0000000180000000     kernel32:KERNEL32.dll
 0000:fff91000       .debug$S                   0000000180000000     kernel32:KERNEL32.dll
 0000:fff91000       .debug$S                   0000000180000000     kernel32:KERNEL32.dll
 0000:fff91000       .debug$S                   0000000180000000     kernel32:KERNEL32.dll
 0000:fff91000       .debug$S                   0000000180000000     kernel32:KERNEL32.dll
 0000:fff91000       .debug$S                   0000000180000000     kernel32:KERNEL32.dll
 0000:fff91000       .debug$S                   0000000180000000     kernel32:KERNEL32.dll
 0000:fff91000       .debug$S                   0000000180000000     kernel32:KERNEL32.dll
 0000:fff91000       .debug$S                   0000000180000000     kernel32:KERNEL32.dll
 0000:fff91000       .debug$S                   0000000180000000     kernel32:KERNEL32.dll
 0000:fff91000       .debug$S                   0000000180000000     kernel32:KERNEL32.dll
 0000:fff91000       .debug$S                   0000000180000000     kernel32:KERNEL32.dll
 0000:fff91000       .debug$S                   0000000180000000     kernel32:KERNEL32.dll
 0000:fff91000       .debug$S                   0000000180000000     kernel32:KERNEL32.dll
 0000:fff91000       .debug$S                   0000000180000000     kernel32:KERNEL32.dll
 0000:fff91000       .debug$S                   0000000180000000     kernel32:KERNEL32.dll
 0000:fff91000       .debug$S                   0000000180000000     kernel32:KERNEL32.dll
 0000:fff91000       .debug$S                   0000000180000000     kernel32:KERNEL32.dll
 0000:fff91000       .debug$S                   0000000180000000     kernel32:KERNEL32.dll
 0000:fff91000       .debug$S                   0000000180000000     kernel32:KERNEL32.dll
 0000:fff91000       .debug$S                   0000000180000000     kernel32:KERNEL32.dll
 0000:fff91000       .debug$S                   0000000180000000     kernel32:KERNEL32.dll
 0000:fff91000       .debug$S                   0000000180000000     kernel32:KERNEL32.dll
 0000:fff91000       .debug$S                   0000000180000000     kernel32:KERNEL32.dll
 0000:fff91000       .debug$S                   0000000180000000     kernel32:KERNEL32.dll
 0000:fff91000       .debug$S                   0000000180000000     kernel32:KERNEL32.dll
 0001:00000000       ?AddCollisionRule@@YAXPEAUgame_state@@IIH@Z 0000000180001000 f   handmade.obj
 0001:00000160       ?ClearCollisionRulesFor@@YAXPEAUgame_state@@I@Z 0000000180001160 f   handmade.obj
 0001:00000250       ?DrawRectangle@@YAXPEAUloaded_bitmap@@Tv2@@1MMMM@Z 0000000180001250 f   handmade.obj
 0001:00000440       ?DrawBitmap@@YAXPEAUloaded_bitmap@@0MMM@Z 0000000180001440 f   handmade.obj
 0001:000008c0       ?RenderGroupToOutput@@YAXPEAUrender_group@@PEAUloaded_bitmap@@@Z 00000001800018c0 f   handmade.obj
 0001:00000fb0       ?AllocateRenderGroup@@YAPEAUrender_group@@PEAUmemory_arena@@IM@Z 0000000180001fb0 f   handmade.obj
 0001:000010b0       ?InitializeWorld@@YAXPEAUworld@@Tv3@@@Z 00000001800020b0 f   handmade.obj
 0001:00001140       ?ChangeEntityLocation@@YAXPEAUmemory_arena@@PEAUworld@@IPEAUlow_entity@@Uworld_position@@@Z 0000000180002140 f   handmade.obj
 0001:000012e0       ?GetHashFromStorageIndex@@YAPEAUsim_entity_hash@@PEAUsim_region@@I@Z 00000001800022e0 f   handmade.obj
 0001:000013a0       ?AddEntity@@YAPEAUsim_entity@@PEAUgame_state@@PEAUsim_region@@IPEAUlow_entity@@PEATv3@@@Z 00000001800023a0 f   handmade.obj
 0001:00001510       ?AddEntityRaw@@YAPEAUsim_entity@@PEAUgame_state@@PEAUsim_region@@IPEAUlow_entity@@@Z 0000000180002510 f   handmade.obj
 0001:00001680       ?BeginSim@@YAPEAUsim_region@@PEAUmemory_arena@@PEAUgame_state@@PEAUworld@@Uworld_position@@Urectangle3@@M@Z 0000000180002680 f   handmade.obj
 0001:00001d40       ?EndSim@@YAXPEAUsim_region@@PEAUgame_state@@@Z 0000000180002d40 f   handmade.obj
 0001:00002070       ?CanCollide@@YAHPEAUgame_state@@PEAUsim_entity@@1@Z 0000000180003070 f   handmade.obj
 0001:000021b0       ?HandleCollision@@YAHPEAUgame_state@@PEAUsim_entity@@1@Z 00000001800031b0 f   handmade.obj
 0001:00002280       ?CanOverlap@@YAHPEAUgame_state@@PEAUsim_entity@@1@Z 0000000180003280 f   handmade.obj
 0001:000022d0       ?HandleOverlap@@YAXPEAUgame_state@@PEAUsim_entity@@1MPEAM@Z 00000001800032d0 f   handmade.obj
 0001:00002380       ?SpecullativeCollide@@YAHPEAUsim_entity@@0Tv3@@@Z 0000000180003380 f   handmade.obj
 0001:000024b0       ?EntitiesOverlap@@YAHPEAUsim_entity@@0Tv3@@@Z 00000001800034b0 f   handmade.obj
 0001:00002840       ?MoveEntity@@YAXPEAUgame_state@@PEAUsim_region@@PEAUsim_entity@@MPEAUmove_spec@@Tv3@@@Z 0000000180003840 f   handmade.obj
 0001:000043f0       ?GameOutputSound@@YAXPEAUgame_state@@PEAUgame_sound_output_buffer@@H@Z 00000001800053f0 f   handmade.obj
 0001:000044a0       ?DEBUGLoadBMP@@YA?AUloaded_bitmap@@PEAUthread_context@@P6A?AUdebug_read_file_result@@0PEAD@Z1@Z 00000001800054a0 f   handmade.obj
 0001:000048f0       ?AddLowEntity@@YA?AUadd_low_entity_result@@PEAUgame_state@@W4entity_type@@Uworld_position@@@Z 00000001800058f0 f   handmade.obj
 0001:00004ab0       ?AddGroundedEntity@@YA?AUadd_low_entity_result@@PEAUgame_state@@W4entity_type@@Uworld_position@@PEAUsim_entity_collision_volume_group@@@Z 0000000180005ab0 f   handmade.obj
 0001:00004b70       ?AddStandardRoom@@YA?AUadd_low_entity_result@@PEAUgame_state@@III@Z 0000000180005b70 f   handmade.obj
 0001:00004d20       ?AddWall@@YA?AUadd_low_entity_result@@PEAUgame_state@@III@Z 0000000180005d20 f   handmade.obj
 0001:00004ed0       ?AddStair@@YA?AUadd_low_entity_result@@PEAUgame_state@@III@Z 0000000180005ed0 f   handmade.obj
 0001:000050b0       ?InitHitPoints@@YAXPEAUlow_entity@@I@Z 00000001800060b0 f   handmade.obj
 0001:00005130       ?AddSword@@YA?AUadd_low_entity_result@@PEAUgame_state@@@Z 0000000180006130 f   handmade.obj
 0001:00005250       ?AddPlayer@@YA?AUadd_low_entity_result@@PEAUgame_state@@@Z 0000000180006250 f   handmade.obj
 0001:000053e0       ?AddMonster@@YA?AUadd_low_entity_result@@PEAUgame_state@@III@Z 00000001800063e0 f   handmade.obj
 0001:000055a0       ?AddFamiliar@@YA?AUadd_low_entity_result@@PEAUgame_state@@III@Z 00000001800065a0 f   handmade.obj
 0001:000059a0       ?FillGroundChunk@@YAXPEAUtransient_state@@PEAUgame_state@@PEAUground_buffer@@PEAUworld_position@@@Z 00000001800069a0 f   handmade.obj
 0001:000060b0       ?ClearBitmap@@YAXPEAUloaded_bitmap@@@Z 00000001800070b0 f   handmade.obj
 0001:00006100       ?MakeEmptyBitmap@@YA?AUloaded_bitmap@@PEAUmemory_arena@@HHH@Z 0000000180007100 f   handmade.obj
 0001:00009c18       $LN133                     000000018000ac18     handmade.obj
 0001:0000da50       $$000000                   000000018000ea50     LIBCMTD:chkstk.obj
 0001:0000dab0       $$000000                   000000018000eab0     LIBCMTD:amdsecgs.obj
 0001:0000dae0       ?dllmain_crt_dispatch@@YAHQEAUHINSTANCE__@@KQEAX@Z 000000018000eae0 f   LIBCMTD:dll_dllmain.obj
 0001:0000db70       ?dllmain_crt_process_attach@@YAHQEAUHINSTANCE__@@QEAX@Z 000000018000eb70 f   LIBCMTD:dll_dllmain.obj
 0001:0000dcb0       ?dllmain_crt_process_detach@@YAH_N@Z 000000018000ecb0 f   LIBCMTD:dll_dllmain.obj
 0001:0000dd50       ?dllmain_dispatch@@YAHQEAUHINSTANCE__@@KQEAX@Z 000000018000ed50 f   LIBCMTD:dll_dllmain.obj
 0001:0000de90       ?dllmain_raw@@YAHQEAUHINSTANCE__@@KQEAX@Z 000000018000ee90 f   LIBCMTD:dll_dllmain.obj
 0001:0000e110       ?capture_current_context@@YAXQEAU_CONTEXT@@@Z 000000018000f110 f   libucrtd:invalid_parameter.obj
 0001:0000e110       capture_current_context    000000018000f110 f   LIBCMTD:gs_report.obj
 0001:0000e1b0       capture_previous_context   000000018000f1b0 f   LIBCMTD:gs_report.obj
 0001:0000e270       __get_entropy              000000018000f270 f   LIBCMTD:gs_support.obj
 0001:0000e4a0       ?find_pe_section@@YAPEAU_IMAGE_SECTION_HEADER@@QEAE_K@Z 000000018000f4a0 f   LIBCMTD:utility.obj
 0001:0000e580       ?is_potentially_valid_image_base@@YA_NQEAX@Z 000000018000f580 f   LIBCMTD:utility.obj
 0001:0000f5d0       ??0?$__crt_unique_handle_t@Uenvironment_strings_traits@?A0x1bf47908@@@@QEAA@QEA_W@Z 00000001800105d0 f i libucrtd:get_environment_from_os.obj
 0001:0000f5d0       ??0<lambda_8d0ee55de4b1038c4002e0adecdf1839>@@QEAA@AEBQEAU__acrt_ptd@@@Z 00000001800105d0 f i libucrtd:per_thread_data.obj
 0001:0000f5d0       ??0<lambda_8f455de75cd7d7f24b4096f044d8b9e6>@@QEAA@AEBQEAU__acrt_ptd@@@Z 00000001800105d0 f i libucrtd:per_thread_data.obj
 0001:0000f5d0       ??0<lambda_e157831efee4ea0afb0a2ace5dd5fd0d>@@QEAA@AEBQEAU__acrt_ptd@@@Z 00000001800105d0 f i libucrtd:per_thread_data.obj
 0001:0000f5d0       ??0<lambda_3e4146214822e0ea86c47ff907aef2ff>@@QEAA@AEBH@Z 00000001800105d0 f i libucrtd:commit.obj
 0001:0000f5d0       ??0<lambda_df1553121bfa390f1154bd84936f2730>@@QEAA@AEAV?$__crt_unique_heap_ptr@PEADU__crt_internal_free_policy@@@@@Z 00000001800105d0 f i libucrtd:argv_parsing.obj
 0001:0000f5d0       ??0<lambda_d121dba8a4adeaf3a9819e48611155df>@@QEAA@AEBQEAU_onexit_table_t@@@Z 00000001800105d0 f i libucrtd:onexit.obj
 0001:0000f650       ?get@?$__crt_unique_handle_t@Uenvironment_strings_traits@?A0x1bf47908@@@@QEBAPEA_WXZ 0000000180010650 f i libucrtd:get_environment_from_os.obj
 0001:0000f650       ?begin@?$argument_list@D@?A0x5f5c8891@@QEBAPEAPEADXZ 0000000180010650 f i libucrtd:argv_wildcards.obj
 0001:0000f800       init_memcpy_functions      0000000180010800 f   libvcruntimed:initialization.obj
 0001:0000f940       ?_FilterSetCurrentException@@YAKPEAU_EXCEPTION_POINTERS@@E@Z 0000000180010940 f   libvcruntimed:ehhelpers.obj
 0001:0000fb90       $$000000                   0000000180010b90     libvcruntimed:notify.obj
 0001:0000fbb0       $$000000                   0000000180010bb0     libvcruntimed:notify.obj
 0001:0000fbc0       $$000000                   0000000180010bc0     libvcruntimed:notify.obj
 0001:0000fd00       ??0scoped_get_last_error_reset@?A0xf875a351@@QEAA@XZ 0000000180010d00 f   libvcruntimed:per_thread_data.obj
 0001:0000fd20       ??1scoped_get_last_error_reset@?A0xf875a351@@QEAA@XZ 0000000180010d20 f   libvcruntimed:per_thread_data.obj
 0001:0000fd70       ?store_and_initialize_ptd@@YA_NQEAU__vcrt_ptd@@@Z 0000000180010d70 f   libvcruntimed:per_thread_data.obj
 0001:00010190       ??$SehTransFilter@V__FrameHandler3@@@@YAHPEAU_EXCEPTION_POINTERS@@PEAUEHExceptionRecord@@PEA_KPEAU_CONTEXT@@PEAU_xDISPATCHER_CONTEXT@@PEBU_s_FuncInfo@@HPEAH@Z 0000000180011190 f   libvcruntimed:risctrnsctrl.obj
 0001:00010c50       ?invalid_function_sentinel@@YAPEAXXZ 0000000180011c50 f   libucrtd:winapi_thunks.obj
 0001:00010c50       ?invalid_function_sentinel@@YAPEAXXZ 0000000180011c50 f   libvcruntimed:winapi_downlevel.obj
 0001:00010c60       ?try_get_FlsAlloc@@YAP6AKP6AXPEAX@Z@ZXZ 0000000180011c60 f   libvcruntimed:winapi_downlevel.obj
 0001:00010c90       ?try_get_FlsFree@@YAP6AHK@ZXZ 0000000180011c90 f   libvcruntimed:winapi_downlevel.obj
 0001:00010cc0       ?try_get_FlsGetValue@@YAP6APEAXK@ZXZ 0000000180011cc0 f   libvcruntimed:winapi_downlevel.obj
 0001:00010cf0       ?try_get_FlsSetValue@@YAP6AHKPEAX@ZXZ 0000000180011cf0 f   libvcruntimed:winapi_downlevel.obj
 0001:00010d20       ?try_get_InitializeCriticalSectionEx@@YAP6AHPEAU_RTL_CRITICAL_SECTION@@KK@ZXZ 0000000180011d20 f   libvcruntimed:winapi_downlevel.obj
 0001:00010d50       ?try_get_first_available_module@@YAPEAUHINSTANCE__@@QEBW4module_id@?A0x14174aea@@0@Z 0000000180011d50 f   libvcruntimed:winapi_downlevel.obj
 0001:00010db0       ?try_get_function@@YAPEAXW4function_id@?A0x14174aea@@QEBDQEBW4module_id@2@2@Z 0000000180011db0 f   libvcruntimed:winapi_downlevel.obj
 0001:00010f20       ?try_get_module@@YAPEAUHINSTANCE__@@W4module_id@?A0x14174aea@@@Z 0000000180011f20 f   libvcruntimed:winapi_downlevel.obj
 0001:00011080       ?try_get_proc_address_from_first_available_module@@YAPEAXQEBDQEBW4module_id@?A0x14174aea@@1@Z 0000000180012080 f   libvcruntimed:winapi_downlevel.obj
 0001:000110d0       ?try_load_library_from_system_directory@@YAPEAUHINSTANCE__@@QEB_W@Z 00000001800120d0 f   libvcruntimed:winapi_downlevel.obj
 0001:000115a0       ?adjustIp@@YA_KPEAU_xDISPATCHER_CONTEXT@@_K@Z 00000001800125a0 f   libvcruntimed:ehstate.obj
 0001:000115b0       ??$BuildCatchObjectHelperInternal@V__FrameHandler3@@@@YAHPEAUEHExceptionRecord@@PEAXPEBU_s_HandlerType@@PEBU_s_CatchableType@@@Z 00000001800125b0 f   libvcruntimed:frame.obj
 0001:00011990       ??$BuildCatchObjectInternal@V__FrameHandler3@@@@YAXPEAUEHExceptionRecord@@PEAXPEBU_s_HandlerType@@PEBU_s_CatchableType@@@Z 0000000180012990 f   libvcruntimed:frame.obj
 0001:00011ae0       ??$CatchIt@V__FrameHandler3@@@@YAXPEAUEHExceptionRecord@@PEA_KPEAU_CONTEXT@@PEAU_xDISPATCHER_CONTEXT@@PEBU_s_FuncInfo@@PEBU_s_HandlerType@@PEBU_s_CatchableType@@PEBU_s_TryBlockMapEntry@@H1EE@Z 0000000180012ae0 f   libvcruntimed:frame.obj
 0001:00011c20       ??$FindHandler@V__FrameHandler3@@@@YAXPEAUEHExceptionRecord@@PEA_KPEAU_CONTEXT@@PEAU_xDISPATCHER_CONTEXT@@PEBU_s_FuncInfo@@EH1@Z 0000000180012c20 f   libvcruntimed:frame.obj
 0001:000123f0       ??$FindHandlerForForeignException@V__FrameHandler3@@@@YAXPEAUEHExceptionRecord@@PEA_KPEAU_CONTEXT@@PEAU_xDISPATCHER_CONTEXT@@PEBU_s_FuncInfo@@HH1@Z 00000001800133f0 f   libvcruntimed:frame.obj
 0001:00012e80       ??0<lambda_92619d2358a28f41a33ba319515a20b9>@@QEAA@AEBQEAU__acrt_ptd@@AEBQEAPEAU__crt_locale_data@@@Z 0000000180013e80 f i libucrtd:per_thread_data.obj
 0001:00012e80       ??0<lambda_af29824b49a67d335554598d6cad2be6>@@QEAA@AEBHAEAV__crt_cached_ptd_host@@@Z 0000000180013e80 f i libucrtd:close.obj
 0001:00012e80       ??0<lambda_bd5a608237428601b7e45fbdc72b1ae8>@@QEAA@AEBQEAU__acrt_ptd@@AEBQEAPEAU__crt_multibyte_data@@@Z 0000000180013e80 f i libucrtd:mbctype.obj
 0001:00013540       ?ExFilterRethrow@@YAHPEAU_EXCEPTION_POINTERS@@PEAUEHExceptionRecord@@PEAH@Z 0000000180014540 f   libvcruntimed:frame.obj
 0001:00013960       ?IsInExceptionSpec@@YAEPEAUEHExceptionRecord@@PEBU_s_ESTypeList@@@Z 0000000180014960 f   libvcruntimed:frame.obj
 0001:00013a80       ?Is_bad_exception_allowed@@YAEPEBU_s_ESTypeList@@@Z 0000000180014a80 f   libvcruntimed:frame.obj
 0001:00013c00       ?__RethrowException@@YAXPEAUEHExceptionRecord@@@Z 0000000180014c00 f   libvcruntimed:frame.obj
 0001:00013e30       $$000000                   0000000180014e30     libvcruntimed:memcpy_avx_ermsb_aligned.obj
 0001:00013e5e       MoveSmall0                 0000000180014e5e     libvcruntimed:memcpy_avx_ermsb_aligned.obj
 0001:00013e60       MoveSmall15                0000000180014e60     libvcruntimed:memcpy_avx_ermsb_aligned.obj
 0001:00013e80       MoveSmall11                0000000180014e80     libvcruntimed:memcpy_avx_ermsb_aligned.obj
 0001:00013e98       MoveSmall2                 0000000180014e98     libvcruntimed:memcpy_avx_ermsb_aligned.obj
 0001:00013ea0       MoveSmall7                 0000000180014ea0     libvcruntimed:memcpy_avx_ermsb_aligned.obj
 0001:00013eb8       MoveSmall14                0000000180014eb8     libvcruntimed:memcpy_avx_ermsb_aligned.obj
 0001:00013ecf       MoveSmall3                 0000000180014ecf     libvcruntimed:memcpy_avx_ermsb_aligned.obj
 0001:00013ee0       MoveSmall13                0000000180014ee0     libvcruntimed:memcpy_avx_ermsb_aligned.obj
 0001:00013ef6       MoveSmall10                0000000180014ef6     libvcruntimed:memcpy_avx_ermsb_aligned.obj
 0001:00013f05       MoveSmall9                 0000000180014f05     libvcruntimed:memcpy_avx_ermsb_aligned.obj
 0001:00013f13       MoveSmall12                0000000180014f13     libvcruntimed:memcpy_avx_ermsb_aligned.obj
 0001:00013f20       MoveSmall6                 0000000180014f20     libvcruntimed:memcpy_avx_ermsb_aligned.obj
 0001:00013f2f       MoveSmall5                 0000000180014f2f     libvcruntimed:memcpy_avx_ermsb_aligned.obj
 0001:00013f3d       MoveSmall8                 0000000180014f3d     libvcruntimed:memcpy_avx_ermsb_aligned.obj
 0001:00013f44       MoveSmall1                 0000000180014f44     libvcruntimed:memcpy_avx_ermsb_aligned.obj
 0001:00013f4a       MoveSmall4                 0000000180014f4a     libvcruntimed:memcpy_avx_ermsb_aligned.obj
 0001:00013f50       MoveAbove15                0000000180014f50     libvcruntimed:memcpy_avx_ermsb_aligned.obj
 0001:00013f6d       MoveAbove32                0000000180014f6d     libvcruntimed:memcpy_avx_ermsb_aligned.obj
 0001:00013f97       MoveWithYMM                0000000180014f97     libvcruntimed:memcpy_avx_ermsb_aligned.obj
 0001:00013fe0       YmmLoop                    0000000180014fe0     libvcruntimed:memcpy_avx_ermsb_aligned.obj
 0001:00014068       MovUpTo256WithYMM          0000000180015068     libvcruntimed:memcpy_avx_ermsb_aligned.obj
 0001:00014085       Mov8YmmBlocks              0000000180015085     libvcruntimed:memcpy_avx_ermsb_aligned.obj
 0001:00014099       Mov7YmmBlocks              0000000180015099     libvcruntimed:memcpy_avx_ermsb_aligned.obj
 0001:000140ad       Mov6YmmBlocks              00000001800150ad     libvcruntimed:memcpy_avx_ermsb_aligned.obj
 0001:000140c1       Mov5YmmBlocks              00000001800150c1     libvcruntimed:memcpy_avx_ermsb_aligned.obj
 0001:000140d5       Mov4YmmBlocks              00000001800150d5     libvcruntimed:memcpy_avx_ermsb_aligned.obj
 0001:000140e3       Mov3YmmBlocks              00000001800150e3     libvcruntimed:memcpy_avx_ermsb_aligned.obj
 0001:000140f1       Mov2YmmBlocks              00000001800150f1     libvcruntimed:memcpy_avx_ermsb_aligned.obj
 0001:000140ff       Mov1YmmBlocks              00000001800150ff     libvcruntimed:memcpy_avx_ermsb_aligned.obj
 0001:00014106       Mov0YmmBlocks              0000000180015106     libvcruntimed:memcpy_avx_ermsb_aligned.obj
 0001:00014110       YmmLoopNT                  0000000180015110     libvcruntimed:memcpy_avx_ermsb_aligned.obj
 0001:000141b5       Mov8YmmBlocksNT            00000001800151b5     libvcruntimed:memcpy_avx_ermsb_aligned.obj
 0001:000141c9       Mov7YmmBlocksNT            00000001800151c9     libvcruntimed:memcpy_avx_ermsb_aligned.obj
 0001:000141dd       Mov6YmmBlocksNT            00000001800151dd     libvcruntimed:memcpy_avx_ermsb_aligned.obj
 0001:000141f1       Mov5YmmBlocksNT            00000001800151f1     libvcruntimed:memcpy_avx_ermsb_aligned.obj
 0001:00014205       Mov4YmmBlocksNT            0000000180015205     libvcruntimed:memcpy_avx_ermsb_aligned.obj
 0001:00014213       Mov3YmmBlocksNT            0000000180015213     libvcruntimed:memcpy_avx_ermsb_aligned.obj
 0001:00014221       Mov2YmmBlocksNT            0000000180015221     libvcruntimed:memcpy_avx_ermsb_aligned.obj
 0001:0001422f       Mov1YmmBlocksNT            000000018001522f     libvcruntimed:memcpy_avx_ermsb_aligned.obj
 0001:00014236       Mov0YmmBlocksNT            0000000180015236     libvcruntimed:memcpy_avx_ermsb_aligned.obj
 0001:00014260       $$000000                   0000000180015260     libvcruntimed:memcpy_avx_ermsb_aligned_amd.obj
 0001:0001428e       MoveSmall0                 000000018001528e     libvcruntimed:memcpy_avx_ermsb_aligned_amd.obj
 0001:00014290       MoveSmall15                0000000180015290     libvcruntimed:memcpy_avx_ermsb_aligned_amd.obj
 0001:000142b0       MoveSmall11                00000001800152b0     libvcruntimed:memcpy_avx_ermsb_aligned_amd.obj
 0001:000142c8       MoveSmall2                 00000001800152c8     libvcruntimed:memcpy_avx_ermsb_aligned_amd.obj
 0001:000142d0       MoveSmall7                 00000001800152d0     libvcruntimed:memcpy_avx_ermsb_aligned_amd.obj
 0001:000142e8       MoveSmall14                00000001800152e8     libvcruntimed:memcpy_avx_ermsb_aligned_amd.obj
 0001:000142ff       MoveSmall3                 00000001800152ff     libvcruntimed:memcpy_avx_ermsb_aligned_amd.obj
 0001:00014310       MoveSmall13                0000000180015310     libvcruntimed:memcpy_avx_ermsb_aligned_amd.obj
 0001:00014326       MoveSmall10                0000000180015326     libvcruntimed:memcpy_avx_ermsb_aligned_amd.obj
 0001:00014335       MoveSmall9                 0000000180015335     libvcruntimed:memcpy_avx_ermsb_aligned_amd.obj
 0001:00014343       MoveSmall12                0000000180015343     libvcruntimed:memcpy_avx_ermsb_aligned_amd.obj
 0001:00014350       MoveSmall6                 0000000180015350     libvcruntimed:memcpy_avx_ermsb_aligned_amd.obj
 0001:0001435f       MoveSmall5                 000000018001535f     libvcruntimed:memcpy_avx_ermsb_aligned_amd.obj
 0001:0001436d       MoveSmall8                 000000018001536d     libvcruntimed:memcpy_avx_ermsb_aligned_amd.obj
 0001:00014374       MoveSmall1                 0000000180015374     libvcruntimed:memcpy_avx_ermsb_aligned_amd.obj
 0001:0001437a       MoveSmall4                 000000018001537a     libvcruntimed:memcpy_avx_ermsb_aligned_amd.obj
 0001:00014380       MoveAbove15                0000000180015380     libvcruntimed:memcpy_avx_ermsb_aligned_amd.obj
 0001:0001439d       MoveAbove32                000000018001539d     libvcruntimed:memcpy_avx_ermsb_aligned_amd.obj
 0001:000143c7       MoveWithYMM                00000001800153c7     libvcruntimed:memcpy_avx_ermsb_aligned_amd.obj
 0001:00014410       YmmLoop                    0000000180015410     libvcruntimed:memcpy_avx_ermsb_aligned_amd.obj
 0001:00014498       MovUpTo256WithYMM          0000000180015498     libvcruntimed:memcpy_avx_ermsb_aligned_amd.obj
 0001:000144b5       Mov8YmmBlocks              00000001800154b5     libvcruntimed:memcpy_avx_ermsb_aligned_amd.obj
 0001:000144c9       Mov7YmmBlocks              00000001800154c9     libvcruntimed:memcpy_avx_ermsb_aligned_amd.obj
 0001:000144dd       Mov6YmmBlocks              00000001800154dd     libvcruntimed:memcpy_avx_ermsb_aligned_amd.obj
 0001:000144f1       Mov5YmmBlocks              00000001800154f1     libvcruntimed:memcpy_avx_ermsb_aligned_amd.obj
 0001:00014505       Mov4YmmBlocks              0000000180015505     libvcruntimed:memcpy_avx_ermsb_aligned_amd.obj
 0001:00014513       Mov3YmmBlocks              0000000180015513     libvcruntimed:memcpy_avx_ermsb_aligned_amd.obj
 0001:00014521       Mov2YmmBlocks              0000000180015521     libvcruntimed:memcpy_avx_ermsb_aligned_amd.obj
 0001:0001452f       Mov1YmmBlocks              000000018001552f     libvcruntimed:memcpy_avx_ermsb_aligned_amd.obj
 0001:00014536       Mov0YmmBlocks              0000000180015536     libvcruntimed:memcpy_avx_ermsb_aligned_amd.obj
 0001:00014540       YmmLoopNT                  0000000180015540     libvcruntimed:memcpy_avx_ermsb_aligned_amd.obj
 0001:000145e5       Mov8YmmBlocksNT            00000001800155e5     libvcruntimed:memcpy_avx_ermsb_aligned_amd.obj
 0001:000145f9       Mov7YmmBlocksNT            00000001800155f9     libvcruntimed:memcpy_avx_ermsb_aligned_amd.obj
 0001:0001460d       Mov6YmmBlocksNT            000000018001560d     libvcruntimed:memcpy_avx_ermsb_aligned_amd.obj
 0001:00014621       Mov5YmmBlocksNT            0000000180015621     libvcruntimed:memcpy_avx_ermsb_aligned_amd.obj
 0001:00014635       Mov4YmmBlocksNT            0000000180015635     libvcruntimed:memcpy_avx_ermsb_aligned_amd.obj
 0001:00014643       Mov3YmmBlocksNT            0000000180015643     libvcruntimed:memcpy_avx_ermsb_aligned_amd.obj
 0001:00014651       Mov2YmmBlocksNT            0000000180015651     libvcruntimed:memcpy_avx_ermsb_aligned_amd.obj
 0001:0001465f       Mov1YmmBlocksNT            000000018001565f     libvcruntimed:memcpy_avx_ermsb_aligned_amd.obj
 0001:00014666       Mov0YmmBlocksNT            0000000180015666     libvcruntimed:memcpy_avx_ermsb_aligned_amd.obj
 0001:00014690       $$000000                   0000000180015690     libvcruntimed:memcpy_sse2_ermsb_aligned.obj
 0001:000146be       MoveSmall0                 00000001800156be     libvcruntimed:memcpy_sse2_ermsb_aligned.obj
 0001:000146c0       MoveSmall15                00000001800156c0     libvcruntimed:memcpy_sse2_ermsb_aligned.obj
 0001:000146e0       MoveSmall11                00000001800156e0     libvcruntimed:memcpy_sse2_ermsb_aligned.obj
 0001:000146f8       MoveSmall2                 00000001800156f8     libvcruntimed:memcpy_sse2_ermsb_aligned.obj
 0001:00014700       MoveSmall7                 0000000180015700     libvcruntimed:memcpy_sse2_ermsb_aligned.obj
 0001:00014718       MoveSmall14                0000000180015718     libvcruntimed:memcpy_sse2_ermsb_aligned.obj
 0001:0001472f       MoveSmall3                 000000018001572f     libvcruntimed:memcpy_sse2_ermsb_aligned.obj
 0001:00014740       MoveSmall13                0000000180015740     libvcruntimed:memcpy_sse2_ermsb_aligned.obj
 0001:00014756       MoveSmall10                0000000180015756     libvcruntimed:memcpy_sse2_ermsb_aligned.obj
 0001:00014765       MoveSmall9                 0000000180015765     libvcruntimed:memcpy_sse2_ermsb_aligned.obj
 0001:00014773       MoveSmall12                0000000180015773     libvcruntimed:memcpy_sse2_ermsb_aligned.obj
 0001:00014780       MoveSmall6                 0000000180015780     libvcruntimed:memcpy_sse2_ermsb_aligned.obj
 0001:0001478f       MoveSmall5                 000000018001578f     libvcruntimed:memcpy_sse2_ermsb_aligned.obj
 0001:0001479d       MoveSmall8                 000000018001579d     libvcruntimed:memcpy_sse2_ermsb_aligned.obj
 0001:000147a4       MoveSmall1                 00000001800157a4     libvcruntimed:memcpy_sse2_ermsb_aligned.obj
 0001:000147aa       MoveSmall4                 00000001800157aa     libvcruntimed:memcpy_sse2_ermsb_aligned.obj
 0001:000147b0       MoveAbove15                00000001800157b0     libvcruntimed:memcpy_sse2_ermsb_aligned.obj
 0001:000147cd       MoveAbove32                00000001800157cd     libvcruntimed:memcpy_sse2_ermsb_aligned.obj
 0001:000147ee       MoveWithXMM                00000001800157ee     libvcruntimed:memcpy_sse2_ermsb_aligned.obj
 0001:00014830       XmmLoop                    0000000180015830     libvcruntimed:memcpy_sse2_ermsb_aligned.obj
 0001:0001489c       MovUpTo128WithXMM          000000018001589c     libvcruntimed:memcpy_sse2_ermsb_aligned.obj
 0001:000148b9       Mov8XmmBlocks              00000001800158b9     libvcruntimed:memcpy_sse2_ermsb_aligned.obj
 0001:000148c7       Mov7XmmBlocks              00000001800158c7     libvcruntimed:memcpy_sse2_ermsb_aligned.obj
 0001:000148d5       Mov6XmmBlocks              00000001800158d5     libvcruntimed:memcpy_sse2_ermsb_aligned.obj
 0001:000148e3       Mov5XmmBlocks              00000001800158e3     libvcruntimed:memcpy_sse2_ermsb_aligned.obj
 0001:000148f1       Mov4XmmBlocks              00000001800158f1     libvcruntimed:memcpy_sse2_ermsb_aligned.obj
 0001:000148ff       Mov3XmmBlocks              00000001800158ff     libvcruntimed:memcpy_sse2_ermsb_aligned.obj
 0001:0001490d       Mov2XmmBlocks              000000018001590d     libvcruntimed:memcpy_sse2_ermsb_aligned.obj
 0001:0001491b       Mov1XmmBlocks              000000018001591b     libvcruntimed:memcpy_sse2_ermsb_aligned.obj
 0001:00014922       Mov0XmmBlocks              0000000180015922     libvcruntimed:memcpy_sse2_ermsb_aligned.obj
 0001:00014940       $$000000                   0000000180015940     libvcruntimed:memcpy_sse2_ermsb_aligned_amd.obj
 0001:0001496e       MoveSmall0                 000000018001596e     libvcruntimed:memcpy_sse2_ermsb_aligned_amd.obj
 0001:00014970       MoveSmall15                0000000180015970     libvcruntimed:memcpy_sse2_ermsb_aligned_amd.obj
 0001:00014990       MoveSmall11                0000000180015990     libvcruntimed:memcpy_sse2_ermsb_aligned_amd.obj
 0001:000149a8       MoveSmall2                 00000001800159a8     libvcruntimed:memcpy_sse2_ermsb_aligned_amd.obj
 0001:000149b0       MoveSmall7                 00000001800159b0     libvcruntimed:memcpy_sse2_ermsb_aligned_amd.obj
 0001:000149c8       MoveSmall14                00000001800159c8     libvcruntimed:memcpy_sse2_ermsb_aligned_amd.obj
 0001:000149df       MoveSmall3                 00000001800159df     libvcruntimed:memcpy_sse2_ermsb_aligned_amd.obj
 0001:000149f0       MoveSmall13                00000001800159f0     libvcruntimed:memcpy_sse2_ermsb_aligned_amd.obj
 0001:00014a06       MoveSmall10                0000000180015a06     libvcruntimed:memcpy_sse2_ermsb_aligned_amd.obj
 0001:00014a15       MoveSmall9                 0000000180015a15     libvcruntimed:memcpy_sse2_ermsb_aligned_amd.obj
 0001:00014a23       MoveSmall12                0000000180015a23     libvcruntimed:memcpy_sse2_ermsb_aligned_amd.obj
 0001:00014a30       MoveSmall6                 0000000180015a30     libvcruntimed:memcpy_sse2_ermsb_aligned_amd.obj
 0001:00014a3f       MoveSmall5                 0000000180015a3f     libvcruntimed:memcpy_sse2_ermsb_aligned_amd.obj
 0001:00014a4d       MoveSmall8                 0000000180015a4d     libvcruntimed:memcpy_sse2_ermsb_aligned_amd.obj
 0001:00014a54       MoveSmall1                 0000000180015a54     libvcruntimed:memcpy_sse2_ermsb_aligned_amd.obj
 0001:00014a5a       MoveSmall4                 0000000180015a5a     libvcruntimed:memcpy_sse2_ermsb_aligned_amd.obj
 0001:00014a60       MoveAbove15                0000000180015a60     libvcruntimed:memcpy_sse2_ermsb_aligned_amd.obj
 0001:00014a7d       MoveAbove32                0000000180015a7d     libvcruntimed:memcpy_sse2_ermsb_aligned_amd.obj
 0001:00014a9e       MoveWithXMM                0000000180015a9e     libvcruntimed:memcpy_sse2_ermsb_aligned_amd.obj
 0001:00014ae0       XmmLoop                    0000000180015ae0     libvcruntimed:memcpy_sse2_ermsb_aligned_amd.obj
 0001:00014b4c       MovUpTo128WithXMM          0000000180015b4c     libvcruntimed:memcpy_sse2_ermsb_aligned_amd.obj
 0001:00014b69       Mov8XmmBlocks              0000000180015b69     libvcruntimed:memcpy_sse2_ermsb_aligned_amd.obj
 0001:00014b77       Mov7XmmBlocks              0000000180015b77     libvcruntimed:memcpy_sse2_ermsb_aligned_amd.obj
 0001:00014b85       Mov6XmmBlocks              0000000180015b85     libvcruntimed:memcpy_sse2_ermsb_aligned_amd.obj
 0001:00014b93       Mov5XmmBlocks              0000000180015b93     libvcruntimed:memcpy_sse2_ermsb_aligned_amd.obj
 0001:00014ba1       Mov4XmmBlocks              0000000180015ba1     libvcruntimed:memcpy_sse2_ermsb_aligned_amd.obj
 0001:00014baf       Mov3XmmBlocks              0000000180015baf     libvcruntimed:memcpy_sse2_ermsb_aligned_amd.obj
 0001:00014bbd       Mov2XmmBlocks              0000000180015bbd     libvcruntimed:memcpy_sse2_ermsb_aligned_amd.obj
 0001:00014bcb       Mov1XmmBlocks              0000000180015bcb     libvcruntimed:memcpy_sse2_ermsb_aligned_amd.obj
 0001:00014bd2       Mov0XmmBlocks              0000000180015bd2     libvcruntimed:memcpy_sse2_ermsb_aligned_amd.obj
 0001:00014c20       $$000000                   0000000180015c20     libvcruntimed:handlers.obj
 0001:00014fa0       $$000000                   0000000180015fa0     libvcruntimed:memcpy_repmovs.obj
 0001:00014fc0       $$000000                   0000000180015fc0     libvcruntimed:memcpy_CopyDown.obj
 0001:00014fdb       XmmMovAlign                0000000180015fdb     libvcruntimed:memcpy_CopyDown.obj
 0001:00014ff3       XmmMovLargeTest            0000000180015ff3     libvcruntimed:memcpy_CopyDown.obj
 0001:00015010       XmmMovLargeOuter           0000000180016010     libvcruntimed:memcpy_CopyDown.obj
 0001:00015017       XmmMovLargeInner           0000000180016017     libvcruntimed:memcpy_CopyDown.obj
 0001:0001506d       XmmMovSmallTest            000000018001606d     libvcruntimed:memcpy_CopyDown.obj
 0001:00015080       XmmMovSmallLoop            0000000180016080     libvcruntimed:memcpy_CopyDown.obj
 0001:00015090       XmmMovTrailing             0000000180016090     libvcruntimed:memcpy_CopyDown.obj
 0001:00015099       XmmMovReturn               0000000180016099     libvcruntimed:memcpy_CopyDown.obj
 0001:000150b0       $$000000                   00000001800160b0     libvcruntimed:memcpy_repmovs_amd.obj
 0001:000150d0       $$000000                   00000001800160d0     libvcruntimed:memcpy_CopyDown_amd.obj
 0001:000150eb       XmmMovAlign                00000001800160eb     libvcruntimed:memcpy_CopyDown_amd.obj
 0001:00015103       XmmMovLargeTest            0000000180016103     libvcruntimed:memcpy_CopyDown_amd.obj
 0001:00015120       XmmMovLargeOuter           0000000180016120     libvcruntimed:memcpy_CopyDown_amd.obj
 0001:00015127       XmmMovLargeInner           0000000180016127     libvcruntimed:memcpy_CopyDown_amd.obj
 0001:0001517d       XmmMovSmallTest            000000018001617d     libvcruntimed:memcpy_CopyDown_amd.obj
 0001:00015190       XmmMovSmallLoop            0000000180016190     libvcruntimed:memcpy_CopyDown_amd.obj
 0001:000151a0       XmmMovTrailing             00000001800161a0     libvcruntimed:memcpy_CopyDown_amd.obj
 0001:000151a9       XmmMovReturn               00000001800161a9     libvcruntimed:memcpy_CopyDown_amd.obj
 0001:00015240       $$000000                   0000000180016240     libucrtd:cosf.obj
 0001:00015740       $$000000                   0000000180016740     libucrtd:sinf.obj
 0001:00016070       ?xcptlookup@@YAPEAU__crt_signal_action_t@@KQEAU1@@Z 0000000180017070 f   libucrtd:exception_filter.obj
 0001:000163bc       $LN33                      00000001800173bc     libucrtd:exception_filter.obj
 0001:00016400       ??$?RV<lambda_d80eeec6fff315bfe5c115232f3240e3>@@AEAV<lambda_6e4b09c48022b2350581041d5f6b0c4c>@@V<lambda_2358e3775559c9db80273638284d5e45>@@@?$__crt_seh_guarded_call@X@@QEAAX$$QEAV<lambda_d80eeec6fff315bfe5c115232f3240e3>@@AEAV<lambda_6e4b09c48022b2350581041d5f6b0c4c>@@$$QEAV<lambda_2358e3775559c9db80273638284d5e45>@@@Z 0000000180017400 f   libucrtd:exit.obj
 0001:00016440       ??$__acrt_lock_and_call@V<lambda_6e4b09c48022b2350581041d5f6b0c4c>@@@@YAXW4__acrt_lock_id@@$$QEAV<lambda_6e4b09c48022b2350581041d5f6b0c4c>@@@Z 0000000180017440 f   libucrtd:exit.obj
 0001:00016570       ??0<lambda_04ddeca75b7c13fd67716e8dfcef87ee>@@QEAA@AEBW4__acrt_lock_id@@@Z 0000000180017570 f   libucrtd:per_thread_data.obj
 0001:00016570       ??0<lambda_0ae27a3a962d80f24befdcbee591983d>@@QEAA@AEBW4__acrt_lock_id@@@Z 0000000180017570 f   libucrtd:per_thread_data.obj
 0001:00016570       ??0<lambda_2d41944a1d46af3157314b8a01080d33>@@QEAA@AEBW4__acrt_lock_id@@@Z 0000000180017570 f   libucrtd:per_thread_data.obj
 0001:00016570       ??0<lambda_6992ecaafeb10aed2b74cb1fae11a551>@@QEAA@AEBW4__acrt_lock_id@@@Z 0000000180017570 f   libucrtd:per_thread_data.obj
 0001:00016570       ??0<lambda_74a0ef281e44d15e1136f792f539efb3>@@QEAA@AEBW4__acrt_lock_id@@@Z 0000000180017570 f   libucrtd:per_thread_data.obj
 0001:00016570       ??0<lambda_aa500f224e6afead328df44964fe2772>@@QEAA@AEBW4__acrt_lock_id@@@Z 0000000180017570 f   libucrtd:per_thread_data.obj
 0001:00016570       ??0<lambda_aa87e3671a710a21b5dc78c0bdf72e11>@@QEAA@AEBW4__acrt_lock_id@@@Z 0000000180017570 f   libucrtd:per_thread_data.obj
 0001:00016570       ??0<lambda_dc504788e8f1664fe9b84e20bfb512f2>@@QEAA@AEBW4__acrt_lock_id@@@Z 0000000180017570 f   libucrtd:per_thread_data.obj
 0001:00016570       ??0<lambda_38119f0e861e05405d8a144b9b982f0a>@@QEAA@AEBW4__acrt_lock_id@@@Z 0000000180017570 f   libucrtd:wsetlocale.obj
 0001:00016570       ??0<lambda_410d79af7f07d98d83a3f525b3859a53>@@QEAA@AEBW4__acrt_lock_id@@@Z 0000000180017570 f   libucrtd:wsetlocale.obj
 0001:00016570       ??0<lambda_19eaff14c5fe7be5b1b106a862eb1091>@@QEAA@AEBH@Z 0000000180017570 f   libucrtd:close.obj
 0001:00016570       ??0<lambda_3ce37f5b621ab310299ea5f68cbdf3bb>@@QEAA@AEBH@Z 0000000180017570 f   libucrtd:close.obj
 0001:00016570       ??0<lambda_7d29013d608e9f25a034de83c9b9e983>@@QEAA@AEBH@Z 0000000180017570 f   libucrtd:commit.obj
 0001:00016570       ??0<lambda_b869e5a4e1069fcb5c3da79c0d999133>@@QEAA@AEBH@Z 0000000180017570 f   libucrtd:commit.obj
 0001:00016570       ??0<lambda_728235dc0fc2b1f82d1fa5b3e7102d8f>@@QEAA@AEBW4__acrt_lock_id@@@Z 0000000180017570 f   libucrtd:mbctype.obj
 0001:00016570       ??0<lambda_efa02eb69bf647d2f7ff0dd6f1103f72>@@QEAA@AEBW4__acrt_lock_id@@@Z 0000000180017570 f   libucrtd:mbctype.obj
 0001:00016570       ??0<lambda_450d765d439847d4c735a33c368b5fc0>@@QEAA@AEBW4__acrt_lock_id@@@Z 0000000180017570 f   libucrtd:signal.obj
 0001:00016570       ??0<lambda_601a2a7da3b7a96e9554ac7215c4b07c>@@QEAA@AEBW4__acrt_lock_id@@@Z 0000000180017570 f   libucrtd:signal.obj
 0001:00016570       ??0<lambda_2358e3775559c9db80273638284d5e45>@@QEAA@AEBW4__acrt_lock_id@@@Z 0000000180017570 f   libucrtd:exit.obj
 0001:00016570       ??0<lambda_d80eeec6fff315bfe5c115232f3240e3>@@QEAA@AEBW4__acrt_lock_id@@@Z 0000000180017570 f   libucrtd:exit.obj
 0001:00016570       ??0<lambda_6a47f4c8fd0152770a780fc1d70204eb>@@QEAA@AEBW4__acrt_lock_id@@@Z 0000000180017570 f   libucrtd:onexit.obj
 0001:00016570       ??0<lambda_6aaa2265f5b6a89667e7d7630012e97a>@@QEAA@AEBW4__acrt_lock_id@@@Z 0000000180017570 f   libucrtd:onexit.obj
 0001:00016570       ??0<lambda_886d6c58226a84441f68b9f2b8217b83>@@QEAA@AEBW4__acrt_lock_id@@@Z 0000000180017570 f   libucrtd:fflush.obj
 0001:00016570       ??0<lambda_f7f22ab5edc0698d5f6905b0d3f44752>@@QEAA@AEBW4__acrt_lock_id@@@Z 0000000180017570 f   libucrtd:fflush.obj
 0001:00016590       ??0<lambda_6e4b09c48022b2350581041d5f6b0c4c>@@QEAA@AEBW4_crt_exit_cleanup_mode@@AEBW4_crt_exit_return_mode@@AEA_N@Z 0000000180017590 f   libucrtd:exit.obj
 0001:00016590       ??0<lambda_ab61a845afdef5b7c387490eaf3616ee>@@QEAA@AEAHAEB_N0@Z 0000000180017590 f   libucrtd:fflush.obj
 0001:00016600       ??R<lambda_04ddeca75b7c13fd67716e8dfcef87ee>@@QEBA@XZ 0000000180017600 f   libucrtd:per_thread_data.obj
 0001:00016600       ??R<lambda_6992ecaafeb10aed2b74cb1fae11a551>@@QEBA@XZ 0000000180017600 f   libucrtd:per_thread_data.obj
 0001:00016600       ??R<lambda_aa500f224e6afead328df44964fe2772>@@QEBA@XZ 0000000180017600 f   libucrtd:per_thread_data.obj
 0001:00016600       ??R<lambda_dc504788e8f1664fe9b84e20bfb512f2>@@QEBA@XZ 0000000180017600 f   libucrtd:per_thread_data.obj
 0001:00016600       ??R<lambda_38119f0e861e05405d8a144b9b982f0a>@@QEBA@XZ 0000000180017600 f   libucrtd:wsetlocale.obj
 0001:00016600       ??R<lambda_728235dc0fc2b1f82d1fa5b3e7102d8f>@@QEBA@XZ 0000000180017600 f   libucrtd:mbctype.obj
 0001:00016600       ??R<lambda_601a2a7da3b7a96e9554ac7215c4b07c>@@QEBA@XZ 0000000180017600 f   libucrtd:signal.obj
 0001:00016600       ??R<lambda_2358e3775559c9db80273638284d5e45>@@QEBA@XZ 0000000180017600 f   libucrtd:exit.obj
 0001:00016600       ??R<lambda_6aaa2265f5b6a89667e7d7630012e97a>@@QEBA@XZ 0000000180017600 f   libucrtd:onexit.obj
 0001:00016600       ??R<lambda_f7f22ab5edc0698d5f6905b0d3f44752>@@QEBA@XZ 0000000180017600 f   libucrtd:fflush.obj
 0001:00016620       ??R<lambda_6e4b09c48022b2350581041d5f6b0c4c>@@QEBA@XZ 0000000180017620 f   libucrtd:exit.obj
 0001:00016740       ??R<lambda_0ae27a3a962d80f24befdcbee591983d>@@QEBA@XZ 0000000180017740 f   libucrtd:per_thread_data.obj
 0001:00016740       ??R<lambda_2d41944a1d46af3157314b8a01080d33>@@QEBA@XZ 0000000180017740 f   libucrtd:per_thread_data.obj
 0001:00016740       ??R<lambda_74a0ef281e44d15e1136f792f539efb3>@@QEBA@XZ 0000000180017740 f   libucrtd:per_thread_data.obj
 0001:00016740       ??R<lambda_aa87e3671a710a21b5dc78c0bdf72e11>@@QEBA@XZ 0000000180017740 f   libucrtd:per_thread_data.obj
 0001:00016740       ??R<lambda_410d79af7f07d98d83a3f525b3859a53>@@QEBA@XZ 0000000180017740 f   libucrtd:wsetlocale.obj
 0001:00016740       ??R<lambda_efa02eb69bf647d2f7ff0dd6f1103f72>@@QEBA@XZ 0000000180017740 f   libucrtd:mbctype.obj
 0001:00016740       ??R<lambda_450d765d439847d4c735a33c368b5fc0>@@QEBA@XZ 0000000180017740 f   libucrtd:signal.obj
 0001:00016740       ??R<lambda_d80eeec6fff315bfe5c115232f3240e3>@@QEBA@XZ 0000000180017740 f   libucrtd:exit.obj
 0001:00016740       ??R<lambda_6a47f4c8fd0152770a780fc1d70204eb>@@QEBA@XZ 0000000180017740 f   libucrtd:onexit.obj
 0001:00016740       ??R<lambda_886d6c58226a84441f68b9f2b8217b83>@@QEBA@XZ 0000000180017740 f   libucrtd:fflush.obj
 0001:000167d0       ?atexit_exception_filter@@YAHK@Z 00000001800177d0 f   libucrtd:exit.obj
 0001:00016870       ?common_exit@@YAXHW4_crt_exit_cleanup_mode@@W4_crt_exit_return_mode@@@Z 0000000180017870 f   libucrtd:exit.obj
 0001:00016910       ?exit_or_terminate_process@@YAXI@Z 0000000180017910 f   libucrtd:exit.obj
 0001:00016960       ?get_invalid_value@environment_strings_traits@?A0x1bf47908@@SAPEA_WXZ 0000000180017960 f i libucrtd:get_environment_from_os.obj
 0001:00016970       ?is_managed_app@@YA_NXZ    0000000180017970 f   libucrtd:exit.obj
 0001:00016a20       ?should_call_terminate_process@@YA_NXZ 0000000180017a20 f   libucrtd:exit.obj
 0001:00016a50       ?try_cor_exit_process@@YAXI@Z 0000000180017a50 f   libucrtd:exit.obj
 0001:00016b90       ??$common_configure_argv@D@@YAHW4_crt_argv_mode@@@Z 0000000180017b90 f   libucrtd:argv_parsing.obj
 0001:00016f60       ??$parse_command_line@D@@YAXPEADPEAPEAD0PEA_K2@Z 0000000180017f60 f   libucrtd:argv_parsing.obj
 0001:00017450       ??R<lambda_df1553121bfa390f1154bd84936f2730>@@QEBA@XZ 0000000180018450 f   libucrtd:argv_parsing.obj
 0001:000174b0       ?pre_initialize@@YAXD@Z    00000001800184b0 f   libucrtd:environment_initialization.obj
 0001:000174b0       ?do_locale_initialization@@YAXD@Z 00000001800184b0 f   libucrtd:argv_parsing.obj
 0001:000174d0       ?expand_argv_wildcards@@YAHQEAPEADQEAPEAPEAD@Z 00000001800184d0 f   libucrtd:argv_parsing.obj
 0001:00017500       ?get_argv@@YAAEAPEAPEADD@Z 0000000180018500 f   libucrtd:argv_parsing.obj
 0001:00017510       ?get_command_line@@YAPEADD@Z 0000000180018510 f   libucrtd:argv_parsing.obj
 0001:00017520       ?should_copy_another_character@@YA_ND@Z 0000000180018520 f   libucrtd:argv_parsing.obj
 0001:000176c0       ??$common_initialize_environment_nolock@D@@YAHXZ 00000001800186c0 f   libucrtd:environment_initialization.obj
 0001:000177e0       ??$count_variables_in_environment_block@D@@YA?B_KQEAD@Z 00000001800187e0 f   libucrtd:environment_initialization.obj
 0001:00017860       ??$create_environment@D@@YAQEAPEADQEAD@Z 0000000180018860 f   libucrtd:environment_initialization.obj
 0001:00017a70       ??$free_environment@D@@YAXQEAPEAD@Z 0000000180018a70 f   libucrtd:environment_initialization.obj
 0001:00017a70       ??$free_environment@_W@@YAXQEAPEA_W@Z 0000000180018a70 f   libucrtd:environment_initialization.obj
 0001:00017c40       ??$uninitialize_environment_internal@D@@YAXAEAPEAPEAD@Z 0000000180018c40 f   libucrtd:environment_initialization.obj
 0001:00017c80       ??$uninitialize_environment_internal@_W@@YAXAEAPEAPEA_W@Z 0000000180018c80 f   libucrtd:environment_initialization.obj
 0001:00017cc0       ?get_dual_state_environment_nolock@@YAAEAV?$dual_state_global@PEAPEAD@__crt_state_management@@D@Z 0000000180018cc0 f   libucrtd:environment_initialization.obj
 0001:00017cd0       ?get_environment_nolock@@YAAEAPEAPEADD@Z 0000000180018cd0 f   libucrtd:environment_initialization.obj
 0001:00017cf0       ?get_initial_environment@@YAAEAPEAPEADD@Z 0000000180018cf0 f   libucrtd:environment_initialization.obj
 0001:00017d00       ?get_initial_environment@@YAAEAPEAPEA_W_W@Z 0000000180018d00 f   libucrtd:environment_initialization.obj
 0001:00017e30       ??$?RV<lambda_6a47f4c8fd0152770a780fc1d70204eb>@@AEAV<lambda_d121dba8a4adeaf3a9819e48611155df>@@V<lambda_6aaa2265f5b6a89667e7d7630012e97a>@@@?$__crt_seh_guarded_call@H@@QEAAH$$QEAV<lambda_6a47f4c8fd0152770a780fc1d70204eb>@@AEAV<lambda_d121dba8a4adeaf3a9819e48611155df>@@$$QEAV<lambda_6aaa2265f5b6a89667e7d7630012e97a>@@@Z 0000000180018e30 f   libucrtd:onexit.obj
 0001:00017e80       ??$__acrt_lock_and_call@V<lambda_d121dba8a4adeaf3a9819e48611155df>@@@@YAHW4__acrt_lock_id@@$$QEAV<lambda_d121dba8a4adeaf3a9819e48611155df>@@@Z 0000000180018e80 f   libucrtd:onexit.obj
 0001:00017ee0       ??R<lambda_d121dba8a4adeaf3a9819e48611155df>@@QEBA@XZ 0000000180018ee0 f   libucrtd:onexit.obj
 0001:000181d0       initialize_global_variables 00000001800191d0 f   libucrtd:initialization.obj
 0001:000181f0       initialize_c               00000001800191f0 f   libucrtd:initialization.obj
 0001:00018220       uninitialize_c             0000000180019220 f   libucrtd:initialization.obj
 0001:00018220       uninitialize_global_state_isolation 0000000180019220 f   libucrtd:initialization.obj
 0001:00018230       initialize_environment     0000000180019230 f   libucrtd:initialization.obj
 0001:00018230       initialize_global_state_isolation 0000000180019230 f   libucrtd:initialization.obj
 0001:00018240       uninitialize_environment   0000000180019240 f   libucrtd:initialization.obj
 0001:00018270       initialize_pointers        0000000180019270 f   libucrtd:initialization.obj
 0001:000182d0       uninitialize_vcruntime     00000001800192d0 f   libucrtd:initialization.obj
 0001:000182f0       uninitialize_allocated_memory 00000001800192f0 f   libucrtd:initialization.obj
 0001:00018330       uninitialize_allocated_io_buffers 0000000180019330 f   libucrtd:initialization.obj
 0001:000183b0       report_memory_leaks        00000001800193b0 f   libucrtd:initialization.obj
 0001:000183e0       ??$uninitialize@V<lambda_af27fe6ede5d83bbdbd622796c194e9c>@@@?$dual_state_global@PEAU__crt_multibyte_data@@@__crt_state_management@@QEAAX$$QEAV<lambda_af27fe6ede5d83bbdbd622796c194e9c>@@@Z 00000001800193e0 f   libucrtd:initialization.obj
 0001:00018440       ??R<lambda_af27fe6ede5d83bbdbd622796c194e9c>@@QEBA@AEAPEAU__crt_multibyte_data@@@Z 0000000180019440 f   libucrtd:initialization.obj
 0001:00018700       ?block_from_header@@YAPEAEQEAU_CrtMemBlockHeader@@@Z 0000000180019700 f   libucrtd:debug_heap.obj
 0001:00018710       ?check_block@@YA_NQEAU_CrtMemBlockHeader@@@Z 0000000180019710 f   libucrtd:debug_heap.obj
 0001:00018c80       ?check_bytes@@YA_NQEBEE_K@Z 0000000180019c80 f   libucrtd:debug_heap.obj
 0001:00018cf0       ?dump_all_object_since_nolock@@YAXQEBU_CrtMemState@@@Z 0000000180019cf0 f   libucrtd:debug_heap.obj
 0001:00019170       ?free_dbg_nolock@@YAXQEAXH@Z 000000018001a170 f   libucrtd:debug_heap.obj
 0001:000198f0       ?header_from_block@@YAPEAU_CrtMemBlockHeader@@QEBX@Z 000000018001a8f0 f   libucrtd:debug_heap.obj
 0001:00019900       ?heap_alloc_dbg@@YAPEAX_KHQEBDH@Z 000000018001a900 f   libucrtd:debug_heap.obj
 0001:000199a0       ?heap_alloc_dbg_internal@@YAPEAX_KHQEBDH@Z 000000018001a9a0 f   libucrtd:debug_heap.obj
 0001:00019df0       ?is_bad_read_pointer@@YA_NQEBX_K@Z 000000018001adf0 f   libucrtd:debug_heap.obj
 0001:00019f00       ?is_block_an_aligned_allocation@@YA_NQEBX@Z 000000018001af00 f   libucrtd:debug_heap.obj
 0001:00019f40       ?is_block_type_valid@@YA_NH@Z 000000018001af40 f   libucrtd:debug_heap.obj
 0001:00019f90       ?print_block_data@@YAXQEAU__crt_locale_pointers@@QEAU_CrtMemBlockHeader@@@Z 000000018001af90 f   libucrtd:debug_heap.obj
 0001:0001a1c0       ?realloc_dbg_nolock@@YAPEAXQEAXQEA_KHQEBDH_N@Z 000000018001b1c0 f   libucrtd:debug_heap.obj
 0001:0001aa00       ?validate_heap_if_required_nolock@@YAXXZ 000000018001ba00 f   libucrtd:debug_heap.obj
 0001:0001b820       ??$common_tcscpy_s@D@@YAHQEAD_KQEBD@Z 000000018001c820 f   libucrtd:strcpy_s.obj
 0001:0001bd30       $$000000                   000000018001cd30     libucrtd:strcmp.obj
 0001:0001bdb0       $$000000                   000000018001cdb0     libucrtd:strlen.obj
 0001:0001c960       ??$common_vsnprintf_s@D@@YAH_KQEAD00QEBDAEAV__crt_cached_ptd_host@@1@Z 000000018001d960 f   libucrtd:output.obj
 0001:0001d040       ??$common_vsnprintf_s@_W@@YAH_KQEA_W00QEB_WAEAV__crt_cached_ptd_host@@QEAD@Z 000000018001e040 f   libucrtd:output.obj
 0001:0001d730       ??$common_vsprintf@Vformat_validation_base@__crt_stdio_output@@D@@YAH_KQEAD0QEBDAEAV__crt_cached_ptd_host@@1@Z 000000018001e730 f   libucrtd:output.obj
 0001:0001dbf0       ??$common_vsprintf@Vformat_validation_base@__crt_stdio_output@@_W@@YAH_KQEA_W0QEB_WAEAV__crt_cached_ptd_host@@QEAD@Z 000000018001ebf0 f   libucrtd:output.obj
 0001:0001e0a0       ??$common_vsprintf_s@D@@YAH_KQEAD0QEBDAEAV__crt_cached_ptd_host@@1@Z 000000018001f0a0 f   libucrtd:output.obj
 0001:000234d4       $LN39                      00000001800244d4     libucrtd:output.obj
 0001:00023898       $LN39                      0000000180024898     libucrtd:output.obj
 0001:000244cc       $LN54                      00000001800254cc     libucrtd:output.obj
 0001:000244f4       $LN53                      00000001800254f4     libucrtd:output.obj
 0001:0002498c       $LN54                      000000018002598c     libucrtd:output.obj
 0001:000249b4       $LN53                      00000001800259b4     libucrtd:output.obj
 0001:00024e48       $LN54                      0000000180025e48     libucrtd:output.obj
 0001:00024e78       $LN53                      0000000180025e78     libucrtd:output.obj
 0001:000253cc       $LN54                      00000001800263cc     libucrtd:output.obj
 0001:000253fc       $LN53                      00000001800263fc     libucrtd:output.obj
 0001:00025680       $LN19                      0000000180026680     libucrtd:output.obj
 0001:000285b0       ??$common_message_window@D@@YAHHQEAXQEBD111@Z 00000001800295b0 f   libucrtd:dbgrpt.obj
 0001:00028c90       ??$common_message_window@_W@@YAHHQEAXQEB_W111@Z 0000000180029c90 f   libucrtd:dbgrpt.obj
 0001:000294a0       ?get_output_message_format@@YAPEB_WD@Z 000000018002a4a0 f   libucrtd:dbgrpt.obj
 0001:000294b0       ?get_output_message_format@@YAPEB_W_W@Z 000000018002a4b0 f   libucrtd:dbgrpt.obj
 0001:000294c0       ?get_program_name_unknown_text@@YAPEBDD@Z 000000018002a4c0 f   libucrtd:dbgrpt.obj
 0001:000294d0       ?get_program_name_unknown_text@@YAPEB_W_W@Z 000000018002a4d0 f   libucrtd:dbgrpt.obj
 0001:00029770       $$000000                   000000018002a770     libucrtd:strncmp.obj
 0001:00029b20       $$000000                   000000018002ab20     libucrtd:remainder_piby2f_forasm.obj
 0001:00029c70       $$000000                   000000018002ac70     libucrtd:remainder_piby2_forfma3.obj
 0001:00029f10       _sincosf_special           000000018002af10 f   libucrtd:sincos_special.obj
 0001:0002a250       $$000000                   000000018002b250     libucrtd:remainder_piby2f_forc.obj
 0001:0002a3e0       _call_matherr              000000018002b3e0 f   libucrtd:libm_error.obj
 0001:0002a470       _exception_enabled         000000018002b470 f   libucrtd:libm_error.obj
 0001:0002a960       ??$?RV<lambda_0ae27a3a962d80f24befdcbee591983d>@@AEAV<lambda_8d0ee55de4b1038c4002e0adecdf1839>@@V<lambda_dc504788e8f1664fe9b84e20bfb512f2>@@@?$__crt_seh_guarded_call@X@@QEAAX$$QEAV<lambda_0ae27a3a962d80f24befdcbee591983d>@@AEAV<lambda_8d0ee55de4b1038c4002e0adecdf1839>@@$$QEAV<lambda_dc504788e8f1664fe9b84e20bfb512f2>@@@Z 000000018002b960 f   libucrtd:per_thread_data.obj
 0001:0002a9a0       ??$?RV<lambda_2d41944a1d46af3157314b8a01080d33>@@AEAV<lambda_8f455de75cd7d7f24b4096f044d8b9e6>@@V<lambda_aa500f224e6afead328df44964fe2772>@@@?$__crt_seh_guarded_call@X@@QEAAX$$QEAV<lambda_2d41944a1d46af3157314b8a01080d33>@@AEAV<lambda_8f455de75cd7d7f24b4096f044d8b9e6>@@$$QEAV<lambda_aa500f224e6afead328df44964fe2772>@@@Z 000000018002b9a0 f   libucrtd:per_thread_data.obj
 0001:0002a9e0       ??$?RV<lambda_74a0ef281e44d15e1136f792f539efb3>@@AEAV<lambda_e157831efee4ea0afb0a2ace5dd5fd0d>@@V<lambda_04ddeca75b7c13fd67716e8dfcef87ee>@@@?$__crt_seh_guarded_call@X@@QEAAX$$QEAV<lambda_74a0ef281e44d15e1136f792f539efb3>@@AEAV<lambda_e157831efee4ea0afb0a2ace5dd5fd0d>@@$$QEAV<lambda_04ddeca75b7c13fd67716e8dfcef87ee>@@@Z 000000018002b9e0 f   libucrtd:per_thread_data.obj
 0001:0002aa20       ??$?RV<lambda_aa87e3671a710a21b5dc78c0bdf72e11>@@AEAV<lambda_92619d2358a28f41a33ba319515a20b9>@@V<lambda_6992ecaafeb10aed2b74cb1fae11a551>@@@?$__crt_seh_guarded_call@X@@QEAAX$$QEAV<lambda_aa87e3671a710a21b5dc78c0bdf72e11>@@AEAV<lambda_92619d2358a28f41a33ba319515a20b9>@@$$QEAV<lambda_6992ecaafeb10aed2b74cb1fae11a551>@@@Z 000000018002ba20 f   libucrtd:per_thread_data.obj
 0001:0002aa60       ??$__acrt_lock_and_call@V<lambda_8d0ee55de4b1038c4002e0adecdf1839>@@@@YAXW4__acrt_lock_id@@$$QEAV<lambda_8d0ee55de4b1038c4002e0adecdf1839>@@@Z 000000018002ba60 f   libucrtd:per_thread_data.obj
 0001:0002aac0       ??$__acrt_lock_and_call@V<lambda_8f455de75cd7d7f24b4096f044d8b9e6>@@@@YAXW4__acrt_lock_id@@$$QEAV<lambda_8f455de75cd7d7f24b4096f044d8b9e6>@@@Z 000000018002bac0 f   libucrtd:per_thread_data.obj
 0001:0002ab20       ??$__acrt_lock_and_call@V<lambda_92619d2358a28f41a33ba319515a20b9>@@@@YAXW4__acrt_lock_id@@$$QEAV<lambda_92619d2358a28f41a33ba319515a20b9>@@@Z 000000018002bb20 f   libucrtd:per_thread_data.obj
 0001:0002ab80       ??$__acrt_lock_and_call@V<lambda_e157831efee4ea0afb0a2ace5dd5fd0d>@@@@YAXW4__acrt_lock_id@@$$QEAV<lambda_e157831efee4ea0afb0a2ace5dd5fd0d>@@@Z 000000018002bb80 f   libucrtd:per_thread_data.obj
 0001:0002abe0       ??R<lambda_8d0ee55de4b1038c4002e0adecdf1839>@@QEBA@XZ 000000018002bbe0 f   libucrtd:per_thread_data.obj
 0001:0002ac00       ??R<lambda_8f455de75cd7d7f24b4096f044d8b9e6>@@QEBA@XZ 000000018002bc00 f   libucrtd:per_thread_data.obj
 0001:0002ac20       ??R<lambda_92619d2358a28f41a33ba319515a20b9>@@QEBA@XZ 000000018002bc20 f   libucrtd:per_thread_data.obj
 0001:0002ac50       ??R<lambda_e157831efee4ea0afb0a2ace5dd5fd0d>@@QEBA@XZ 000000018002bc50 f   libucrtd:per_thread_data.obj
 0001:0002acc0       ?construct_ptd@@YAXQEAU__acrt_ptd@@QEAPEAU__crt_locale_data@@@Z 000000018002bcc0 f   libucrtd:per_thread_data.obj
 0001:0002ada0       ?construct_ptd_array@@YAXQEAU__acrt_ptd@@@Z 000000018002bda0 f   libucrtd:per_thread_data.obj
 0001:0002ae10       ?destroy_fls@@YAXPEAX@Z    000000018002be10 f   libucrtd:per_thread_data.obj
 0001:0002ae50       ?destroy_ptd@@YAXQEAU__acrt_ptd@@@Z 000000018002be50 f   libucrtd:per_thread_data.obj
 0001:0002af80       ?destroy_ptd_array@@YAXQEAU__acrt_ptd@@@Z 000000018002bf80 f   libucrtd:per_thread_data.obj
 0001:0002afd0       ?internal_get_ptd_head@@YAPEAU__acrt_ptd@@XZ 000000018002bfd0 f   libucrtd:per_thread_data.obj
 0001:0002b120       ?internal_getptd_noexit@@YAPEAU__acrt_ptd@@AEBV__crt_scoped_get_last_error_reset@@_K@Z 000000018002c120 f   libucrtd:per_thread_data.obj
 0001:0002b160       ?internal_getptd_noexit@@YAPEAU__acrt_ptd@@XZ 000000018002c160 f   libucrtd:per_thread_data.obj
 0001:0002b1a0       ?replace_current_thread_locale_nolock@@YAXQEAU__acrt_ptd@@QEAU__crt_locale_data@@@Z 000000018002c1a0 f   libucrtd:per_thread_data.obj
 0001:0002b260       ?try_get_ptd_head@@YAPEAU__acrt_ptd@@XZ 000000018002c260 f   libucrtd:per_thread_data.obj
 0001:0002b5a0       ??$get_cached_win_policy@Udeveloper_information_policy_properties@?1??__acrt_get_developer_information_policy@@YA?AW4developer_information_policy@@XZ@@@YA?AW4developer_information_policy@@W4AppPolicyShowDeveloperDiagnostic@@@Z 000000018002c5a0 f   libucrtd:win_policies.obj
 0001:0002b660       ??$get_cached_win_policy@Uwindowing_model_policy_properties@?1??__acrt_get_windowing_model_policy@@YA?AW4windowing_model_policy@@XZ@@@YA?AW4windowing_model_policy@@W4AppPolicyWindowingModel@@@Z 000000018002c660 f   libucrtd:win_policies.obj
 0001:0002b720       ??$get_win_policy@Uprocess_end_policy_properties@?1??__acrt_get_process_end_policy@@YA?AW4process_end_policy@@XZ@@@YA?AW4process_end_policy@@W4AppPolicyProcessTerminationMethod@@@Z 000000018002c720 f   libucrtd:win_policies.obj
 0001:0002b760       ?appmodel_get_policy@developer_information_policy_properties@?1??__acrt_get_developer_information_policy@@YA?AW4developer_information_policy@@XZ@SAJPEAW4AppPolicyShowDeveloperDiagnostic@@@Z 000000018002c760 f   libucrtd:win_policies.obj
 0001:0002b780       ?appmodel_get_policy@process_end_policy_properties@?1??__acrt_get_process_end_policy@@YA?AW4process_end_policy@@XZ@SAJPEAW4AppPolicyProcessTerminationMethod@@@Z 000000018002c780 f   libucrtd:win_policies.obj
 0001:0002b7a0       ?appmodel_get_policy@windowing_model_policy_properties@?1??__acrt_get_windowing_model_policy@@YA?AW4windowing_model_policy@@XZ@SAJPEAW4AppPolicyWindowingModel@@@Z 000000018002c7a0 f   libucrtd:win_policies.obj
 0001:0002b7c0       ?appmodel_policy_to_policy_type@developer_information_policy_properties@?1??__acrt_get_developer_information_policy@@YA?AW4developer_information_policy@@XZ@SA?AW43@J@Z 000000018002c7c0 f   libucrtd:win_policies.obj
 0001:0002b7e0       ?appmodel_policy_to_policy_type@process_end_policy_properties@?1??__acrt_get_process_end_policy@@YA?AW4process_end_policy@@XZ@SA?AW43@W4AppPolicyProcessTerminationMethod@@@Z 000000018002c7e0 f   libucrtd:win_policies.obj
 0001:0002b800       ?appmodel_policy_to_policy_type@windowing_model_policy_properties@?1??__acrt_get_windowing_model_policy@@YA?AW4windowing_model_policy@@XZ@SA?AW43@J@Z 000000018002c800 f   libucrtd:win_policies.obj
 0001:0002ba30       ?<lambda_invoker_cdecl>@<lambda_a1ce4c8ae42411fd470c77163914f50e>@@CAHPEBX0@Z 000000018002ca30 f   libucrtd:argv_wildcards.obj
 0001:0002be60       ??$common_expand_argv_wildcards@D@@YAHQEAPEADQEAPEAPEAD@Z 000000018002ce60 f   libucrtd:argv_wildcards.obj
 0001:0002c290       ??$copy_and_add_argument_to_buffer@D@@YAHQEBD0_KAEAV?$argument_list@D@?A0x5f5c8891@@@Z 000000018002d290 f   libucrtd:argv_wildcards.obj
 0001:0002c440       ??$expand_argument_wildcards@D@@YAHQEAD0AEAV?$argument_list@D@?A0x5f5c8891@@@Z 000000018002d440 f   libucrtd:argv_wildcards.obj
 0001:0002c930       ??0?$argument_list@D@?A0x5f5c8891@@QEAA@XZ 000000018002d930 f   libucrtd:argv_wildcards.obj
 0001:0002c9c0       ??1?$argument_list@D@?A0x5f5c8891@@QEAA@XZ 000000018002d9c0 f   libucrtd:argv_wildcards.obj
 0001:0002ca30       ??B<lambda_a1ce4c8ae42411fd470c77163914f50e>@@QEBAP6AHPEBX0@ZXZ 000000018002da30 f   libucrtd:argv_wildcards.obj
 0001:0002ca90       ??R<lambda_a1ce4c8ae42411fd470c77163914f50e>@@QEBAHPEBX0@Z 000000018002da90 f   libucrtd:argv_wildcards.obj
 0001:0002cad0       ??R<lambda_cfae5a0e6efa98e0d1aa03c4cec8f74e>@@QEBA@D@Z 000000018002dad0 f   libucrtd:argv_wildcards.obj
 0001:0002cde0       ?append@?$argument_list@D@?A0x5f5c8891@@QEAAHQEAD@Z 000000018002dde0 f   libucrtd:argv_wildcards.obj
 0001:0002cf20       ?end@?$argument_list@D@?A0x5f5c8891@@QEBAPEAPEADXZ 000000018002df20 f   libucrtd:argv_wildcards.obj
 0001:0002cf30       ?expand_if_necessary@?$argument_list@D@?A0x5f5c8891@@AEAAHXZ 000000018002df30 f   libucrtd:argv_wildcards.obj
 0001:0002d110       ?get_file_name@@YAPEADQEAV?$__crt_win32_buffer@DU__crt_win32_buffer_internal_dynamic_resizing@@@@QEA_W@Z 000000018002e110 f   libucrtd:argv_wildcards.obj
 0001:0002d160       ?get_wide@@YAPEA_WQEAV?$__crt_win32_buffer@_WU__crt_win32_buffer_internal_dynamic_resizing@@@@QEAD@Z 000000018002e160 f   libucrtd:argv_wildcards.obj
 0001:0002d1b0       ?previous_character@@YAPEADQEAD0@Z 000000018002e1b0 f   libucrtd:argv_wildcards.obj
 0001:0002d240       ?size@?$argument_list@D@?A0x5f5c8891@@QEBA_KXZ 000000018002e240 f   libucrtd:argv_wildcards.obj
 0001:0002d7a0       ??$?RV<lambda_efa02eb69bf647d2f7ff0dd6f1103f72>@@AEAV<lambda_bd5a608237428601b7e45fbdc72b1ae8>@@V<lambda_728235dc0fc2b1f82d1fa5b3e7102d8f>@@@?$__crt_seh_guarded_call@X@@QEAAX$$QEAV<lambda_efa02eb69bf647d2f7ff0dd6f1103f72>@@AEAV<lambda_bd5a608237428601b7e45fbdc72b1ae8>@@$$QEAV<lambda_728235dc0fc2b1f82d1fa5b3e7102d8f>@@@Z 000000018002e7a0 f   libucrtd:mbctype.obj
 0001:0002d7e0       ??$__acrt_lock_and_call@V<lambda_bd5a608237428601b7e45fbdc72b1ae8>@@@@YAXW4__acrt_lock_id@@$$QEAV<lambda_bd5a608237428601b7e45fbdc72b1ae8>@@@Z 000000018002e7e0 f   libucrtd:mbctype.obj
 0001:0002d920       ??R<lambda_bd5a608237428601b7e45fbdc72b1ae8>@@QEBA@XZ 000000018002e920 f   libucrtd:mbctype.obj
 0001:0002da50       ?CPtoLocaleName@@YAPEB_WH@Z 000000018002ea50 f   libucrtd:mbctype.obj
 0001:0002daf0       ?getSystemCP@@YAHH@Z       000000018002eaf0 f   libucrtd:mbctype.obj
 0001:0002dbd0       ?setSBCS@@YAXPEAU__crt_multibyte_data@@@Z 000000018002ebd0 f   libucrtd:mbctype.obj
 0001:0002dcd0       ?setSBUpLow@@YAXPEAU__crt_multibyte_data@@@Z 000000018002ecd0 f   libucrtd:mbctype.obj
 0001:0002e0c0       ?setmbcp_internal@@YAHH_NQEAU__acrt_ptd@@QEAPEAU__crt_multibyte_data@@@Z 000000018002f0c0 f   libucrtd:mbctype.obj
 0001:0002e340       ?update_thread_multibyte_data_internal@@YAPEAU__crt_multibyte_data@@QEAU__acrt_ptd@@QEAPEAU1@@Z 000000018002f340 f   libucrtd:mbctype.obj
 0001:0002ea90       memcpy_s                   000000018002fa90 f   libucrtd:cfout.obj
 0001:0002ea90       memcpy_s                   000000018002fa90 f   libucrtd:mbctype.obj
 0001:0002ebd0       ?x_ismbbtype_l@@YAHPEAU__crt_locale_pointers@@IHH@Z 000000018002fbd0 f   libucrtd:ismbbyte.obj
 0001:0002ecf0       ??$common_tcscpy_s@_W@@YAHQEA_W_KQEB_W@Z 000000018002fcf0 f   libucrtd:wcscpy_s.obj
 0001:0002f220       ??$common_strnlen@$00G@@YA_KQEBG_K@Z 0000000180030220 f   libucrtd:strnlen.obj
 0001:0002f280       ??$common_strnlen@$0A@E@@YA_KQEBE_K@Z 0000000180030280 f   libucrtd:strnlen.obj
 0001:0002f2e0       ??$common_strnlen@$0A@G@@YA_KQEBG_K@Z 00000001800302e0 f   libucrtd:strnlen.obj
 0001:0002f340       ??$common_strnlen_c@$00G@@YA_KQEBG_K@Z 0000000180030340 f   libucrtd:strnlen.obj
 0001:0002f3c0       ??$common_strnlen_c@$0A@E@@YA_KQEBE_K@Z 00000001800303c0 f   libucrtd:strnlen.obj
 0001:0002f440       ??$common_strnlen_c@$0A@G@@YA_KQEBG_K@Z 0000000180030440 f   libucrtd:strnlen.obj
 0001:0002f4c0       ??$common_strnlen_simd@$00$00G@@YA_KQEBG_K@Z 00000001800304c0 f   libucrtd:strnlen.obj
 0001:0002f750       ??$common_strnlen_simd@$00$0A@G@@YA_KQEBG_K@Z 0000000180030750 f   libucrtd:strnlen.obj
 0001:0002fa30       ??$common_strnlen_simd@$0A@$00E@@YA_KQEBE_K@Z 0000000180030a30 f   libucrtd:strnlen.obj
 0001:0002fca0       ??$common_strnlen_simd@$0A@$00G@@YA_KQEBG_K@Z 0000000180030ca0 f   libucrtd:strnlen.obj
 0001:0002ff30       ??$common_strnlen_simd@$0A@$0A@E@@YA_KQEBE_K@Z 0000000180030f30 f   libucrtd:strnlen.obj
 0001:000301f0       ??$common_strnlen_simd@$0A@$0A@G@@YA_KQEBG_K@Z 00000001800311f0 f   libucrtd:strnlen.obj
 0001:000304d0       ??$last_reached@$00@@YA_NQEBX0@Z 00000001800314d0 f   libucrtd:strnlen.obj
 0001:000304e0       ??$last_reached@$0A@@@YA_NQEBX0@Z 00000001800314e0 f   libucrtd:strnlen.obj
 0001:00030720       ?filter_mbtowcs_flags@@YAKIK@Z 0000000180031720 f   libucrtd:multibytetowidechar.obj
 0001:0003080c       $LN32                      000000018003180c     libucrtd:multibytetowidechar.obj
 0001:00030890       ?filter_wcstomb_flags@@YAKIK@Z 0000000180031890 f   libucrtd:widechartomultibyte.obj
 0001:0003097c       $LN32                      000000018003197c     libucrtd:widechartomultibyte.obj
 0001:00030ad0       ??1?$__crt_unique_handle_t@Uenvironment_strings_traits@?A0x1bf47908@@@@QEAA@XZ 0000000180031ad0 f   libucrtd:get_environment_from_os.obj
 0001:00030af0       ?close@?$__crt_unique_handle_t@Uenvironment_strings_traits@?A0x1bf47908@@@@QEAAXXZ 0000000180031af0 f   libucrtd:get_environment_from_os.obj
 0001:00030b30       ?close@environment_strings_traits@?A0x1bf47908@@SA_NPEA_W@Z 0000000180031b30 f   libucrtd:get_environment_from_os.obj
 0001:00030b50       ?find_end_of_double_null_terminated_sequence@@YAPEB_WQEB_W@Z 0000000180031b50 f   libucrtd:get_environment_from_os.obj
 0001:00030ba0       ?is_valid@?$__crt_unique_handle_t@Uenvironment_strings_traits@?A0x1bf47908@@@@QEBA_NXZ 0000000180031ba0 f   libucrtd:get_environment_from_os.obj
 0001:00030e10       ?try_get_AppPolicyGetProcessTerminationMethod@@YAP6AJPEAXPEAW4AppPolicyProcessTerminationMethod@@@ZXZ 0000000180031e10 f   libucrtd:winapi_thunks.obj
 0001:00030e40       ?try_get_AppPolicyGetShowDeveloperDiagnostic@@YAP6AJPEAXPEAW4AppPolicyShowDeveloperDiagnostic@@@ZXZ 0000000180031e40 f   libucrtd:winapi_thunks.obj
 0001:00030e70       ?try_get_AppPolicyGetWindowingModel@@YAP6AJPEAXPEAW4AppPolicyWindowingModel@@@ZXZ 0000000180031e70 f   libucrtd:winapi_thunks.obj
 0001:00030ea0       ?try_get_AreFileApisANSI@@YAP6AHXZXZ 0000000180031ea0 f   libucrtd:winapi_thunks.obj
 0001:00030ed0       ?try_get_GetActiveWindow@@YAP6APEAUHWND__@@XZXZ 0000000180031ed0 f   libucrtd:winapi_thunks.obj
 0001:00030f00       ?try_get_GetLastActivePopup@@YAP6APEAUHWND__@@PEAU1@@ZXZ 0000000180031f00 f   libucrtd:winapi_thunks.obj
 0001:00030f30       ?try_get_GetProcessWindowStation@@YAP6APEAUHWINSTA__@@XZXZ 0000000180031f30 f   libucrtd:winapi_thunks.obj
 0001:00030f60       ?try_get_GetUserObjectInformationW@@YAP6AHPEAXH0KPEAK@ZXZ 0000000180031f60 f   libucrtd:winapi_thunks.obj
 0001:00030f90       ?try_get_InitializeCriticalSectionEx@@YAP6AHPEAU_RTL_CRITICAL_SECTION@@KK@ZXZ 0000000180031f90 f   libucrtd:winapi_thunks.obj
 0001:00030fc0       ?try_get_LCMapStringEx@@YAP6AHPEB_WK0HPEA_WHPEAU_nlsversioninfo@@PEAX_J@ZXZ 0000000180031fc0 f   libucrtd:winapi_thunks.obj
 0001:00030ff0       ?try_get_LocaleNameToLCID@@YAP6AKPEB_WK@ZXZ 0000000180031ff0 f   libucrtd:winapi_thunks.obj
 0001:00031020       ?try_get_MessageBoxA@@YAP6AHPEAUHWND__@@PEBD1I@ZXZ 0000000180032020 f   libucrtd:winapi_thunks.obj
 0001:00031050       ?try_get_MessageBoxW@@YAP6AHPEAUHWND__@@PEB_W1I@ZXZ 0000000180032050 f   libucrtd:winapi_thunks.obj
 0001:00031080       ?try_get_first_available_module@@YAPEAUHINSTANCE__@@QEBW4module_id@?A0x391cf84c@@0@Z 0000000180032080 f   libucrtd:winapi_thunks.obj
 0001:000310e0       ?try_get_function@@YAPEAXW4function_id@?A0x391cf84c@@QEBDQEBW4module_id@2@2@Z 00000001800320e0 f   libucrtd:winapi_thunks.obj
 0001:00031280       ?try_get_module@@YAPEAUHINSTANCE__@@W4module_id@?A0x391cf84c@@@Z 0000000180032280 f   libucrtd:winapi_thunks.obj
 0001:000313e0       ?try_get_proc_address_from_first_available_module@@YAPEAXQEBDQEBW4module_id@?A0x391cf84c@@1@Z 00000001800323e0 f   libucrtd:winapi_thunks.obj
 0001:00031430       ?try_load_library_from_system_directory@@YAPEAUHINSTANCE__@@QEB_W@Z 0000000180032430 f   libucrtd:winapi_thunks.obj
 0001:00031cb0       ?get_std_handle_id@@YAKH@Z 0000000180032cb0 f   libucrtd:ioinit.obj
 0001:00031d00       ?initialize_inherited_file_handles_nolock@@YAXXZ 0000000180032d00 f   libucrtd:ioinit.obj
 0001:00031eb0       ?initialize_stdio_handles_nolock@@YAXXZ 0000000180032eb0 f   libucrtd:ioinit.obj
 0001:00032370       ??$?RV<lambda_450d765d439847d4c735a33c368b5fc0>@@AEAV<lambda_44731a7d0e6d81c3e6aa82d741081786>@@V<lambda_601a2a7da3b7a96e9554ac7215c4b07c>@@@?$__crt_seh_guarded_call@P6AXH@Z@@QEAAP6AXH@Z$$QEAV<lambda_450d765d439847d4c735a33c368b5fc0>@@AEAV<lambda_44731a7d0e6d81c3e6aa82d741081786>@@$$QEAV<lambda_601a2a7da3b7a96e9554ac7215c4b07c>@@@Z 0000000180033370 f   libucrtd:signal.obj
 0001:000323c0       ??$__acrt_lock_and_call@V<lambda_44731a7d0e6d81c3e6aa82d741081786>@@@@YAP6AXH@ZW4__acrt_lock_id@@$$QEAV<lambda_44731a7d0e6d81c3e6aa82d741081786>@@@Z 00000001800333c0 f   libucrtd:signal.obj
 0001:00032420       ??R<lambda_44731a7d0e6d81c3e6aa82d741081786>@@QEBA@XZ 0000000180033420 f   libucrtd:signal.obj
 0001:00032450       ?get_global_action_nolock@@YAPEAP6AXH@ZH@Z 0000000180033450 f   libucrtd:signal.obj
 0001:000324e0       ?siglookup@@YAPEAU__crt_signal_action_t@@HQEAU1@@Z 00000001800334e0 f   libucrtd:signal.obj
 0001:00032aac       $LN63                      0000000180033aac     libucrtd:signal.obj
 0001:00032ff0       ?select_heap@@YAPEAXQEAX@Z 0000000180033ff0 f   libucrtd:free_base.obj
 0001:00033110       ?is_contraction_possible@@YA_N_K@Z 0000000180034110 f   libucrtd:expand.obj
 0001:000334f0       ??$?RV<lambda_410d79af7f07d98d83a3f525b3859a53>@@AEAV<lambda_3e16ef9562a7dcce91392c22ab16ea36>@@V<lambda_38119f0e861e05405d8a144b9b982f0a>@@@?$__crt_seh_guarded_call@X@@QEAAX$$QEAV<lambda_410d79af7f07d98d83a3f525b3859a53>@@AEAV<lambda_3e16ef9562a7dcce91392c22ab16ea36>@@$$QEAV<lambda_38119f0e861e05405d8a144b9b982f0a>@@@Z 00000001800344f0 f   libucrtd:wsetlocale.obj
 0001:00033530       ??$__acrt_lock_and_call@V<lambda_3e16ef9562a7dcce91392c22ab16ea36>@@@@YAXW4__acrt_lock_id@@$$QEAV<lambda_3e16ef9562a7dcce91392c22ab16ea36>@@@Z 0000000180034530 f   libucrtd:wsetlocale.obj
 0001:00033590       ??$uninitialize@V<lambda_363eea9039da1e8169e2d060c7fe5cbc>@@@?$dual_state_global@PEAU__crt_locale_data@@@__crt_state_management@@QEAAX$$QEAV<lambda_363eea9039da1e8169e2d060c7fe5cbc>@@@Z 0000000180034590 f   libucrtd:wsetlocale.obj
 0001:000335f0       ??R<lambda_363eea9039da1e8169e2d060c7fe5cbc>@@QEBA@AEAPEAU__crt_locale_data@@@Z 00000001800345f0 f   libucrtd:wsetlocale.obj
 0001:00033630       ??R<lambda_3e16ef9562a7dcce91392c22ab16ea36>@@QEBA@XZ 0000000180034630 f   libucrtd:wsetlocale.obj
 0001:00033700       ?issue_debug_notification@@YA_NQEB_W@Z 0000000180034700 f   libucrtd:report_runtime_error.obj
 0001:00033760       ?should_write_error_to_console@@YA_NXZ 0000000180034760 f   libucrtd:report_runtime_error.obj
 0001:000337a0       ?write_string_to_console@@YAXQEB_W@Z 00000001800347a0 f   libucrtd:report_runtime_error.obj
 0001:00033cb0       ?fe_to_nearest@@YA_NQEBN_KF@Z 0000000180034cb0 f   libucrtd:cvt.obj
 0001:00033e00       ?fp_format_a@@YAHQEBNPEAD_KQEAD2H_NIW4__acrt_rounding_mode@@AEAV__crt_cached_ptd_host@@@Z 0000000180034e00 f   libucrtd:cvt.obj
 0001:00034650       ?fp_format_e@@YAHQEBNQEAD_K12H_NIW4__acrt_rounding_mode@@AEAV__crt_cached_ptd_host@@@Z 0000000180035650 f   libucrtd:cvt.obj
 0001:00034830       ?fp_format_e_internal@@YAHQEAD_KH_NIQEAU_strflt@@2AEAV__crt_cached_ptd_host@@@Z 0000000180035830 f   libucrtd:cvt.obj
 0001:00034c60       ?fp_format_f@@YAHQEBNQEAD_K12HW4__acrt_rounding_mode@@AEAV__crt_cached_ptd_host@@@Z 0000000180035c60 f   libucrtd:cvt.obj
 0001:00034df0       ?fp_format_f_internal@@YAHQEAD_KHQEAU_strflt@@_NAEAV__crt_cached_ptd_host@@@Z 0000000180035df0 f   libucrtd:cvt.obj
 0001:00035030       ?fp_format_g@@YAHQEBNQEAD_K12H_NIW4__acrt_rounding_mode@@AEAV__crt_cached_ptd_host@@@Z 0000000180036030 f   libucrtd:cvt.obj
 0001:00035290       ?fp_format_nan_or_infinity@@YAHW4__acrt_fp_class@@_NPEAD_K1@Z 0000000180036290 f   libucrtd:cvt.obj
 0001:00035400       ?shift_bytes@@YAXQEAD_K0H@Z 0000000180036400 f   libucrtd:cvt.obj
 0001:00035450       ?should_round_up@@YA_NQEBN_KFW4__acrt_rounding_mode@@@Z 0000000180036450 f   libucrtd:cvt.obj
 0001:00035c18       $LN46                      0000000180036c18     libucrtd:cvt.obj
 0001:00035c3c       $LN45                      0000000180036c3c     libucrtd:cvt.obj
 0001:00038160       ??$common_show_message_box@_W@@YAHQEB_W0I@Z 0000000180039160 f   libucrtd:crtmbox.obj
 0001:00038500       ??$to_abstract_status@W4__acrt_fenv_machine_sse_status@@@@YA?AW4__acrt_fenv_abstract_status@@W4__acrt_fenv_machine_sse_status@@@Z 0000000180039500 f   libucrtd:_fenvutils.obj
 0001:00038520       ??$translate_control_exception_mask@W4__acrt_fenv_abstract_control@@W4__acrt_fenv_machine_sse_control@@@@YA?AW4__acrt_fenv_abstract_control@@W4__acrt_fenv_machine_sse_control@@@Z 0000000180039520 f   libucrtd:_fenvutils.obj
 0001:00038610       ??$translate_control_exception_mask@W4__acrt_fenv_machine_sse_control@@W4__acrt_fenv_abstract_control@@@@YA?AW4__acrt_fenv_machine_sse_control@@W4__acrt_fenv_abstract_control@@@Z 0000000180039610 f   libucrtd:_fenvutils.obj
 0001:00038700       ??$translate_control_rounding_control@W4__acrt_fenv_abstract_control@@W4__acrt_fenv_machine_sse_control@@@@YA?AW4__acrt_fenv_abstract_control@@W4__acrt_fenv_machine_sse_control@@@Z 0000000180039700 f   libucrtd:_fenvutils.obj
 0001:00038770       ??$translate_control_rounding_control@W4__acrt_fenv_machine_sse_control@@W4__acrt_fenv_abstract_control@@@@YA?AW4__acrt_fenv_machine_sse_control@@W4__acrt_fenv_abstract_control@@@Z 0000000180039770 f   libucrtd:_fenvutils.obj
 0001:000387e0       ??$translate_status@W4__acrt_fenv_abstract_status@@W4__acrt_fenv_machine_sse_status@@@@YA?AW4__acrt_fenv_abstract_status@@W4__acrt_fenv_machine_sse_status@@@Z 00000001800397e0 f   libucrtd:_fenvutils.obj
 0001:000388d0       ??$translate_status@W4__acrt_fenv_machine_sse_status@@W4__acrt_fenv_abstract_status@@@@YA?AW4__acrt_fenv_machine_sse_status@@W4__acrt_fenv_abstract_status@@@Z 00000001800398d0 f   libucrtd:_fenvutils.obj
 0001:00038b50       ?get_machine_sse_control@@YA?AW4__acrt_fenv_machine_sse_control@@XZ 0000000180039b50 f   libucrtd:_fenvutils.obj
 0001:00038b70       ?get_machine_sse_status@@YA?AW4__acrt_fenv_machine_sse_status@@XZ 0000000180039b70 f   libucrtd:_fenvutils.obj
 0001:00038b90       ?set_machine_sse_control@@YAXW4__acrt_fenv_machine_sse_control@@@Z 0000000180039b90 f   libucrtd:_fenvutils.obj
 0001:00038bf0       ?set_machine_sse_status@@YAXW4__acrt_fenv_machine_sse_status@@@Z 0000000180039bf0 f   libucrtd:_fenvutils.obj
 0001:00038c40       ?to_abstract_control@@YA?AW4__acrt_fenv_abstract_control@@W4__acrt_fenv_machine_sse_control@@@Z 0000000180039c40 f   libucrtd:_fenvutils.obj
 0001:00038ca0       ?to_machine_sse_control@@YA?AW4__acrt_fenv_machine_sse_control@@W4__acrt_fenv_abstract_control@@@Z 0000000180039ca0 f   libucrtd:_fenvutils.obj
 0001:00038d10       ?to_machine_sse_status@@YA?AW4__acrt_fenv_machine_sse_status@@W4__acrt_fenv_abstract_status@@@Z 0000000180039d10 f   libucrtd:_fenvutils.obj
 0001:00038d30       ?translate_control_denormal_control_from_sse@@YA?AW4__acrt_fenv_abstract_control@@W4__acrt_fenv_machine_sse_control@@@Z 0000000180039d30 f   libucrtd:_fenvutils.obj
 0001:00038db0       ?translate_control_denormal_control_to_sse@@YA?AW4__acrt_fenv_machine_sse_control@@W4__acrt_fenv_abstract_control@@@Z 0000000180039db0 f   libucrtd:_fenvutils.obj
 0001:00038ed0       $$000000                   0000000180039ed0     libucrtd:fpsr.obj
 0001:00039f30       ?shortsort@@YAXPEAD0_KP6AHPEBX2@Z@Z 000000018003af30 f   libucrtd:qsort.obj
 0001:0003a030       ?swap@@YAXPEAD0_K@Z        000000018003b030 f   libucrtd:qsort.obj
 0001:0003a8a0       ??$common_tcsncpy_s@_W@@YAHQEA_W_KQEB_W1@Z 000000018003b8a0 f   libucrtd:wcsncpy_s.obj
 0001:0003af90       ??$common_tcsncpy_s@D@@YAHQEAD_KQEBD1@Z 000000018003bf90 f   libucrtd:strncpy_s.obj
 0001:0003b660       fallbackMethod             000000018003c660 f   libucrtd:strpbrk.obj
 0001:0003bfc4       $LN87                      000000018003cfc4     libucrtd:strpbrk.obj
 0001:0003c000       $LN86                      000000018003d000     libucrtd:strpbrk.obj
 0001:0003c040       $LN85                      000000018003d040     libucrtd:strpbrk.obj
 0001:0003c6d0       ?__acrt_LCMapStringA_stat@@YAHPEAU__crt_locale_pointers@@PEB_WKPEBDHPEADHHH@Z 000000018003d6d0 f   libucrtd:lcmapstringa.obj
 0001:0003cd80       ?initialize_multibyte@@YAHXZ 000000018003dd80 f   libucrtd:multibyte_initializer.obj
 0001:0003cdb0       ?GetTableIndexFromLocaleName@@YAHPEB_W@Z 000000018003ddb0 f   libucrtd:lcidtoname_downlevel.obj
 0001:0003d720       ??$?RV<lambda_842d9ff0dc9ef11c61343bbaebe7f885>@@AEAV<lambda_c5860995281e5c4ce005b3de8f5874ee>@@V<lambda_d90129c13df834fdcbf8d2b88dafcf2d>@@@?$__crt_seh_guarded_call@X@@QEAAX$$QEAV<lambda_842d9ff0dc9ef11c61343bbaebe7f885>@@AEAV<lambda_c5860995281e5c4ce005b3de8f5874ee>@@$$QEAV<lambda_d90129c13df834fdcbf8d2b88dafcf2d>@@@Z 000000018003e720 f   libucrtd:fflush.obj
 0001:0003d760       ??$?RV<lambda_886d6c58226a84441f68b9f2b8217b83>@@AEAV<lambda_ab61a845afdef5b7c387490eaf3616ee>@@V<lambda_f7f22ab5edc0698d5f6905b0d3f44752>@@@?$__crt_seh_guarded_call@X@@QEAAX$$QEAV<lambda_886d6c58226a84441f68b9f2b8217b83>@@AEAV<lambda_ab61a845afdef5b7c387490eaf3616ee>@@$$QEAV<lambda_f7f22ab5edc0698d5f6905b0d3f44752>@@@Z 000000018003e760 f   libucrtd:fflush.obj
 0001:0003d7a0       ??$__acrt_lock_and_call@V<lambda_ab61a845afdef5b7c387490eaf3616ee>@@@@YAXW4__acrt_lock_id@@$$QEAV<lambda_ab61a845afdef5b7c387490eaf3616ee>@@@Z 000000018003e7a0 f   libucrtd:fflush.obj
 0001:0003d800       ??$__acrt_lock_stream_and_call@V<lambda_c5860995281e5c4ce005b3de8f5874ee>@@@@YAXQEAU_iobuf@@$$QEAV<lambda_c5860995281e5c4ce005b3de8f5874ee>@@@Z 000000018003e800 f   libucrtd:fflush.obj
 0001:0003d860       ??0<lambda_842d9ff0dc9ef11c61343bbaebe7f885>@@QEAA@AEBQEAU_iobuf@@@Z 000000018003e860 f   libucrtd:fflush.obj
 0001:0003d860       ??0<lambda_d90129c13df834fdcbf8d2b88dafcf2d>@@QEAA@AEBQEAU_iobuf@@@Z 000000018003e860 f   libucrtd:fflush.obj
 0001:0003d880       ??0<lambda_c5860995281e5c4ce005b3de8f5874ee>@@QEAA@AEBV__crt_stdio_stream@@AEAHAEB_N1@Z 000000018003e880 f   libucrtd:fflush.obj
 0001:0003d8e0       ??R<lambda_842d9ff0dc9ef11c61343bbaebe7f885>@@QEBA@XZ 000000018003e8e0 f   libucrtd:fflush.obj
 0001:0003d900       ??R<lambda_ab61a845afdef5b7c387490eaf3616ee>@@QEBA@XZ 000000018003e900 f   libucrtd:fflush.obj
 0001:0003d9f0       ??R<lambda_c5860995281e5c4ce005b3de8f5874ee>@@QEBA@XZ 000000018003e9f0 f   libucrtd:fflush.obj
 0001:0003daa0       ??R<lambda_d90129c13df834fdcbf8d2b88dafcf2d>@@QEBA@XZ 000000018003eaa0 f   libucrtd:fflush.obj
 0001:0003db10       ?_fflush_nolock_internal@@YAHQEAU_iobuf@@AEAV__crt_cached_ptd_host@@@Z 000000018003eb10 f   libucrtd:fflush.obj
 0001:0003dbb0       ?common_flush_all@@YAH_N@Z 000000018003ebb0 f   libucrtd:fflush.obj
 0001:0003dc20       ?common_flush_all_should_try_to_flush_stream@@YA_NV__crt_stdio_stream@@QEAH@Z 000000018003ec20 f   libucrtd:fflush.obj
 0001:0003dcd0       ?is_stream_allocated@@YA_NJ@Z 000000018003ecd0 f   libucrtd:fflush.obj
 0001:0003dd00       ?is_stream_flushable@@YA_NJ@Z 000000018003ed00 f   libucrtd:fflush.obj
 0001:0003dd30       ?is_stream_flushable_or_commitable@@YA_NJ@Z 000000018003ed30 f   libucrtd:fflush.obj
 0001:0003e270       ??$free_crt_array@D$01@@YAXAEAY01PEAD@Z 000000018003f270 f   libucrtd:inittime.obj
 0001:0003e270       ??$free_crt_array@_W$01@@YAXAEAY01PEA_W@Z 000000018003f270 f   libucrtd:inittime.obj
 0001:0003e290       ??$free_crt_array@D$06@@YAXAEAY06PEAD@Z 000000018003f290 f   libucrtd:inittime.obj
 0001:0003e290       ??$free_crt_array@_W$06@@YAXAEAY06PEA_W@Z 000000018003f290 f   libucrtd:inittime.obj
 0001:0003e2b0       ??$free_crt_array@D$0M@@@YAXAEAY0M@PEAD@Z 000000018003f2b0 f   libucrtd:inittime.obj
 0001:0003e2b0       ??$free_crt_array@_W$0M@@@YAXAEAY0M@PEA_W@Z 000000018003f2b0 f   libucrtd:inittime.obj
 0001:0003e2d0       ?free_crt_array_internal@@YAXQEAPEBX_K@Z 000000018003f2d0 f   libucrtd:inittime.obj
 0001:0003e4a0       ??$common_tcscat_s@_W@@YAHQEA_W_KQEB_W@Z 000000018003f4a0 f   libucrtd:wcscat_s.obj
 0001:0003ec60       ?check_trailing@@YA_NPEBDW4__acrt_has_trailing_digits@@@Z 000000018003fc60 f   libucrtd:_fptostr.obj
 0001:0003ecb0       ?should_round_up@@YA_NQEBD0HW4__acrt_has_trailing_digits@@W4__acrt_rounding_mode@@@Z 000000018003fcb0 f   libucrtd:_fptostr.obj
 0001:0003f360       ??$convert_to_fos_high_precision@N@@YA?AW4__acrt_has_trailing_digits@@NIW4__acrt_precision_style@@QEAHQEAD_K@Z 0000000180040360 f   libucrtd:cfout.obj
 0001:0003fa80       ??0fp_control_word_guard@?A0x71ca7cfb@@QEAA@II@Z 0000000180040a80 f   libucrtd:cfout.obj
 0001:0003fae0       ??0scoped_fp_state_reset@?A0x71ca7cfb@@QEAA@XZ 0000000180040ae0 f   libucrtd:cfout.obj
 0001:0003fb30       ??1fp_control_word_guard@?A0x71ca7cfb@@QEAA@XZ 0000000180040b30 f   libucrtd:cfout.obj
 0001:0003fb60       ??1scoped_fp_state_reset@?A0x71ca7cfb@@QEAA@XZ 0000000180040b60 f   libucrtd:cfout.obj
 0001:00041980       ??R<lambda_599026849492e2a71b24cce8b46aab16>@@QEBA_KPEBD@Z 0000000180042980 f   libucrtd:mbrtowc.obj
 0001:00042010       ??$common_xtox@KD@@YAHKQEAD_KI_N@Z 0000000180043010 f   libucrtd:xtoa.obj
 0001:00042250       ??$common_xtox@K_W@@YAHKQEA_W_KI_N@Z 0000000180043250 f   libucrtd:xtoa.obj
 0001:000424a0       ??$common_xtox_s@KD@@YAHKQEAD_KI_N@Z 00000001800434a0 f   libucrtd:xtoa.obj
 0001:00042850       ??$common_xtox_s@K_W@@YAHKQEA_W_KI_N@Z 0000000180043850 f   libucrtd:xtoa.obj
 0001:00042cc0       ?_mbstowcs_internal@@YAHPEA_KPEA_W_KPEBD2AEAV__crt_cached_ptd_host@@@Z 0000000180043cc0 f   libucrtd:mbstowcs.obj
 0001:000432a0       ?_mbstowcs_l_helper@@YA_KPEA_WPEBD_KAEAV__crt_cached_ptd_host@@@Z 00000001800442a0 f   libucrtd:mbstowcs.obj
 0001:00043850       ?_wcstombs_internal@@YAHPEA_KPEAD_KPEB_W2AEAV__crt_cached_ptd_host@@@Z 0000000180044850 f   libucrtd:wcstombs.obj
 0001:00043e20       ?_wcstombs_l_helper@@YA_KPEADPEB_W_KAEAV__crt_cached_ptd_host@@@Z 0000000180044e20 f   libucrtd:wcstombs.obj
 0001:000445b0       ?wcsncnt@@YA_KPEB_W_K@Z    00000001800455b0 f   libucrtd:wcstombs.obj
 0001:000446c0       ??$common_tcscat_s@D@@YAHQEAD_KQEBD@Z 00000001800456c0 f   libucrtd:strcat_s.obj
 0001:00044f50       ??$?RV<lambda_7d29013d608e9f25a034de83c9b9e983>@@AEAV<lambda_3e4146214822e0ea86c47ff907aef2ff>@@V<lambda_b869e5a4e1069fcb5c3da79c0d999133>@@@?$__crt_seh_guarded_call@H@@QEAAH$$QEAV<lambda_7d29013d608e9f25a034de83c9b9e983>@@AEAV<lambda_3e4146214822e0ea86c47ff907aef2ff>@@$$QEAV<lambda_b869e5a4e1069fcb5c3da79c0d999133>@@@Z 0000000180045f50 f   libucrtd:commit.obj
 0001:00044fa0       ??$__acrt_lowio_lock_fh_and_call@V<lambda_3e4146214822e0ea86c47ff907aef2ff>@@@@YAHH$$QEAV<lambda_3e4146214822e0ea86c47ff907aef2ff>@@@Z 0000000180045fa0 f   libucrtd:commit.obj
 0001:00045000       ??R<lambda_3e4146214822e0ea86c47ff907aef2ff>@@QEBA@XZ 0000000180046000 f   libucrtd:commit.obj
 0001:000450d0       ??R<lambda_19eaff14c5fe7be5b1b106a862eb1091>@@QEBA@XZ 00000001800460d0 f   libucrtd:close.obj
 0001:000450d0       ??R<lambda_7d29013d608e9f25a034de83c9b9e983>@@QEBA@XZ 00000001800460d0 f   libucrtd:commit.obj
 0001:000450f0       ??R<lambda_3ce37f5b621ab310299ea5f68cbdf3bb>@@QEBA@XZ 00000001800460f0 f   libucrtd:close.obj
 0001:000450f0       ??R<lambda_b869e5a4e1069fcb5c3da79c0d999133>@@QEBA@XZ 00000001800460f0 f   libucrtd:commit.obj
 0001:000452f0       ?write_binary_nolock@@YA?AUwrite_result@?A0x17268360@@HQEBDI@Z 00000001800462f0 f   libucrtd:write.obj
 0001:000453c0       ?write_double_translated_ansi_nolock@@YA?AUwrite_result@?A0x17268360@@HQEBDIAEAV__crt_cached_ptd_host@@@Z 00000001800463c0 f   libucrtd:write.obj
 0001:00046120       ?write_double_translated_unicode_nolock@@YA?AUwrite_result@?A0x17268360@@QEBDI@Z 0000000180047120 f   libucrtd:write.obj
 0001:00046280       ?write_requires_double_translation_nolock@@YA_NHAEAV__crt_cached_ptd_host@@@Z 0000000180047280 f   libucrtd:write.obj
 0001:00046390       ?write_text_ansi_nolock@@YA?AUwrite_result@?A0x17268360@@HQEBDI@Z 0000000180047390 f   libucrtd:write.obj
 0001:000465c0       ?write_text_utf16le_nolock@@YA?AUwrite_result@?A0x17268360@@HQEBDI@Z 00000001800475c0 f   libucrtd:write.obj
 0001:00046810       ?write_text_utf8_nolock@@YA?AUwrite_result@?A0x17268360@@HQEBDI@Z 0000000180047810 f   libucrtd:write.obj
 0001:00047590       $$000000                   0000000180048590     libucrtd:log10.obj
 0001:00048400       ?_fclose_internal@@YAHQEAU_iobuf@@AEAV__crt_cached_ptd_host@@@Z 0000000180049400 f   libucrtd:fclose.obj
 0001:00048560       ?_fclose_nolock_internal@@YAHQEAU_iobuf@@AEAV__crt_cached_ptd_host@@@Z 0000000180049560 f   libucrtd:fclose.obj
 0001:00048750       ??$common_lseek_nolock@_J@@YA_JH_JHAEAV__crt_cached_ptd_host@@@Z 0000000180049750 f   libucrtd:lseek.obj
 0001:00048880       ?common_lseek_do_seek_nolock@@YA_JQEAX_JHAEAV__crt_cached_ptd_host@@@Z 0000000180049880 f   libucrtd:lseek.obj
 0001:00048c40       _log_special_common        0000000180049c40 f   libucrtd:log_special.obj
 0001:00048d60       _abstract_cw               0000000180049d60 f   libucrtd:ieee.obj
 0001:00048eb0       _abstract_sw               0000000180049eb0 f   libucrtd:ieee.obj
 0001:00048f90       _hw_cw                     0000000180049f90 f   libucrtd:ieee.obj
 0001:000490e0       common_control87           000000018004a0e0 f   libucrtd:ieee.obj
 0001:00049200       ??$?RV<lambda_19eaff14c5fe7be5b1b106a862eb1091>@@AEAV<lambda_af29824b49a67d335554598d6cad2be6>@@V<lambda_3ce37f5b621ab310299ea5f68cbdf3bb>@@@?$__crt_seh_guarded_call@H@@QEAAH$$QEAV<lambda_19eaff14c5fe7be5b1b106a862eb1091>@@AEAV<lambda_af29824b49a67d335554598d6cad2be6>@@$$QEAV<lambda_3ce37f5b621ab310299ea5f68cbdf3bb>@@@Z 000000018004a200 f   libucrtd:close.obj
 0001:00049250       ??$__acrt_lowio_lock_fh_and_call@V<lambda_af29824b49a67d335554598d6cad2be6>@@@@YAHH$$QEAV<lambda_af29824b49a67d335554598d6cad2be6>@@@Z 000000018004a250 f   libucrtd:close.obj
 0001:000492b0       ??R<lambda_af29824b49a67d335554598d6cad2be6>@@QEBA@XZ 000000018004a2b0 f   libucrtd:close.obj
 0001:00049380       ?close_os_handle_nolock@@YAKH@Z 000000018004a380 f   libucrtd:close.obj
 0001:00049980       ?combine_second_surrogate@?A0xc60ee810@@YA_U_SPEAU_Mbstatet@@@Z 000000018004a980 f   libucrtd:c16rtomb.obj
 0001:000499a0       ?has_surrogate@?A0xc60ee810@@YA_NPEAU_Mbstatet@@@Z 000000018004a9a0 f   libucrtd:c16rtomb.obj
 0001:000499d0       ?is_first_surrogate@?A0xc60ee810@@YA_N_S@Z 000000018004a9d0 f   libucrtd:c16rtomb.obj
 0001:00049a10       ?is_second_surrogate@?A0xc60ee810@@YA_N_S@Z 000000018004aa10 f   libucrtd:c16rtomb.obj
 0001:00049a50       ?store_first_surrogate@?A0xc60ee810@@YAX_SPEAU_Mbstatet@@@Z 000000018004aa50 f   libucrtd:c16rtomb.obj
 0001:00049a90       ??$console_output_reopen_and_retry@V<lambda_61c1b8a38cedca4df5fdc542e6ccae6d>@@@@YAHAEBV<lambda_61c1b8a38cedca4df5fdc542e6ccae6d>@@@Z 000000018004aa90 f   libucrtd:initcon.obj
 0001:00049af0       ??0<lambda_61c1b8a38cedca4df5fdc542e6ccae6d>@@QEAA@AEBQEBXAEBKAEBQEAK@Z 000000018004aaf0 f   libucrtd:initcon.obj
 0001:00049b40       ??R<lambda_61c1b8a38cedca4df5fdc542e6ccae6d>@@QEBA@XZ 000000018004ab40 f   libucrtd:initcon.obj
 0001:00049b80       ?__dcrt_lowio_initialize_console_output@@YAXXZ 000000018004ab80 f   libucrtd:initcon.obj
 0001:0004a4f0       $$000000                   000000018004b4f0     LIBCMTD:guard_dispatch.obj
 0001:0004a510       $$000000                   000000018004b510     LIBCMTD:guard_xfg_dispatch.obj
 0001:0004a550       $$000000                   000000018004b550     libvcruntimed:memcpy.obj
 0001:0004a560       $$000000                   000000018004b560     libvcruntimed:memcpy.obj
 0001:0004a58e       MoveSmall0                 000000018004b58e     libvcruntimed:memcpy.obj
 0001:0004a590       MoveSmall15                000000018004b590     libvcruntimed:memcpy.obj
 0001:0004a5b0       MoveSmall11                000000018004b5b0     libvcruntimed:memcpy.obj
 0001:0004a5c8       MoveSmall2                 000000018004b5c8     libvcruntimed:memcpy.obj
 0001:0004a5d0       MoveSmall7                 000000018004b5d0     libvcruntimed:memcpy.obj
 0001:0004a5e8       MoveSmall14                000000018004b5e8     libvcruntimed:memcpy.obj
 0001:0004a5ff       MoveSmall3                 000000018004b5ff     libvcruntimed:memcpy.obj
 0001:0004a610       MoveSmall13                000000018004b610     libvcruntimed:memcpy.obj
 0001:0004a626       MoveSmall10                000000018004b626     libvcruntimed:memcpy.obj
 0001:0004a635       MoveSmall9                 000000018004b635     libvcruntimed:memcpy.obj
 0001:0004a643       MoveSmall12                000000018004b643     libvcruntimed:memcpy.obj
 0001:0004a650       MoveSmall6                 000000018004b650     libvcruntimed:memcpy.obj
 0001:0004a65f       MoveSmall5                 000000018004b65f     libvcruntimed:memcpy.obj
 0001:0004a66d       MoveSmall8                 000000018004b66d     libvcruntimed:memcpy.obj
 0001:0004a674       MoveSmall1                 000000018004b674     libvcruntimed:memcpy.obj
 0001:0004a67a       MoveSmall4                 000000018004b67a     libvcruntimed:memcpy.obj
 0001:0004a680       MoveAbove15                000000018004b680     libvcruntimed:memcpy.obj
 0001:0004a69d       MoveAbove32                000000018004b69d     libvcruntimed:memcpy.obj
 0001:0004a6dd       MoveWithYMM                000000018004b6dd     libvcruntimed:memcpy.obj
 0001:0004a730       YmmLoop                    000000018004b730     libvcruntimed:memcpy.obj
 0001:0004a7b8       MovUpTo256WithYMM          000000018004b7b8     libvcruntimed:memcpy.obj
 0001:0004a7d5       Mov8YmmBlocks              000000018004b7d5     libvcruntimed:memcpy.obj
 0001:0004a7e9       Mov7YmmBlocks              000000018004b7e9     libvcruntimed:memcpy.obj
 0001:0004a7fd       Mov6YmmBlocks              000000018004b7fd     libvcruntimed:memcpy.obj
 0001:0004a811       Mov5YmmBlocks              000000018004b811     libvcruntimed:memcpy.obj
 0001:0004a825       Mov4YmmBlocks              000000018004b825     libvcruntimed:memcpy.obj
 0001:0004a833       Mov3YmmBlocks              000000018004b833     libvcruntimed:memcpy.obj
 0001:0004a841       Mov2YmmBlocks              000000018004b841     libvcruntimed:memcpy.obj
 0001:0004a84f       Mov1YmmBlocks              000000018004b84f     libvcruntimed:memcpy.obj
 0001:0004a856       Mov0YmmBlocks              000000018004b856     libvcruntimed:memcpy.obj
 0001:0004a860       YmmLoopNT                  000000018004b860     libvcruntimed:memcpy.obj
 0001:0004a905       Mov8YmmBlocksNT            000000018004b905     libvcruntimed:memcpy.obj
 0001:0004a919       Mov7YmmBlocksNT            000000018004b919     libvcruntimed:memcpy.obj
 0001:0004a92d       Mov6YmmBlocksNT            000000018004b92d     libvcruntimed:memcpy.obj
 0001:0004a941       Mov5YmmBlocksNT            000000018004b941     libvcruntimed:memcpy.obj
 0001:0004a955       Mov4YmmBlocksNT            000000018004b955     libvcruntimed:memcpy.obj
 0001:0004a963       Mov3YmmBlocksNT            000000018004b963     libvcruntimed:memcpy.obj
 0001:0004a971       Mov2YmmBlocksNT            000000018004b971     libvcruntimed:memcpy.obj
 0001:0004a97f       Mov1YmmBlocksNT            000000018004b97f     libvcruntimed:memcpy.obj
 0001:0004a986       Mov0YmmBlocksNT            000000018004b986     libvcruntimed:memcpy.obj
 0001:0004a9a0       NoAVX                      000000018004b9a0     libvcruntimed:memcpy.obj
 0001:0004a9b6       MoveWithXMM                000000018004b9b6     libvcruntimed:memcpy.obj
 0001:0004a9f0       XmmLoop                    000000018004b9f0     libvcruntimed:memcpy.obj
 0001:0004aa5c       MovUpTo128WithXMM          000000018004ba5c     libvcruntimed:memcpy.obj
 0001:0004aa79       Mov8XmmBlocks              000000018004ba79     libvcruntimed:memcpy.obj
 0001:0004aa87       Mov7XmmBlocks              000000018004ba87     libvcruntimed:memcpy.obj
 0001:0004aa95       Mov6XmmBlocks              000000018004ba95     libvcruntimed:memcpy.obj
 0001:0004aaa3       Mov5XmmBlocks              000000018004baa3     libvcruntimed:memcpy.obj
 0001:0004aab1       Mov4XmmBlocks              000000018004bab1     libvcruntimed:memcpy.obj
 0001:0004aabf       Mov3XmmBlocks              000000018004babf     libvcruntimed:memcpy.obj
 0001:0004aacd       Mov2XmmBlocks              000000018004bacd     libvcruntimed:memcpy.obj
 0001:0004aadb       Mov1XmmBlocks              000000018004badb     libvcruntimed:memcpy.obj
 0001:0004aae2       Mov0XmmBlocks              000000018004bae2     libvcruntimed:memcpy.obj
 0001:0004aaf0       CopyDown                   000000018004baf0     libvcruntimed:memcpy.obj
 0001:0004ab0b       XmmMovAlign                000000018004bb0b     libvcruntimed:memcpy.obj
 0001:0004ab23       XmmMovLargeTest            000000018004bb23     libvcruntimed:memcpy.obj
 0001:0004ab40       XmmMovLargeOuter           000000018004bb40     libvcruntimed:memcpy.obj
 0001:0004ab47       XmmMovLargeInner           000000018004bb47     libvcruntimed:memcpy.obj
 0001:0004ab9d       XmmMovSmallTest            000000018004bb9d     libvcruntimed:memcpy.obj
 0001:0004abb0       XmmMovSmallLoop            000000018004bbb0     libvcruntimed:memcpy.obj
 0001:0004abc0       XmmMovTrailing             000000018004bbc0     libvcruntimed:memcpy.obj
 0001:0004abc9       XmmMovReturn               000000018004bbc9     libvcruntimed:memcpy.obj
 0001:0004abf0       $$000000                   000000018004bbf0     libvcruntimed:memset.obj
 0001:0004ac00       $$000000                   000000018004bc00     libvcruntimed:memset.obj
 0001:0004ac41       SetSmall15                 000000018004bc41     libvcruntimed:memset.obj
 0001:0004ac45       SetSmall7                  000000018004bc45     libvcruntimed:memset.obj
 0001:0004ac49       SetSmall3                  000000018004bc49     libvcruntimed:memset.obj
 0001:0004ac4e       SetSmall1                  000000018004bc4e     libvcruntimed:memset.obj
 0001:0004ac52       SetSmall0                  000000018004bc52     libvcruntimed:memset.obj
 0001:0004ac53       SetSmall14                 000000018004bc53     libvcruntimed:memset.obj
 0001:0004ac57       SetSmall6                  000000018004bc57     libvcruntimed:memset.obj
 0001:0004ac5b       SetSmall2                  000000018004bc5b     libvcruntimed:memset.obj
 0001:0004ac60       MoveSmall0                 000000018004bc60     libvcruntimed:memset.obj
 0001:0004ac70       SetSmall13                 000000018004bc70     libvcruntimed:memset.obj
 0001:0004ac74       SetSmall5                  000000018004bc74     libvcruntimed:memset.obj
 0001:0004ac80       SetSmall12                 000000018004bc80     libvcruntimed:memset.obj
 0001:0004ac84       SetSmall4                  000000018004bc84     libvcruntimed:memset.obj
 0001:0004ac89       SetSmall11                 000000018004bc89     libvcruntimed:memset.obj
 0001:0004ac97       SetSmall9                  000000018004bc97     libvcruntimed:memset.obj
 0001:0004aca0       SetSmall10                 000000018004bca0     libvcruntimed:memset.obj
 0001:0004acaa       SetSmall8                  000000018004bcaa     libvcruntimed:memset.obj
 0001:0004acb0       SetAbove15                 000000018004bcb0     libvcruntimed:memset.obj
 0001:0004acc6       SetAbove32                 000000018004bcc6     libvcruntimed:memset.obj
 0001:0004acf2       SetWithYMM                 000000018004bcf2     libvcruntimed:memset.obj
 0001:0004ad30       YmmLoop                    000000018004bd30     libvcruntimed:memset.obj
 0001:0004ad7a       SetUpTo256WithYMM          000000018004bd7a     libvcruntimed:memset.obj
 0001:0004ad97       Set8YmmBlocks              000000018004bd97     libvcruntimed:memset.obj
 0001:0004ada1       Set7YmmBlocks              000000018004bda1     libvcruntimed:memset.obj
 0001:0004adab       Set6YmmBlocks              000000018004bdab     libvcruntimed:memset.obj
 0001:0004adb5       Set5YmmBlocks              000000018004bdb5     libvcruntimed:memset.obj
 0001:0004adbf       Set4YmmBlocks              000000018004bdbf     libvcruntimed:memset.obj
 0001:0004adc6       Set3YmmBlocks              000000018004bdc6     libvcruntimed:memset.obj
 0001:0004adcd       Set2YmmBlocks              000000018004bdcd     libvcruntimed:memset.obj
 0001:0004add4       Set1YmmBlocks              000000018004bdd4     libvcruntimed:memset.obj
 0001:0004addb       Set0YmmBlocks              000000018004bddb     libvcruntimed:memset.obj
 0001:0004ade3       SetWithYMMNT               000000018004bde3     libvcruntimed:memset.obj
 0001:0004adf0       YmmLoopNT                  000000018004bdf0     libvcruntimed:memset.obj
 0001:0004ae57       Set8YmmBlocksNT            000000018004be57     libvcruntimed:memset.obj
 0001:0004ae61       Set7YmmBlocksNT            000000018004be61     libvcruntimed:memset.obj
 0001:0004ae6b       Set6YmmBlocksNT            000000018004be6b     libvcruntimed:memset.obj
 0001:0004ae75       Set5YmmBlocksNT            000000018004be75     libvcruntimed:memset.obj
 0001:0004ae7f       Set4YmmBlocksNT            000000018004be7f     libvcruntimed:memset.obj
 0001:0004ae86       Set3YmmBlocksNT            000000018004be86     libvcruntimed:memset.obj
 0001:0004ae8d       Set2YmmBlocksNT            000000018004be8d     libvcruntimed:memset.obj
 0001:0004ae94       Set1YmmBlocksNT            000000018004be94     libvcruntimed:memset.obj
 0001:0004ae9b       Set0YmmBlocksNT            000000018004be9b     libvcruntimed:memset.obj
 0001:0004aeb0       NoAVX                      000000018004beb0     libvcruntimed:memset.obj
 0001:0004aec6       SetWithXMM                 000000018004bec6     libvcruntimed:memset.obj
 0001:0004aef0       XmmLoop                    000000018004bef0     libvcruntimed:memset.obj
 0001:0004af2e       SetUpTo128WithXMM          000000018004bf2e     libvcruntimed:memset.obj
 0001:0004af4b       Set8XmmBlocks              000000018004bf4b     libvcruntimed:memset.obj
 0001:0004af52       Set7XmmBlocks              000000018004bf52     libvcruntimed:memset.obj
 0001:0004af59       Set6XmmBlocks              000000018004bf59     libvcruntimed:memset.obj
 0001:0004af60       Set5XmmBlocks              000000018004bf60     libvcruntimed:memset.obj
 0001:0004af67       Set4XmmBlocks              000000018004bf67     libvcruntimed:memset.obj
 0001:0004af6e       Set3XmmBlocks              000000018004bf6e     libvcruntimed:memset.obj
 0001:0004af75       Set2XmmBlocks              000000018004bf75     libvcruntimed:memset.obj
 0001:0004af7c       Set1XmmBlocks              000000018004bf7c     libvcruntimed:memset.obj
 0001:0004af83       Set0XmmBlocks              000000018004bf83     libvcruntimed:memset.obj
 0001:0004afa0       ?fin$0@?0??dllmain_crt_process_attach@@YAHQEAUHINSTANCE__@@QEAX@Z@4HA 000000018004bfa0 f   LIBCMTD:dll_dllmain.obj
 0001:0004afc0       ?fin$0@?0??dllmain_crt_process_detach@@YAH_N@Z@4HA 000000018004bfc0 f   LIBCMTD:dll_dllmain.obj
 0001:0004afda       ?fin$1@?0??dllmain_crt_process_detach@@YAH_N@Z@4HA 000000018004bfda f   LIBCMTD:dll_dllmain.obj
 0001:0004aff0       ?filt$0@?0??dllmain_dispatch@@YAHQEAUHINSTANCE__@@KQEAX@Z@4HA 000000018004bff0 f   LIBCMTD:dll_dllmain.obj
 0001:0004b040       __scrt_is_nonwritable_in_current_image$filt$0 000000018004c040 f   LIBCMTD:utility.obj
 0001:0004b080       __DestructExceptionObject$filt$0 000000018004c080 f   libvcruntimed:ehhelpers.obj
 0001:0004b0b0       ?filt$0@?0???$_CallSETranslator@V__FrameHandler3@@@@YAHPEAUEHExceptionRecord@@PEA_KPEAU_CONTEXT@@PEAU_xDISPATCHER_CONTEXT@@PEBU_s_FuncInfo@@K1H@Z@4HA 000000018004c0b0 f   libvcruntimed:risctrnsctrl.obj
 0001:0004b120       ?filt$0@?0??is_bad_read_pointer@@YA_NQEBX_K@Z@4HA 000000018004c120 f   libucrtd:debug_heap.obj
 0001:0004b120       terminate$filt$0           000000018004c120 f   libucrtd:terminate.obj
 0001:0004b120       ?filt$0@?0???$BuildCatchObjectHelperInternal@V__FrameHandler3@@@@YAHPEAUEHExceptionRecord@@PEAXPEBU_s_HandlerType@@PEBU_s_CatchableType@@@Z@4HA 000000018004c120 f   libvcruntimed:frame.obj
 0001:0004b120       ?filt$0@?0???$BuildCatchObjectInternal@V__FrameHandler3@@@@YAXPEAUEHExceptionRecord@@PEAXPEBU_s_HandlerType@@PEBU_s_CatchableType@@@Z@4HA 000000018004c120 f   libvcruntimed:frame.obj
 0001:0004b140       ?filt$0@?0??CxxCallCatchBlock@__FrameHandler3@@SAPEAXPEAU_EXCEPTION_RECORD@@@Z@4HA 000000018004c140 f   libvcruntimed:frame.obj
 0001:0004b169       ?fin$1@?0??CxxCallCatchBlock@__FrameHandler3@@SAPEAXPEAU_EXCEPTION_RECORD@@@Z@4HA 000000018004c169 f   libvcruntimed:frame.obj
 0001:0004b200       ?filt$0@?0??FrameUnwindToState@__FrameHandler3@@SAXPEA_KPEAU_xDISPATCHER_CONTEXT@@PEBU_s_FuncInfo@@H@Z@4HA 000000018004c200 f   libvcruntimed:frame.obj
 0001:0004b221       ?fin$1@?0??FrameUnwindToState@__FrameHandler3@@SAXPEA_KPEAU_xDISPATCHER_CONTEXT@@PEBU_s_FuncInfo@@H@Z@4HA 000000018004c221 f   libvcruntimed:frame.obj
 0001:0004b260       ?fin$0@?0???$?RV<lambda_0ae27a3a962d80f24befdcbee591983d>@@AEAV<lambda_8d0ee55de4b1038c4002e0adecdf1839>@@V<lambda_dc504788e8f1664fe9b84e20bfb512f2>@@@?$__crt_seh_guarded_call@X@@QEAAX$$QEAV<lambda_0ae27a3a962d80f24befdcbee591983d>@@AEAV<lambda_8d0ee55de4b1038c4002e0adecdf1839>@@$$QEAV<lambda_dc504788e8f1664fe9b84e20bfb512f2>@@@Z@4HA 000000018004c260 f   libucrtd:per_thread_data.obj
 0001:0004b260       ?fin$0@?0???$?RV<lambda_2d41944a1d46af3157314b8a01080d33>@@AEAV<lambda_8f455de75cd7d7f24b4096f044d8b9e6>@@V<lambda_aa500f224e6afead328df44964fe2772>@@@?$__crt_seh_guarded_call@X@@QEAAX$$QEAV<lambda_2d41944a1d46af3157314b8a01080d33>@@AEAV<lambda_8f455de75cd7d7f24b4096f044d8b9e6>@@$$QEAV<lambda_aa500f224e6afead328df44964fe2772>@@@Z@4HA 000000018004c260 f   libucrtd:per_thread_data.obj
 0001:0004b260       ?fin$0@?0???$?RV<lambda_74a0ef281e44d15e1136f792f539efb3>@@AEAV<lambda_e157831efee4ea0afb0a2ace5dd5fd0d>@@V<lambda_04ddeca75b7c13fd67716e8dfcef87ee>@@@?$__crt_seh_guarded_call@X@@QEAAX$$QEAV<lambda_74a0ef281e44d15e1136f792f539efb3>@@AEAV<lambda_e157831efee4ea0afb0a2ace5dd5fd0d>@@$$QEAV<lambda_04ddeca75b7c13fd67716e8dfcef87ee>@@@Z@4HA 000000018004c260 f   libucrtd:per_thread_data.obj
 0001:0004b260       ?fin$0@?0???$?RV<lambda_aa87e3671a710a21b5dc78c0bdf72e11>@@AEAV<lambda_92619d2358a28f41a33ba319515a20b9>@@V<lambda_6992ecaafeb10aed2b74cb1fae11a551>@@@?$__crt_seh_guarded_call@X@@QEAAX$$QEAV<lambda_aa87e3671a710a21b5dc78c0bdf72e11>@@AEAV<lambda_92619d2358a28f41a33ba319515a20b9>@@$$QEAV<lambda_6992ecaafeb10aed2b74cb1fae11a551>@@@Z@4HA 000000018004c260 f   libucrtd:per_thread_data.obj
 0001:0004b260       ?fin$0@?0???$?RV<lambda_410d79af7f07d98d83a3f525b3859a53>@@AEAV<lambda_3e16ef9562a7dcce91392c22ab16ea36>@@V<lambda_38119f0e861e05405d8a144b9b982f0a>@@@?$__crt_seh_guarded_call@X@@QEAAX$$QEAV<lambda_410d79af7f07d98d83a3f525b3859a53>@@AEAV<lambda_3e16ef9562a7dcce91392c22ab16ea36>@@$$QEAV<lambda_38119f0e861e05405d8a144b9b982f0a>@@@Z@4HA 000000018004c260 f   libucrtd:wsetlocale.obj
 0001:0004b260       ?fin$0@?0???$?RV<lambda_efa02eb69bf647d2f7ff0dd6f1103f72>@@AEAV<lambda_bd5a608237428601b7e45fbdc72b1ae8>@@V<lambda_728235dc0fc2b1f82d1fa5b3e7102d8f>@@@?$__crt_seh_guarded_call@X@@QEAAX$$QEAV<lambda_efa02eb69bf647d2f7ff0dd6f1103f72>@@AEAV<lambda_bd5a608237428601b7e45fbdc72b1ae8>@@$$QEAV<lambda_728235dc0fc2b1f82d1fa5b3e7102d8f>@@@Z@4HA 000000018004c260 f   libucrtd:mbctype.obj
 0001:0004b260       ?fin$0@?0???$?RV<lambda_d80eeec6fff315bfe5c115232f3240e3>@@AEAV<lambda_6e4b09c48022b2350581041d5f6b0c4c>@@V<lambda_2358e3775559c9db80273638284d5e45>@@@?$__crt_seh_guarded_call@X@@QEAAX$$QEAV<lambda_d80eeec6fff315bfe5c115232f3240e3>@@AEAV<lambda_6e4b09c48022b2350581041d5f6b0c4c>@@$$QEAV<lambda_2358e3775559c9db80273638284d5e45>@@@Z@4HA 000000018004c260 f   libucrtd:exit.obj
 0001:0004b260       ?fin$0@?0???$?RV<lambda_886d6c58226a84441f68b9f2b8217b83>@@AEAV<lambda_ab61a845afdef5b7c387490eaf3616ee>@@V<lambda_f7f22ab5edc0698d5f6905b0d3f44752>@@@?$__crt_seh_guarded_call@X@@QEAAX$$QEAV<lambda_886d6c58226a84441f68b9f2b8217b83>@@AEAV<lambda_ab61a845afdef5b7c387490eaf3616ee>@@$$QEAV<lambda_f7f22ab5edc0698d5f6905b0d3f44752>@@@Z@4HA 000000018004c260 f   libucrtd:fflush.obj
 0001:0004b280       ?filt$0@?0???R<lambda_6e4b09c48022b2350581041d5f6b0c4c>@@QEBA@XZ@4HA 000000018004c280 f   libucrtd:exit.obj
 0001:0004b2b0       ?fin$0@?0???$?RV<lambda_450d765d439847d4c735a33c368b5fc0>@@AEAV<lambda_44731a7d0e6d81c3e6aa82d741081786>@@V<lambda_601a2a7da3b7a96e9554ac7215c4b07c>@@@?$__crt_seh_guarded_call@P6AXH@Z@@QEAAP6AXH@Z$$QEAV<lambda_450d765d439847d4c735a33c368b5fc0>@@AEAV<lambda_44731a7d0e6d81c3e6aa82d741081786>@@$$QEAV<lambda_601a2a7da3b7a96e9554ac7215c4b07c>@@@Z@4HA 000000018004c2b0 f   libucrtd:signal.obj
 0001:0004b2b0       ?fin$0@?0???$?RV<lambda_6a47f4c8fd0152770a780fc1d70204eb>@@AEAV<lambda_d121dba8a4adeaf3a9819e48611155df>@@V<lambda_6aaa2265f5b6a89667e7d7630012e97a>@@@?$__crt_seh_guarded_call@H@@QEAAH$$QEAV<lambda_6a47f4c8fd0152770a780fc1d70204eb>@@AEAV<lambda_d121dba8a4adeaf3a9819e48611155df>@@$$QEAV<lambda_6aaa2265f5b6a89667e7d7630012e97a>@@@Z@4HA 000000018004c2b0 f   libucrtd:onexit.obj
 0001:0004b2d0       ?dtor$0@?0???R<lambda_d121dba8a4adeaf3a9819e48611155df>@@QEBA@XZ@4HA 000000018004c2d0 f   libucrtd:onexit.obj
 0001:0004b2f0       ?fin$0@?0??heap_alloc_dbg_internal@@YAPEAX_KHQEBDH@Z@4HA 000000018004c2f0 f   libucrtd:debug_heap.obj
 0001:0004b2f0       _CrtMemCheckpoint$fin$0    000000018004c2f0 f   libucrtd:debug_heap.obj
 0001:0004b310       ?fin$0@?0??validate_heap_if_required_nolock@@YAXXZ@4HA 000000018004c310 f   libucrtd:debug_heap.obj
 0001:0004b330       _CrtCheckMemory$fin$0      000000018004c330 f   libucrtd:debug_heap.obj
 0001:0004b330       _CrtMemDumpAllObjectsSince$fin$0 000000018004c330 f   libucrtd:debug_heap.obj
 0001:0004b330       _CrtSetDbgFlag$fin$0       000000018004c330 f   libucrtd:debug_heap.obj
 0001:0004b330       _msize_dbg$fin$0           000000018004c330 f   libucrtd:debug_heap.obj
 0001:0004b330       _realloc_dbg$fin$0         000000018004c330 f   libucrtd:debug_heap.obj
 0001:0004b350       _free_dbg$fin$0            000000018004c350 f   libucrtd:debug_heap.obj
 0001:0004b350       _query_new_handler$fin$0   000000018004c350 f   libucrtd:new_handler.obj
 0001:0004b370       _ctrlfp$filt$0             000000018004c370 f   libucrtd:fpctrl.obj
 0001:0004b3c0       ?fin$0@?0??update_thread_multibyte_data_internal@@YAPEAU__crt_multibyte_data@@QEAU__acrt_ptd@@QEAPEAU1@@Z@4HA 000000018004c3c0 f   libucrtd:mbctype.obj
 0001:0004b3e0       __acrt_initialize_lowio$fin$0 000000018004c3e0 f   libucrtd:ioinit.obj
 0001:0004b400       raise$fin$0                000000018004c400 f   libucrtd:signal.obj
 0001:0004b430       _VCrtDbgReportA$fin$0      000000018004c430 f   libucrtd:dbgrptt.obj
 0001:0004b44b       _VCrtDbgReportA$fin$1      000000018004c44b f   libucrtd:dbgrptt.obj
 0001:0004b470       _VCrtDbgReportW$fin$0      000000018004c470 f   libucrtd:dbgrptt.obj
 0001:0004b48b       _VCrtDbgReportW$fin$1      000000018004c48b f   libucrtd:dbgrptt.obj
 0001:0004b4b0       __acrt_update_thread_locale_data$fin$0 000000018004c4b0 f   libucrtd:locale_refcounting.obj
 0001:0004b4d0       ?dtor$0@?0??shortsort@@YAXPEAD0_KP6AHPEBX2@Z@Z@4HA 000000018004c4d0 f   libucrtd:qsort.obj
 0001:0004b4f0       __acrt_lowio_ensure_fh_exists$fin$0 000000018004c4f0 f   libucrtd:osfinfo.obj
 0001:0004b510       ?fin$0@?0???$?RV<lambda_842d9ff0dc9ef11c61343bbaebe7f885>@@AEAV<lambda_c5860995281e5c4ce005b3de8f5874ee>@@V<lambda_d90129c13df834fdcbf8d2b88dafcf2d>@@@?$__crt_seh_guarded_call@X@@QEAAX$$QEAV<lambda_842d9ff0dc9ef11c61343bbaebe7f885>@@AEAV<lambda_c5860995281e5c4ce005b3de8f5874ee>@@$$QEAV<lambda_d90129c13df834fdcbf8d2b88dafcf2d>@@@Z@4HA 000000018004c510 f   libucrtd:fflush.obj
 0001:0004b530       _fcloseall$fin$0           000000018004c530 f   libucrtd:closeall.obj
 0001:0004b550       ?fin$0@?0???$?RV<lambda_19eaff14c5fe7be5b1b106a862eb1091>@@AEAV<lambda_af29824b49a67d335554598d6cad2be6>@@V<lambda_3ce37f5b621ab310299ea5f68cbdf3bb>@@@?$__crt_seh_guarded_call@H@@QEAAH$$QEAV<lambda_19eaff14c5fe7be5b1b106a862eb1091>@@AEAV<lambda_af29824b49a67d335554598d6cad2be6>@@$$QEAV<lambda_3ce37f5b621ab310299ea5f68cbdf3bb>@@@Z@4HA 000000018004c550 f   libucrtd:close.obj
 0001:0004b550       ?fin$0@?0???$?RV<lambda_7d29013d608e9f25a034de83c9b9e983>@@AEAV<lambda_3e4146214822e0ea86c47ff907aef2ff>@@V<lambda_b869e5a4e1069fcb5c3da79c0d999133>@@@?$__crt_seh_guarded_call@H@@QEAAH$$QEAV<lambda_7d29013d608e9f25a034de83c9b9e983>@@AEAV<lambda_3e4146214822e0ea86c47ff907aef2ff>@@$$QEAV<lambda_b869e5a4e1069fcb5c3da79c0d999133>@@@Z@4HA 000000018004c550 f   libucrtd:commit.obj
 0001:0004b570       _write_internal$fin$0      000000018004c570 f   libucrtd:write.obj
 0001:0004b590       ?fin$0@?0??_fclose_internal@@YAHQEAU_iobuf@@AEAV__crt_cached_ptd_host@@@Z@4HA 000000018004c590 f   libucrtd:fclose.obj
 0001:0004b5c0       common_control87$filt$0    000000018004c5c0 f   libucrtd:ieee.obj
 0001:0004b610       _IsNonwritableInCurrentImage$filt$0 000000018004c610 f   LIBCMTD:pesect.obj
 0002:00000310       $SG33843                   000000018004d310     handmade.obj
 0002:00000328       $SG34276                   000000018004d328     handmade.obj
 0002:00000340       $SG35474                   000000018004d340     handmade.obj
 0002:00000358       $SG35475                   000000018004d358     handmade.obj
 0002:00000370       $SG35476                   000000018004d370     handmade.obj
 0002:00000388       $SG35477                   000000018004d388     handmade.obj
 0002:000003a0       $SG35478                   000000018004d3a0     handmade.obj
 0002:000003b8       $SG35479                   000000018004d3b8     handmade.obj
 0002:000003d0       $SG35480                   000000018004d3d0     handmade.obj
 0002:000003e8       $SG35481                   000000018004d3e8     handmade.obj
 0002:00000400       $SG35482                   000000018004d400     handmade.obj
 0002:00000418       $SG35483                   000000018004d418     handmade.obj
 0002:00000438       $SG35484                   000000018004d438     handmade.obj
 0002:00000458       $SG35485                   000000018004d458     handmade.obj
 0002:00000470       $SG35486                   000000018004d470     handmade.obj
 0002:00000488       $SG35487                   000000018004d488     handmade.obj
 0002:000004a0       $SG35488                   000000018004d4a0     handmade.obj
 0002:000004c0       $SG35489                   000000018004d4c0     handmade.obj
 0002:000004e0       $SG35490                   000000018004d4e0     handmade.obj
 0002:00000500       $SG35491                   000000018004d500     handmade.obj
 0002:00000520       $SG35492                   000000018004d520     handmade.obj
 0002:00000540       $SG35493                   000000018004d540     handmade.obj
 0002:00000560       $SG35494                   000000018004d560     handmade.obj
 0002:00000580       $SG35495                   000000018004d580     handmade.obj
 0002:000005a0       $SG35496                   000000018004d5a0     handmade.obj
 0002:000005c0       $SG35497                   000000018004d5c0     handmade.obj
 0002:000005e0       $SG35498                   000000018004d5e0     handmade.obj
 0002:00000600       $SG35499                   000000018004d600     handmade.obj
 0002:00000620       $SG35570                   000000018004d620     handmade.obj
 0002:00000728       GS_ExceptionPointers       000000018004d728     LIBCMTD:gs_report.obj
 0002:00000740       ?tokenTable@@3QBUStringLiteral@@B 000000018004d740     libvcruntimed:undname.obj
 0002:00000850       ?nameTable@@3QBUStringLiteral@@B 000000018004d850     libvcruntimed:undname.obj
 0002:00000d80       ?rttiTable@@3QBUStringLiteral@@B 000000018004dd80     libvcruntimed:undname.obj
 0002:00000dd0       ?IndirectionName@@3QBUStringLiteral@@B 000000018004ddd0     libvcruntimed:undname.obj
 0002:00000e30       ?PrefixName@@3QBUStringLiteral@@B 000000018004de30     libvcruntimed:undname.obj
 0002:00001570       ?ExceptionTemplate@?1??UnwindNestedFrames@__FrameHandler3@@SAXPEA_KPEAUEHExceptionRecord@@PEAU_CONTEXT@@0PEAXPEBU_s_FuncInfo@@HHPEBU_s_HandlerType@@PEAU_xDISPATCHER_CONTEXT@@E@Z@4U_EXCEPTION_RECORD@@B 000000018004e570     libvcruntimed:risctrnsctrl.obj
 0002:00001608       ?module_names@?A0x14174aea@@3QBQEB_WB 000000018004e608     libvcruntimed:winapi_downlevel.obj
 0002:00001870       ?candidate_modules@?1??try_get_FlsAlloc@@YAP6AKP6AXPEAX@Z@ZXZ@4QBW4module_id@?A0x14174aea@@B 000000018004e870     libvcruntimed:winapi_downlevel.obj
 0002:00001888       ?candidate_modules@?1??try_get_FlsFree@@YAP6AHK@ZXZ@4QBW4module_id@?A0x14174aea@@B 000000018004e888     libvcruntimed:winapi_downlevel.obj
 0002:00001898       ?candidate_modules@?1??try_get_FlsGetValue@@YAP6APEAXK@ZXZ@4QBW4module_id@?A0x14174aea@@B 000000018004e898     libvcruntimed:winapi_downlevel.obj
 0002:000018b0       ?candidate_modules@?1??try_get_FlsSetValue@@YAP6AHKPEAX@ZXZ@4QBW4module_id@?A0x14174aea@@B 000000018004e8b0     libvcruntimed:winapi_downlevel.obj
 0002:000018c8       ?candidate_modules@?1??try_get_InitializeCriticalSectionEx@@YAP6AHPEAU_RTL_CRITICAL_SECTION@@KK@ZXZ@4QBW4module_id@?A0x14174aea@@B 000000018004e8c8     libvcruntimed:winapi_downlevel.obj
 0002:00001a40       L_real_one                 000000018004ea40     libucrtd:cosf.obj
 0002:00001a50       L_one_half                 000000018004ea50     libucrtd:cosf.obj
 0002:00001a60       L_2bypi                    000000018004ea60     libucrtd:cosf.obj
 0002:00001a70       L_one_sixth                000000018004ea70     libucrtd:cosf.obj
 0002:00001a80       L_piby2                    000000018004ea80     libucrtd:cosf.obj
 0002:00001a90       L_piby2_1                  000000018004ea90     libucrtd:cosf.obj
 0002:00001aa0       L_piby2_1tail              000000018004eaa0     libucrtd:cosf.obj
 0002:00001ab0       L_piby2_2                  000000018004eab0     libucrtd:cosf.obj
 0002:00001ac0       L_piby2_2tail              000000018004eac0     libucrtd:cosf.obj
 0002:00001ad0       L_large_x_sse2             000000018004ead0     libucrtd:cosf.obj
 0002:00001ae0       L_large_x_fma3             000000018004eae0     libucrtd:cosf.obj
 0002:00001af0       L_sign_mask                000000018004eaf0     libucrtd:cosf.obj
 0002:00001b00       L__int_three               000000018004eb00     libucrtd:cosf.obj
 0002:00001b10       L__min_norm_double         000000018004eb10     libucrtd:cosf.obj
 0002:00001b20       L_two_to_neg_7             000000018004eb20     libucrtd:cosf.obj
 0002:00001b30       L_two_to_neg_13            000000018004eb30     libucrtd:cosf.obj
 0002:00001b40       L_two_to_32_float          000000018004eb40     libucrtd:cosf.obj
 0002:00001b48       L_one_float                000000018004eb48     libucrtd:cosf.obj
 0002:00001b50       L_inf_mask_32              000000018004eb50     libucrtd:cosf.obj
 0002:00001b60       L_signbit                  000000018004eb60     libucrtd:sinf.obj
 0002:00001b70       L_sign_mask                000000018004eb70     libucrtd:sinf.obj
 0002:00001b80       L_one                      000000018004eb80     libucrtd:sinf.obj
 0002:00001b90       L_int_three                000000018004eb90     libucrtd:sinf.obj
 0002:00001ba0       L_one_half                 000000018004eba0     libucrtd:sinf.obj
 0002:00001bb0       L_twobypi                  000000018004ebb0     libucrtd:sinf.obj
 0002:00001bc0       L_piby2_1                  000000018004ebc0     libucrtd:sinf.obj
 0002:00001bd0       L_one_sixth                000000018004ebd0     libucrtd:sinf.obj
 0002:00001be0       L_piby2_1tail              000000018004ebe0     libucrtd:sinf.obj
 0002:00001bf0       L_piby2_2                  000000018004ebf0     libucrtd:sinf.obj
 0002:00001c00       L_piby2_2tail              000000018004ec00     libucrtd:sinf.obj
 0002:00001c10       L_inf_mask_32              000000018004ec10     libucrtd:sinf.obj
 0002:00001c20       L_int_two                  000000018004ec20     libucrtd:sinf.obj
 0002:00001c30       L_piby2_lead               000000018004ec30     libucrtd:sinf.obj
 0002:00001c40       L_piby4                    000000018004ec40     libucrtd:sinf.obj
 0002:00001c50       L_mask_3f2                 000000018004ec50     libucrtd:sinf.obj
 0002:00001c60       L_mask_3f8                 000000018004ec60     libucrtd:sinf.obj
 0002:00001c70       L_large_x_fma3             000000018004ec70     libucrtd:sinf.obj
 0002:00001c78       L_large_x_sse2             000000018004ec78     libucrtd:sinf.obj
 0002:00001c80       L_near_one                 000000018004ec80     libucrtd:sinf.obj
 0002:00001c88       L_two_to_32                000000018004ec88     libucrtd:sinf.obj
 0002:00001d78       $cppxdata$?try_cor_exit_process@@YAXI@Z 000000018004ed78     libucrtd:exit.obj
 0002:00001da0       $cppxdata$?common_exit@@YAXHW4_crt_exit_cleanup_mode@@W4_crt_exit_return_mode@@@Z 000000018004eda0     libucrtd:exit.obj
 0002:00001dc8       $cppxdata$??$__acrt_lock_and_call@V<lambda_6e4b09c48022b2350581041d5f6b0c4c>@@@@YAXW4__acrt_lock_id@@$$QEAV<lambda_6e4b09c48022b2350581041d5f6b0c4c>@@@Z 000000018004edc8     libucrtd:exit.obj
 0002:00001e18       $cppxdata$??$common_configure_argv@D@@YAHW4_crt_argv_mode@@@Z 000000018004ee18     libucrtd:argv_parsing.obj
 0002:00001fc0       $cppxdata$??$uninitialize@A6AXAEAPEAPEAD@_E@?$dual_state_global@PEAPEAD@__crt_state_management@@QEAAXA6AXAEAPEAPEAD@_E@Z 000000018004efc0     libucrtd:environment_initialization.obj
 0002:00001fe8       $cppxdata$??$uninitialize@A6AXAEAPEAPEA_W@_E@?$dual_state_global@PEAPEA_W@__crt_state_management@@QEAAXA6AXAEAPEAPEA_W@_E@Z 000000018004efe8     libucrtd:environment_initialization.obj
 0002:00002198       $cppxdata$??R<lambda_d121dba8a4adeaf3a9819e48611155df>@@QEBA@XZ 000000018004f198     libucrtd:onexit.obj
 0002:000021c0       $cppxdata$??$__acrt_lock_and_call@V<lambda_d121dba8a4adeaf3a9819e48611155df>@@@@YAHW4__acrt_lock_id@@$$QEAV<lambda_d121dba8a4adeaf3a9819e48611155df>@@@Z 000000018004f1c0     libucrtd:onexit.obj
 0002:000021f0       __acrt_initializers        000000018004f1f0     libucrtd:initialization.obj
 0002:000022f0       $cppxdata$??$uninitialize@V<lambda_af27fe6ede5d83bbdbd622796c194e9c>@@@?$dual_state_global@PEAU__crt_multibyte_data@@@__crt_state_management@@QEAAX$$QEAV<lambda_af27fe6ede5d83bbdbd622796c194e9c>@@@Z 000000018004f2f0     libucrtd:initialization.obj
 0002:00002318       ?block_use_names@@3QBQEBDB 000000018004f318     libucrtd:debug_heap.obj
 0002:00002368       $cppxdata$?realloc_dbg_nolock@@YAPEAXQEAXQEA_KHQEBDH_N@Z 000000018004f368     libucrtd:debug_heap.obj
 0002:00002390       $cppxdata$?free_dbg_nolock@@YAXQEAXH@Z 000000018004f390     libucrtd:debug_heap.obj
 0002:000023b8       $cppxdata$?dump_all_object_since_nolock@@YAXQEBU_CrtMemState@@@Z 000000018004f3b8     libucrtd:debug_heap.obj
 0002:00003600       $cppxdata$??0?$output_adapter_data@DV?$string_output_adapter@D@__crt_stdio_output@@@__crt_stdio_output@@IEAA@AEBV?$string_output_adapter@D@1@_KQEBDAEAV__crt_cached_ptd_host@@QEAD@Z 0000000180050600     libucrtd:output.obj
 0002:00003628       $cppxdata$??0?$output_adapter_data@_WV?$string_output_adapter@_W@__crt_stdio_output@@@__crt_stdio_output@@IEAA@AEBV?$string_output_adapter@_W@1@_KQEB_WAEAV__crt_cached_ptd_host@@QEAD@Z 0000000180050628     libucrtd:output.obj
 0002:00003650       $cppxdata$?find_next_state@?$output_processor@DV?$string_output_adapter@D@__crt_stdio_output@@V?$format_validation_base@DV?$string_output_adapter@D@__crt_stdio_output@@@2@@__crt_stdio_output@@AEBA?AW4state@2@DW432@@Z 0000000180050650     libucrtd:output.obj
 0002:00003678       $cppxdata$?find_next_state@?$output_processor@_WV?$string_output_adapter@_W@__crt_stdio_output@@V?$format_validation_base@_WV?$string_output_adapter@_W@__crt_stdio_output@@@2@@__crt_stdio_output@@AEBA?AW4state@2@_WW432@@Z 0000000180050678     libucrtd:output.obj
 0002:000056d8       ?report_type_messages@@3QBQEB_WB 00000001800526d8     libucrtd:dbgrpt.obj
 0002:00005738       ?more_info_string@@3QEB_WEB 0000000180052738     libucrtd:dbgrpt.obj
 0002:00005a6e       ?empty_string@?1???$common_message_window@D@@YAHHQEAXQEBD111@Z@4QBDB 0000000180052a6e     libucrtd:dbgrpt.obj
 0002:00005d4c       ?empty_string@?1???$common_message_window@_W@@YAHHQEAXQEB_W111@Z@4QB_WB 0000000180052d4c     libucrtd:dbgrpt.obj
 0002:00005d50       ?mask@?P@??_fd_int@@9@4QBGB 0000000180052d50     libucrtd:_test.obj
 0002:00005d70       ?sub@?P@??_fd_int@@9@4QB_KB 0000000180052d70     libucrtd:_test.obj
 0002:00005d80       L__piby2                   0000000180052d80     libucrtd:remainder_piby2f_forasm.obj
 0002:00005d90       L_piby2_lead               0000000180052d90     libucrtd:remainder_piby2_forfma3.obj
 0002:00005da0       L_fff800                   0000000180052da0     libucrtd:remainder_piby2_forfma3.obj
 0002:00005db0       L_piby2_part1              0000000180052db0     libucrtd:remainder_piby2_forfma3.obj
 0002:00005dc0       L_piby2_part2              0000000180052dc0     libucrtd:remainder_piby2_forfma3.obj
 0002:00005dd0       L_piby2_part3              0000000180052dd0     libucrtd:remainder_piby2_forfma3.obj
 0002:00005de0       L_piby2_1                  0000000180052de0     libucrtd:remainder_piby2_forfma3.obj
 0002:00005df0       L_piby2_2                  0000000180052df0     libucrtd:remainder_piby2_forfma3.obj
 0002:00005e00       L_piby2_3                  0000000180052e00     libucrtd:remainder_piby2_forfma3.obj
 0002:00005e10       L_piby2_1tail              0000000180052e10     libucrtd:remainder_piby2_forfma3.obj
 0002:00005e20       L_piby2_2tail              0000000180052e20     libucrtd:remainder_piby2_forfma3.obj
 0002:00005e30       L_piby2_3tail              0000000180052e30     libucrtd:remainder_piby2_forfma3.obj
 0002:00005e40       L_sign_mask                0000000180052e40     libucrtd:remainder_piby2_forfma3.obj
 0002:00005e50       L_twobypi                  0000000180052e50     libucrtd:remainder_piby2_forfma3.obj
 0002:00005e60       L_point_five               0000000180052e60     libucrtd:remainder_piby2_forfma3.obj
 0002:00005e70       L_int_three                0000000180052e70     libucrtd:remainder_piby2_forfma3.obj
 0002:00005e80       L_inf_mask_64              0000000180052e80     libucrtd:remainder_piby2_forfma3.obj
 0002:00005e90       L_signbit                  0000000180052e90     libucrtd:remainder_piby2_forfma3.obj
 0002:00005ea0       L_r                        0000000180052ea0     libucrtd:remainder_piby2_forfma3.obj
 0002:00005eb0       L_xc1                      0000000180052eb0     libucrtd:remainder_piby2_forfma3.obj
 0002:00005ec0       L_xc2                      0000000180052ec0     libucrtd:remainder_piby2_forfma3.obj
 0002:00005ed0       L_xc3                      0000000180052ed0     libucrtd:remainder_piby2_forfma3.obj
 0002:00005ee0       L_sigma                    0000000180052ee0     libucrtd:remainder_piby2_forfma3.obj
 0002:00005ff0       L__piby2                   0000000180052ff0     libucrtd:remainder_piby2f_forc.obj
 0002:00006000       L__2_by_pi_bits            0000000180053000     libucrtd:remainder_piby2f_forc.obj
 0002:000060a0       $cppxdata$?construct_ptd@@YAXQEAU__acrt_ptd@@QEAPEAU__crt_locale_data@@@Z 00000001800530a0     libucrtd:per_thread_data.obj
 0002:000060c8       $cppxdata$??$__acrt_lock_and_call@V<lambda_8d0ee55de4b1038c4002e0adecdf1839>@@@@YAXW4__acrt_lock_id@@$$QEAV<lambda_8d0ee55de4b1038c4002e0adecdf1839>@@@Z 00000001800530c8     libucrtd:per_thread_data.obj
 0002:000060f0       $cppxdata$??$__acrt_lock_and_call@V<lambda_92619d2358a28f41a33ba319515a20b9>@@@@YAXW4__acrt_lock_id@@$$QEAV<lambda_92619d2358a28f41a33ba319515a20b9>@@@Z 00000001800530f0     libucrtd:per_thread_data.obj
 0002:00006118       $cppxdata$?destroy_ptd@@YAXQEAU__acrt_ptd@@@Z 0000000180053118     libucrtd:per_thread_data.obj
 0002:00006140       $cppxdata$??$__acrt_lock_and_call@V<lambda_e157831efee4ea0afb0a2ace5dd5fd0d>@@@@YAXW4__acrt_lock_id@@$$QEAV<lambda_e157831efee4ea0afb0a2ace5dd5fd0d>@@@Z 0000000180053140     libucrtd:per_thread_data.obj
 0002:00006168       $cppxdata$??$__acrt_lock_and_call@V<lambda_8f455de75cd7d7f24b4096f044d8b9e6>@@@@YAXW4__acrt_lock_id@@$$QEAV<lambda_8f455de75cd7d7f24b4096f044d8b9e6>@@@Z 0000000180053168     libucrtd:per_thread_data.obj
 0002:000062b0       ?errtable@@3QBUerrentry@?A0x31fdb9ec@@B 00000001800532b0     libucrtd:errno.obj
 0002:00006440       $cppxdata$??1?$__crt_win32_buffer@DU__crt_win32_buffer_internal_dynamic_resizing@@@@QEAA@XZ 0000000180053440     libucrtd:argv_wildcards.obj
 0002:00006440       $cppxdata$??1?$__crt_win32_buffer@_WU__crt_win32_buffer_internal_dynamic_resizing@@@@QEAA@XZ 0000000180053440     libucrtd:argv_wildcards.obj
 0002:00006468       $cppxdata$??$tcspbrk@AEAPEADAEAY02$$CBD@?$__crt_char_traits@D@@SAPEADAEAPEADAEAY02$$CBD@Z 0000000180053468     libucrtd:argv_wildcards.obj
 0002:00006490       $cppxdata$??$expand_argument_wildcards@D@@YAHQEAD0AEAV?$argument_list@D@?A0x5f5c8891@@@Z 0000000180053490     libucrtd:argv_wildcards.obj
 0002:000068a8       $cppxdata$??1?$__crt_win32_buffer@DU__crt_win32_buffer_no_resizing@@@@QEAA@XZ 00000001800538a8     libucrtd:getmodulefilenamea.obj
 0002:000068d0       ?_mb_locale_names@@3QBQEB_WB 00000001800538d0     libucrtd:mbctype.obj
 0002:00006930       $cppxdata$?setmbcp_internal@@YAHH_NQEAU__acrt_ptd@@QEAPEAU__crt_multibyte_data@@@Z 0000000180053930     libucrtd:mbctype.obj
 0002:00006958       $cppxdata$??$__acrt_lock_and_call@V<lambda_bd5a608237428601b7e45fbdc72b1ae8>@@@@YAXW4__acrt_lock_id@@$$QEAV<lambda_bd5a608237428601b7e45fbdc72b1ae8>@@@Z 0000000180053958     libucrtd:mbctype.obj
 0002:00006a10       ?module_names@?A0x391cf84c@@3QBQEB_WB 0000000180053a10     libucrtd:winapi_thunks.obj
 0002:00006fe4       ?candidate_modules@?1??try_get_AreFileApisANSI@@YAP6AHXZXZ@4QBW4module_id@?A0x391cf84c@@B 0000000180053fe4     libucrtd:winapi_thunks.obj
 0002:00006ff8       ?candidate_modules@?1??try_get_GetActiveWindow@@YAP6APEAUHWND__@@XZXZ@4QBW4module_id@?A0x391cf84c@@B 0000000180053ff8     libucrtd:winapi_thunks.obj
 0002:00007010       ?candidate_modules@?1??try_get_GetLastActivePopup@@YAP6APEAUHWND__@@PEAU2@@ZXZ@4QBW4module_id@?A0x391cf84c@@B 0000000180054010     libucrtd:winapi_thunks.obj
 0002:00007030       ?candidate_modules@?1??try_get_GetProcessWindowStation@@YAP6APEAUHWINSTA__@@XZXZ@4QBW4module_id@?A0x391cf84c@@B 0000000180054030     libucrtd:winapi_thunks.obj
 0002:00007050       ?candidate_modules@?1??try_get_GetUserObjectInformationW@@YAP6AHPEAXH0KPEAK@ZXZ@4QBW4module_id@?A0x391cf84c@@B 0000000180054050     libucrtd:winapi_thunks.obj
 0002:00007078       ?candidate_modules@?1??try_get_InitializeCriticalSectionEx@@YAP6AHPEAU_RTL_CRITICAL_SECTION@@KK@ZXZ@4QBW4module_id@?A0x391cf84c@@B 0000000180054078     libucrtd:winapi_thunks.obj
 0002:00007080       ?candidate_modules@?1??try_get_LCMapStringEx@@YAP6AHPEB_WK0HPEA_WHPEAU_nlsversioninfo@@PEAX_J@ZXZ@4QBW4module_id@?A0x391cf84c@@B 0000000180054080     libucrtd:winapi_thunks.obj
 0002:00007098       ?candidate_modules@?1??try_get_LocaleNameToLCID@@YAP6AKPEB_WK@ZXZ@4QBW4module_id@?A0x391cf84c@@B 0000000180054098     libucrtd:winapi_thunks.obj
 0002:000070b8       ?candidate_modules@?1??try_get_MessageBoxA@@YAP6AHPEAUHWND__@@PEBD1I@ZXZ@4QBW4module_id@?A0x391cf84c@@B 00000001800540b8     libucrtd:winapi_thunks.obj
 0002:000070d0       ?candidate_modules@?1??try_get_MessageBoxW@@YAP6AHPEAUHWND__@@PEB_W1I@ZXZ@4QBW4module_id@?A0x391cf84c@@B 00000001800540d0     libucrtd:winapi_thunks.obj
 0002:000070e4       ?candidate_modules@?1??try_get_AppPolicyGetProcessTerminationMethod@@YAP6AJPEAXPEAW4AppPolicyProcessTerminationMethod@@@ZXZ@4QBW4module_id@?A0x391cf84c@@B 00000001800540e4     libucrtd:winapi_thunks.obj
 0002:00007110       ?candidate_modules@?1??try_get_AppPolicyGetShowDeveloperDiagnostic@@YAP6AJPEAXPEAW4AppPolicyShowDeveloperDiagnostic@@@ZXZ@4QBW4module_id@?A0x391cf84c@@B 0000000180054110     libucrtd:winapi_thunks.obj
 0002:0000713c       ?candidate_modules@?1??try_get_AppPolicyGetWindowingModel@@YAP6AJPEAXPEAW4AppPolicyWindowingModel@@@ZXZ@4QBW4module_id@?A0x391cf84c@@B 000000018005413c     libucrtd:winapi_thunks.obj
 0002:00007160       $cppxdata$??$__acrt_lock_and_call@V<lambda_44731a7d0e6d81c3e6aa82d741081786>@@@@YAP6AXH@ZW4__acrt_lock_id@@$$QEAV<lambda_44731a7d0e6d81c3e6aa82d741081786>@@@Z 0000000180054160     libucrtd:signal.obj
 0002:00007a40       $cppxdata$??$uninitialize@V<lambda_363eea9039da1e8169e2d060c7fe5cbc>@@@?$dual_state_global@PEAU__crt_locale_data@@@__crt_state_management@@QEAAX$$QEAV<lambda_363eea9039da1e8169e2d060c7fe5cbc>@@@Z 0000000180054a40     libucrtd:wsetlocale.obj
 0002:00007a68       $cppxdata$??$__acrt_lock_and_call@V<lambda_3e16ef9562a7dcce91392c22ab16ea36>@@@@YAXW4__acrt_lock_id@@$$QEAV<lambda_3e16ef9562a7dcce91392c22ab16ea36>@@@Z 0000000180054a68     libucrtd:wsetlocale.obj
 0002:00007e60       ?strings@?1??fp_format_nan_or_infinity@@YAHW4__acrt_fp_class@@_NPEAD_K1@Z@4QAY03QEBDA 0000000180054e60     libucrtd:cvt.obj
 0002:000096e0       __real@433fffffffffffff    00000001800566e0     libucrtd:fpsr.obj
 0002:000096e8       __real@c33fffffffffffff    00000001800566e8     libucrtd:fpsr.obj
 0002:00009930       $cppxdata$?shortsort@@YAXPEAD0_KP6AHPEBX2@Z@Z 0000000180056930     libucrtd:qsort.obj
 0002:00009c70       ?LcidToLocaleNameTable@?A0x881e4c05@@3QBULcidToLocaleName@1@B 0000000180056c70     libucrtd:lcidtoname_downlevel.obj
 0002:0000b6d0       ?LocaleNameToIndexTable@?A0x881e4c05@@3QBULocaleNameIndex@1@B 00000001800586d0     libucrtd:lcidtoname_downlevel.obj
 0002:0000d820       $cppxdata$?common_flush_all@@YAH_N@Z 000000018005a820     libucrtd:fflush.obj
 0002:0000d848       $cppxdata$??$__acrt_lock_stream_and_call@V<lambda_c5860995281e5c4ce005b3de8f5874ee>@@@@YAXQEAU_iobuf@@$$QEAV<lambda_c5860995281e5c4ce005b3de8f5874ee>@@@Z 000000018005a848     libucrtd:fflush.obj
 0002:0000d870       $cppxdata$??$__acrt_lock_and_call@V<lambda_ab61a845afdef5b7c387490eaf3616ee>@@@@YAXW4__acrt_lock_id@@$$QEAV<lambda_ab61a845afdef5b7c387490eaf3616ee>@@@Z 000000018005a870     libucrtd:fflush.obj
 0002:0000ed50       $cppxdata$?_mbstowcs_l_helper@@YA_KPEA_WPEBD_KAEAV__crt_cached_ptd_host@@@Z 000000018005bd50     libucrtd:mbstowcs.obj
 0002:0000f100       $cppxdata$??$__acrt_lowio_lock_fh_and_call@V<lambda_3e4146214822e0ea86c47ff907aef2ff>@@@@YAHH$$QEAV<lambda_3e4146214822e0ea86c47ff907aef2ff>@@@Z 000000018005c100     libucrtd:commit.obj
 0002:0000f270       $cppxdata$?write_double_translated_ansi_nolock@@YA?AUwrite_result@?A0x17268360@@HQEBDIAEAV__crt_cached_ptd_host@@@Z 000000018005c270     libucrtd:write.obj
 0002:0000f520       __real_ninf                000000018005c520     libucrtd:log10.obj
 0002:0000f530       __real_inf                 000000018005c530     libucrtd:log10.obj
 0002:0000f540       __real_neg_qnan            000000018005c540     libucrtd:log10.obj
 0002:0000f550       __real_qnanbit             000000018005c550     libucrtd:log10.obj
 0002:0000f560       __int_1023                 000000018005c560     libucrtd:log10.obj
 0002:0000f570       __mask_001                 000000018005c570     libucrtd:log10.obj
 0002:0000f580       __mask_mant                000000018005c580     libucrtd:log10.obj
 0002:0000f590       __mask_mant_top8           000000018005c590     libucrtd:log10.obj
 0002:0000f5a0       __mask_mant9               000000018005c5a0     libucrtd:log10.obj
 0002:0000f5b0       __real_log10_e             000000018005c5b0     libucrtd:log10.obj
 0002:0000f5c0       __real_log10_e_lead        000000018005c5c0     libucrtd:log10.obj
 0002:0000f5d0       __real_log10_e_tail        000000018005c5d0     libucrtd:log10.obj
 0002:0000f5e0       __real_log10_2_lead        000000018005c5e0     libucrtd:log10.obj
 0002:0000f5f0       __real_log10_2_tail        000000018005c5f0     libucrtd:log10.obj
 0002:0000f600       __real_two                 000000018005c600     libucrtd:log10.obj
 0002:0000f610       __real_one                 000000018005c610     libucrtd:log10.obj
 0002:0000f620       __real_half                000000018005c620     libucrtd:log10.obj
 0002:0000f630       __mask_100                 000000018005c630     libucrtd:log10.obj
 0002:0000f640       __real_1_over_512          000000018005c640     libucrtd:log10.obj
 0002:0000f650       __real_1_over_2            000000018005c650     libucrtd:log10.obj
 0002:0000f660       __real_1_over_3            000000018005c660     libucrtd:log10.obj
 0002:0000f670       __real_1_over_4            000000018005c670     libucrtd:log10.obj
 0002:0000f680       __real_1_over_5            000000018005c680     libucrtd:log10.obj
 0002:0000f690       __real_1_over_6            000000018005c690     libucrtd:log10.obj
 0002:0000f6a0       __real_neg_1023            000000018005c6a0     libucrtd:log10.obj
 0002:0000f6b0       __mask_2045                000000018005c6b0     libucrtd:log10.obj
 0002:0000f6c0       __real_threshold           000000018005c6c0     libucrtd:log10.obj
 0002:0000f6d0       __real_near_one_lt         000000018005c6d0     libucrtd:log10.obj
 0002:0000f6e0       __real_near_one_gt         000000018005c6e0     libucrtd:log10.obj
 0002:0000f6f0       __real_min_norm            000000018005c6f0     libucrtd:log10.obj
 0002:0000f700       __real_notsign             000000018005c700     libucrtd:log10.obj
 0002:0000f710       __real_ca1                 000000018005c710     libucrtd:log10.obj
 0002:0000f720       __real_ca2                 000000018005c720     libucrtd:log10.obj
 0002:0000f730       __real_ca3                 000000018005c730     libucrtd:log10.obj
 0002:0000f740       __real_ca4                 000000018005c740     libucrtd:log10.obj
 0002:0000f750       __mask_lower               000000018005c750     libucrtd:log10.obj
 0002:0000f760       __flag_x_zero              000000018005c760     libucrtd:log10.obj
 0002:0000f764       __flag_x_neg               000000018005c764     libucrtd:log10.obj
 0002:0000f768       __flag_x_nan               000000018005c768     libucrtd:log10.obj
 0002:00011278       $cppxdata$??$__acrt_lowio_lock_fh_and_call@V<lambda_af29824b49a67d335554598d6cad2be6>@@@@YAHH$$QEAV<lambda_af29824b49a67d335554598d6cad2be6>@@@Z 000000018005e278     libucrtd:close.obj
 0002:00011320       $cppxdata$??$console_output_reopen_and_retry@V<lambda_61c1b8a38cedca4df5fdc542e6ccae6d>@@@@YAHAEBV<lambda_61c1b8a38cedca4df5fdc542e6ccae6d>@@@Z 000000018005e320     libucrtd:initcon.obj
 0002:00011520       MoveSmall                  000000018005e520     libvcruntimed:memcpy.obj
 0002:00011560       MoveSmallYmm               000000018005e560     libvcruntimed:memcpy.obj
 0002:00011584       MoveSmallYmmNT             000000018005e584     libvcruntimed:memcpy.obj
 0002:000115a8       MoveSmallXmm               000000018005e5a8     libvcruntimed:memcpy.obj
 0002:000115d0       SetSmall                   000000018005e5d0     libvcruntimed:memset.obj
 0002:00011610       SetSmallYmm                000000018005e610     libvcruntimed:memset.obj
 0002:00011634       SetSmallYmmNT              000000018005e634     libvcruntimed:memset.obj
 0002:00011658       SetSmallXmm                000000018005e658     libvcruntimed:memset.obj
 0002:00012108       $unwind$?GetLowEntity@@YAPEAUlow_entity@@PEAUgame_state@@I@Z 000000018005f108     handmade.obj
 0002:00012108       $unwind$?IsSet@@YAHPEAUsim_entity@@I@Z 000000018005f108     handmade.obj
 0002:00012108       $unwind$GetController      000000018005f108     handmade.obj
 0002:00012108       $unwind$?siglookup@@YAPEAU__crt_signal_action_t@@HQEAU1@@Z 000000018005f108     libucrtd:signal.obj
 0002:00012108       $unwind$??R<lambda_cfae5a0e6efa98e0d1aa03c4cec8f74e>@@QEBA@D@Z 000000018005f108     libucrtd:argv_wildcards.obj
 0002:00012108       $unwind$?set_flags@__crt_stdio_stream@@QEBA_NJ@Z 000000018005f108     libucrtd:_sftbuf.obj
 0002:00012108       $unwind$?unset_flags@__crt_stdio_stream@@QEBA_NJ@Z 000000018005f108     libucrtd:_sftbuf.obj
 0002:00012108       $unwind$?check@?$cached@H@__crt_cached_ptd_host@@QEBA_NH@Z 000000018005f108     libucrtd:output.obj
 0002:00012108       $unwind$?has_flag@?$output_processor@DV?$string_output_adapter@D@__crt_stdio_output@@V?$format_validation_base@DV?$string_output_adapter@D@__crt_stdio_output@@@2@@__crt_stdio_output@@AEBA_NI@Z 000000018005f108     libucrtd:output.obj
 0002:00012108       $unwind$?has_flag@?$output_processor@_WV?$string_output_adapter@_W@__crt_stdio_output@@V?$format_validation_base@_WV?$string_output_adapter@_W@__crt_stdio_output@@@2@@__crt_stdio_output@@AEBA_NI@Z 000000018005f108     libucrtd:output.obj
 0002:00012110       $unwind$?Inner@@YAMTv2@@0@Z 000000018005f110     handmade.obj
 0002:00012110       $unwind$?Inner@@YAMTv3@@0@Z 000000018005f110     handmade.obj
 0002:00012110       $unwind$?IsInRectangle@@YAHUrectangle3@@Tv3@@@Z 000000018005f110     handmade.obj
 0002:00012110       $unwind$?PushSize_@@YAPEAXPEAUmemory_arena@@_K@Z 000000018005f110     handmade.obj
 0002:00012110       $unwind$?RectanglesIntersect@@YAHUrectangle3@@0@Z 000000018005f110     handmade.obj
 0002:00012110       $unwind$?ZeroSize@@YAX_KPEAX@Z 000000018005f110     handmade.obj
 0002:00012110       $unwind$?initialize@?$dual_state_global@PEAPEAD@__crt_state_management@@QEAAXQEAPEAD@Z 000000018005f110     libucrtd:environment_initialization.obj
 0002:00012110       $unwind$?store_first_surrogate@?A0xc60ee810@@YAX_SPEAU_Mbstatet@@@Z 000000018005f110     libucrtd:c16rtomb.obj
 0002:00012110       $unwind$??8__crt_strtox@@YA_NAEBUbig_integer@0@0@Z 000000018005f110     libucrtd:cfout.obj
 0002:00012110       $unwind$?wcsncnt@@YA_KPEB_W_K@Z 000000018005f110     libucrtd:wcstombs.obj
 0002:00012110       $unwind$?initialize@?$dual_state_global@P6AH_K@Z@__crt_state_management@@QEAAXQ6AH_K@Z@Z 000000018005f110     libucrtd:new_handler.obj
 0002:00012110       $unwind$?initialize@?$dual_state_global@PEAU__crt_locale_data@@@__crt_state_management@@QEAAXQEAU__crt_locale_data@@@Z 000000018005f110     libucrtd:initialization.obj
 0002:00012110       $unwind$?initialize@?$dual_state_global@PEAU__crt_multibyte_data@@@__crt_state_management@@QEAAXQEAU__crt_multibyte_data@@@Z 000000018005f110     libucrtd:mbctype.obj
 0002:00012110       $unwind$?initialize@?$dual_state_global@P6AXH@Z@__crt_state_management@@QEAAXQ6AXH@Z@Z 000000018005f110     libucrtd:signal.obj
 0002:00012110       $unwind$__strncnt          000000018005f110     libucrtd:strncnt.obj
 0002:00012110       $unwind$??$last_reached@$0A@@@YA_NQEBX0@Z 000000018005f110     libucrtd:strnlen.obj
 0002:00012110       $unwind$?compare_equals@?$__crt_simd_traits@$0A@E@@SA?AT__m128i@@T2@0@Z 000000018005f110     libucrtd:strnlen.obj
 0002:00012110       $unwind$?compare_equals@?$__crt_simd_traits@$0A@G@@SA?AT__m128i@@T2@0@Z 000000018005f110     libucrtd:strnlen.obj
 0002:00012110       $unwind$?initialize@?$dual_state_global@P6AHPEAU_exception@@@Z@__crt_state_management@@QEAAXQ6AHPEAU_exception@@@Z@Z 000000018005f110     libucrtd:matherr.obj
 0002:00012110       $unwind$__AdjustPointer    000000018005f110     libvcruntimed:ehhelpers.obj
 0002:00012110       $unwind$??8iterator@HandlerMap@__FrameHandler3@@QEBA_NAEBV012@@Z 000000018005f110     libvcruntimed:frame.obj
 0002:00012110       $unwind$??Miterator@TryBlockMap@__FrameHandler3@@QEBA_NAEBV012@@Z 000000018005f110     libvcruntimed:frame.obj
 0002:00012118       $unwind$?BeginTemporaryMemory@@YA?AUtemporary_memory@@PEAUmemory_arena@@@Z 000000018005f118     handmade.obj
 0002:00012124       $unwind$?EndTemporaryMemory@@YAXUtemporary_memory@@@Z 000000018005f124     handmade.obj
 0002:00012124       $unwind$?IsValid@@YAHUworld_position@@@Z 000000018005f124     handmade.obj
 0002:00012124       $unwind$?RandomNextUInt32@@YAIPEAUrandom_series@@@Z 000000018005f124     handmade.obj
 0002:00012124       $unwind$?detach@?$__crt_unique_heap_ptr@DU__crt_internal_free_policy@@@@QEAAPEADXZ 000000018005f124     libucrtd:environment_initialization.obj
 0002:00012124       $unwind$?is_valid@?$__crt_unique_heap_ptr@PEADU__crt_internal_free_policy@@@@QEBA_NXZ 000000018005f124     libucrtd:environment_initialization.obj
 0002:00012124       $unwind$?has_surrogate@?A0xc60ee810@@YA_NPEAU_Mbstatet@@@Z 000000018005f124     libucrtd:c16rtomb.obj
 0002:00012124       $unwind$?is_first_surrogate@?A0xc60ee810@@YA_N_S@Z 000000018005f124     libucrtd:c16rtomb.obj
 0002:00012124       $unwind$?is_second_surrogate@?A0xc60ee810@@YA_N_S@Z 000000018005f124     libucrtd:c16rtomb.obj
 0002:00012124       $unwind$?is_zero@__crt_strtox@@YA_NAEBUbig_integer@1@@Z 000000018005f124     libucrtd:cfout.obj
 0002:00012124       $unwind$?__acrt_fp_classify@@YA?AW4__acrt_fp_class@@AEBN@Z 000000018005f124     libucrtd:cvt.obj
 0002:00012124       $unwind$?__acrt_fp_is_negative@@YA_NAEBN@Z 000000018005f124     libucrtd:cvt.obj
 0002:00012124       $unwind$_CrtSetDumpClient  000000018005f124     libucrtd:debug_heap.obj
 0002:00012124       $unwind$__acrt_get_locale_data_prefix 000000018005f124     libucrtd:debug_heap.obj
 0002:00012124       $unwind$?detach@?$__crt_unique_heap_ptr@U__acrt_ptd@@U__crt_internal_free_policy@@@@QEAAPEAU__acrt_ptd@@XZ 000000018005f124     libucrtd:per_thread_data.obj
 0002:00012124       $unwind$?is_valid@?$__crt_unique_heap_ptr@U__acrt_ptd@@U__crt_internal_free_policy@@@@QEBA_NXZ 000000018005f124     libucrtd:per_thread_data.obj
 0002:00012124       $unwind$_MallocaComputeSize 000000018005f124     libucrtd:getstringtypea.obj
 0002:00012124       $unwind$??B?$__crt_scoped_stack_ptr@_W@@QEBA_NXZ 000000018005f124     libucrtd:lcmapstringa.obj
 0002:00012124       $unwind$?detach@?$__crt_unique_heap_ptr@U__crt_lowio_handle_data@@U__crt_internal_free_policy@@@@QEAAPEAU__crt_lowio_handle_data@@XZ 000000018005f124     libucrtd:osfinfo.obj
 0002:00012124       $unwind$?is_valid@?$__crt_unique_heap_ptr@U__crt_lowio_handle_data@@U__crt_internal_free_policy@@@@QEBA_NXZ 000000018005f124     libucrtd:osfinfo.obj
 0002:00012124       $unwind$?detach@?$__crt_unique_heap_ptr@U__crt_multibyte_data@@U__crt_internal_free_policy@@@@QEAAPEAU__crt_multibyte_data@@XZ 000000018005f124     libucrtd:mbctype.obj
 0002:00012124       $unwind$?is_valid@?$__crt_unique_heap_ptr@U__crt_multibyte_data@@U__crt_internal_free_policy@@@@QEBA_NXZ 000000018005f124     libucrtd:mbctype.obj
 0002:00012124       $unwind$?setSBCS@@YAXPEAU__crt_multibyte_data@@@Z 000000018005f124     libucrtd:mbctype.obj
 0002:00012124       $unwind$__acrt_should_sync_with_global_locale 000000018005f124     libucrtd:mbctype.obj
 0002:00012124       $unwind$?detach@?$__crt_unique_heap_ptr@EU__crt_internal_free_policy@@@@QEAAPEAEXZ 000000018005f124     libucrtd:argv_parsing.obj
 0002:00012124       $unwind$?detach@?$__crt_unique_heap_ptr@PEADU__crt_internal_free_policy@@@@QEAAPEAPEADXZ 000000018005f124     libucrtd:argv_parsing.obj
 0002:00012124       $unwind$?is_valid@?$__crt_unique_heap_ptr@EU__crt_internal_free_policy@@@@QEBA_NXZ 000000018005f124     libucrtd:argv_parsing.obj
 0002:00012124       $unwind$?__crt_fast_encode_pointer@@YA?AU__crt_fast_encoded_nullptr_t@@$$T@Z 000000018005f124     libucrtd:exit.obj
 0002:00012124       $unwind$?__crt_interlocked_read_32@@YAHPEDH@Z 000000018005f124     libucrtd:exit.obj
 0002:00012124       $unwind$?detach@?$__crt_unique_heap_ptr@PEAU__crt_stdio_stream_data@@U__crt_internal_free_policy@@@@QEAAPEAPEAU__crt_stdio_stream_data@@XZ 000000018005f124     libucrtd:_file.obj
 0002:00012124       $unwind$??$read_va_arg@C@__crt_stdio_output@@YACAEAPEAD@Z 000000018005f124     libucrtd:output.obj
 0002:00012124       $unwind$??$read_va_arg@E@__crt_stdio_output@@YAEAEAPEAD@Z 000000018005f124     libucrtd:output.obj
 0002:00012124       $unwind$??$read_va_arg@F@__crt_stdio_output@@YAFAEAPEAD@Z 000000018005f124     libucrtd:output.obj
 0002:00012124       $unwind$??$read_va_arg@G@__crt_stdio_output@@YAGAEAPEAD@Z 000000018005f124     libucrtd:output.obj
 0002:00012124       $unwind$??$read_va_arg@H@__crt_stdio_output@@YAHAEAPEAD@Z 000000018005f124     libucrtd:output.obj
 0002:00012124       $unwind$??$read_va_arg@I@__crt_stdio_output@@YAIAEAPEAD@Z 000000018005f124     libucrtd:output.obj
 0002:00012124       $unwind$??$read_va_arg@PEAD@__crt_stdio_output@@YAPEADAEAPEAD@Z 000000018005f124     libucrtd:output.obj
 0002:00012124       $unwind$??$read_va_arg@PEAUansi_string@?1??type_case_Z@?$output_processor@DV?$string_output_adapter@D@__crt_stdio_output@@V?$format_validation_base@DV?$string_output_adapter@D@__crt_stdio_output@@@2@@__crt_stdio_output@@AEAA_NXZ@@__crt_stdio_output@@YAPEAUansi_string@?1??type_case_Z@?$output_processor@DV?$string_output_adapter@D@__crt_stdio_output@@V?$format_validation_base@DV?$string_output_adapter@D@__crt_stdio_output@@@2@@0@AEAA_NXZ@AEAPEAD@Z 000000018005f124     libucrtd:output.obj
 0002:00012124       $unwind$??$read_va_arg@PEAUansi_string@?1??type_case_Z@?$output_processor@_WV?$string_output_adapter@_W@__crt_stdio_output@@V?$format_validation_base@_WV?$string_output_adapter@_W@__crt_stdio_output@@@2@@__crt_stdio_output@@AEAA_NXZ@@__crt_stdio_output@@YAPEAUansi_string@?1??type_case_Z@?$output_processor@_WV?$string_output_adapter@_W@__crt_stdio_output@@V?$format_validation_base@_WV?$string_output_adapter@_W@__crt_stdio_output@@@2@@0@AEAA_NXZ@AEAPEAD@Z 000000018005f124     libucrtd:output.obj
 0002:00012124       $unwind$??$read_va_arg@PEAX@__crt_stdio_output@@YAPEAXAEAPEAD@Z 000000018005f124     libucrtd:output.obj
 0002:00012124       $unwind$??$read_va_arg@U_CRT_DOUBLE@@@__crt_stdio_output@@YA?AU_CRT_DOUBLE@@AEAPEAD@Z 000000018005f124     libucrtd:output.obj
 0002:00012124       $unwind$??$read_va_arg@_J@__crt_stdio_output@@YA_JAEAPEAD@Z 000000018005f124     libucrtd:output.obj
 0002:00012124       $unwind$??$read_va_arg@_K@__crt_stdio_output@@YA_KAEAPEAD@Z 000000018005f124     libucrtd:output.obj
 0002:00012124       $unwind$??$read_va_arg@_W@__crt_stdio_output@@YA_WAEAPEAD@Z 000000018005f124     libucrtd:output.obj
 0002:00012124       $unwind$?advance_to_next_pass@?$standard_base@DV?$string_output_adapter@D@__crt_stdio_output@@@__crt_stdio_output@@IEAA_NXZ 000000018005f124     libucrtd:output.obj
 0002:00012124       $unwind$?advance_to_next_pass@?$standard_base@_WV?$string_output_adapter@_W@__crt_stdio_output@@@__crt_stdio_output@@IEAA_NXZ 000000018005f124     libucrtd:output.obj
 0002:00012124       $unwind$?get@?$c_string_character_source@D@__crt_strtox@@QEAADXZ 000000018005f124     libucrtd:output.obj
 0002:00012124       $unwind$?get@?$c_string_character_source@_W@__crt_strtox@@QEAA_WXZ 000000018005f124     libucrtd:output.obj
 0002:00012124       $unwind$?valid@__crt_stdio_stream@@QEBA_NXZ 000000018005f124     libucrtd:output.obj
 0002:00012124       $unwind$_handle_nan        000000018005f124     libucrtd:libm_error.obj
 0002:00012124       $unwind$ReadNoFence64      000000018005f124     LIBCMTD:guard_support.obj
 0002:00012124       $unwind$?isEHs@__FrameHandler3@@SA_NPEBU_s_FuncInfo@@@Z 000000018005f124     libvcruntimed:frame.obj
 0002:00012124       $unwind$?isNoExcept@__FrameHandler3@@SA_NPEBU_s_FuncInfo@@@Z 000000018005f124     libvcruntimed:frame.obj
 0002:00012124       $unwind$?what@exception@std@@UEBAPEBDXZ 000000018005f124     libvcruntimed:frame.obj
 0002:00012124       $unwind$?detach@?$__crt_unique_heap_ptr@U__vcrt_ptd@@U__crt_internal_free_policy@@@@QEAAPEAU__vcrt_ptd@@XZ 000000018005f124     libvcruntimed:per_thread_data.obj
 0002:00012124       $unwind$?is_valid@?$__crt_unique_heap_ptr@U__vcrt_ptd@@U__crt_internal_free_policy@@@@QEBA_NXZ 000000018005f124     libvcruntimed:per_thread_data.obj
 0002:00012124       $unwind$?detach@?$__crt_unique_heap_ptr@DU__crt_public_free_policy@@@@QEAAPEADXZ 000000018005f124     libvcruntimed:std_exception.obj
 0002:00012124       $unwind$?is_valid@?$__crt_unique_heap_ptr@DU__crt_public_free_policy@@@@QEBA_NXZ 000000018005f124     libvcruntimed:std_exception.obj
 0002:00012124       $unwind$?__crt_interlocked_read_64@@YA_JPED_J@Z 000000018005f124     libvcruntimed:std_type_info.obj
 0002:00012124       $unwind$?is_valid@?$__crt_unique_heap_ptr@DU__crt_internal_free_policy@@@@QEBA_NXZ 000000018005f124     libvcruntimed:std_type_info.obj
 0002:0001212c       $unwind$?Cos@@YAMM@Z       000000018005f12c     handmade.obj
 0002:0001212c       $unwind$?RoundReal32ToInt32@@YAHM@Z 000000018005f12c     handmade.obj
 0002:0001212c       $unwind$?RoundReal32ToUInt32@@YAIM@Z 000000018005f12c     handmade.obj
 0002:0001212c       $unwind$?Sin@@YAMM@Z       000000018005f12c     handmade.obj
 0002:0001212c       $unwind$?SquareRoot@@YAMM@Z 000000018005f12c     handmade.obj
 0002:0001212c       $unwind$roundf             000000018005f12c     libucrtd:roundf.obj
 0002:00012134       $unwind$?AbsoluteValue@@YAMM@Z 000000018005f134     handmade.obj
 0002:00012134       $unwind$?Square@@YAMM@Z    000000018005f134     handmade.obj
 0002:0001213c       $unwind$?FindLeastSignificantSetBit@@YA?AUbit_scan_result@@I@Z 000000018005f13c     handmade.obj
 0002:00012144       $unwind$?V2i@@YA?ATv2@@HH@Z 000000018005f144     handmade.obj
 0002:00012154       $unwind$?V2@@YA?ATv2@@MM@Z 000000018005f154     handmade.obj
 0002:00012164       $unwind$?V3@@YA?ATv3@@MMM@Z 000000018005f164     handmade.obj
 0002:00012164       $unwind$?V4@@YA?ATv4@@MMMM@Z 000000018005f164     handmade.obj
 0002:00012178       $unwind$??D@YA?ATv3@@MT0@@Z 000000018005f178     handmade.obj
 0002:00012178       $unwind$?V3@@YA?ATv3@@Tv2@@M@Z 000000018005f178     handmade.obj
 0002:0001218c       $unwind$?Clamp@@YAMMMM@Z   000000018005f18c     handmade.obj
 0002:0001218c       $unwind$?SafeRatioN@@YAMMMM@Z 000000018005f18c     handmade.obj
 0002:00012194       $unwind$?Clamp01@@YAMM@Z   000000018005f194     handmade.obj
 0002:00012194       $unwind$_cosf_special      000000018005f194     libucrtd:sincos_special.obj
 0002:00012194       $unwind$_sinf_special      000000018005f194     libucrtd:sincos_special.obj
 0002:0001219c       $unwind$??D@YA?ATv2@@MT0@@Z 000000018005f19c     handmade.obj
 0002:000121ac       $unwind$??G@YA?ATv2@@T0@0@Z 000000018005f1ac     handmade.obj
 0002:000121ac       $unwind$??H@YA?ATv2@@T0@0@Z 000000018005f1ac     handmade.obj
 0002:000121bc       $unwind$??Y@YAAEATv2@@AEAT0@T0@@Z 000000018005f1bc     handmade.obj
 0002:000121cc       $unwind$?LengthSq@@YAMTv2@@@Z 000000018005f1cc     handmade.obj
 0002:000121cc       $unwind$?RandomUnilateral@@YAMPEAUrandom_series@@@Z 000000018005f1cc     handmade.obj
 0002:000121cc       $unwind$??R<lambda_61c1b8a38cedca4df5fdc542e6ccae6d>@@QEBA@XZ 000000018005f1cc     libucrtd:initcon.obj
 0002:000121cc       $unwind$_putwch_nolock     000000018005f1cc     libucrtd:putwch.obj
 0002:000121cc       $unwind$??$free_environment@D@@YAXQEAPEAD@Z 000000018005f1cc     libucrtd:environment_initialization.obj
 0002:000121cc       $unwind$??$free_environment@_W@@YAXQEAPEA_W@Z 000000018005f1cc     libucrtd:environment_initialization.obj
 0002:000121cc       $unwind$?find_end_of_double_null_terminated_sequence@@YAPEB_WQEB_W@Z 000000018005f1cc     libucrtd:get_environment_from_os.obj
 0002:000121cc       $unwind$?is_valid@?$__crt_unique_handle_t@Uenvironment_strings_traits@?A0x1bf47908@@@@QEBA_NXZ 000000018005f1cc     libucrtd:get_environment_from_os.obj
 0002:000121cc       $unwind$??1fp_control_word_guard@?A0x71ca7cfb@@QEAA@XZ 000000018005f1cc     libucrtd:cfout.obj
 0002:000121cc       $unwind$?is_block_an_aligned_allocation@@YA_NQEBX@Z 000000018005f1cc     libucrtd:debug_heap.obj
 0002:000121cc       $unwind$_CrtIsValidHeapPointer 000000018005f1cc     libucrtd:debug_heap.obj
 0002:000121cc       $unwind$free               000000018005f1cc     libucrtd:free.obj
 0002:000121cc       $unwind$_free_base         000000018005f1cc     libucrtd:free_base.obj
 0002:000121cc       $unwind$?_deallocate@?$__crt_win32_buffer@DU__crt_win32_buffer_no_resizing@@@@AEAAXXZ 000000018005f1cc     libucrtd:getmodulefilenamea.obj
 0002:000121cc       $unwind$??R<lambda_e157831efee4ea0afb0a2ace5dd5fd0d>@@QEBA@XZ 000000018005f1cc     libucrtd:per_thread_data.obj
 0002:000121cc       $unwind$?construct_ptd_array@@YAXQEAU__acrt_ptd@@@Z 000000018005f1cc     libucrtd:per_thread_data.obj
 0002:000121cc       $unwind$?destroy_ptd_array@@YAXQEAU__acrt_ptd@@@Z 000000018005f1cc     libucrtd:per_thread_data.obj
 0002:000121cc       $unwind$?release@?$__crt_unique_heap_ptr@U__acrt_ptd@@U__crt_internal_free_policy@@@@QEAAXXZ 000000018005f1cc     libucrtd:per_thread_data.obj
 0002:000121cc       $unwind$?try_load_library_from_system_directory@@YAPEAUHINSTANCE__@@QEB_W@Z 000000018005f1cc     libucrtd:winapi_thunks.obj
 0002:000121cc       $unwind$__acrt_DownlevelLocaleNameToLCID 000000018005f1cc     libucrtd:lcidtoname_downlevel.obj
 0002:000121cc       $unwind$__acrt_add_locale_ref 000000018005f1cc     libucrtd:locale_refcounting.obj
 0002:000121cc       $unwind$__acrt_release_locale_ref 000000018005f1cc     libucrtd:locale_refcounting.obj
 0002:000121cc       $unwind$?release@?$__crt_unique_heap_ptr@U__crt_lowio_handle_data@@U__crt_internal_free_policy@@@@QEAAXXZ 000000018005f1cc     libucrtd:osfinfo.obj
 0002:000121cc       $unwind$?release@?$__crt_unique_heap_ptr@U__crt_multibyte_data@@U__crt_internal_free_policy@@@@QEAAXXZ 000000018005f1cc     libucrtd:mbctype.obj
 0002:000121cc       $unwind$??1__crt_cached_ptd_host@@QEAA@XZ 000000018005f1cc     libucrtd:invalid_parameter.obj
 0002:000121cc       $unwind$?check_synchronize_global_state_index@__crt_cached_ptd_host@@AEAA_KXZ 000000018005f1cc     libucrtd:invalid_parameter.obj
 0002:000121cc       $unwind$__acrt_initialize_invalid_parameter_handler 000000018005f1cc     libucrtd:invalid_parameter.obj
 0002:000121cc       $unwind$??R<lambda_df1553121bfa390f1154bd84936f2730>@@QEBA@XZ 000000018005f1cc     libucrtd:argv_parsing.obj
 0002:000121cc       $unwind$?release@?$__crt_unique_heap_ptr@EU__crt_internal_free_policy@@@@QEAAXXZ 000000018005f1cc     libucrtd:argv_parsing.obj
 0002:000121cc       $unwind$?release@?$__crt_unique_heap_ptr@PEADU__crt_internal_free_policy@@@@QEAAXXZ 000000018005f1cc     libucrtd:argv_parsing.obj
 0002:000121cc       $unwind$??1?$argument_list@D@?A0x5f5c8891@@QEAA@XZ 000000018005f1cc     libucrtd:argv_wildcards.obj
 0002:000121cc       $unwind$?_deallocate@?$__crt_win32_buffer@DU__crt_win32_buffer_internal_dynamic_resizing@@@@AEAAXXZ 000000018005f1cc     libucrtd:argv_wildcards.obj
 0002:000121cc       $unwind$?_deallocate@?$__crt_win32_buffer@_WU__crt_win32_buffer_internal_dynamic_resizing@@@@AEAAXXZ 000000018005f1cc     libucrtd:argv_wildcards.obj
 0002:000121cc       $unwind$?close@__crt_findfile_traits@@SA_NPEAX@Z 000000018005f1cc     libucrtd:argv_wildcards.obj
 0002:000121cc       $unwind$?close@__crt_hmodule_traits@@SA_NPEAUHINSTANCE__@@@Z 000000018005f1cc     libucrtd:exit.obj
 0002:000121cc       $unwind$_initialize_onexit_table 000000018005f1cc     libucrtd:onexit.obj
 0002:000121cc       $unwind$?release@?$__crt_unique_heap_ptr@PEAU__crt_stdio_stream_data@@U__crt_internal_free_policy@@@@QEAAXXZ 000000018005f1cc     libucrtd:_file.obj
 0002:000121cc       $unwind$_lock_file         000000018005f1cc     libucrtd:_file.obj
 0002:000121cc       $unwind$_unlock_file       000000018005f1cc     libucrtd:_file.obj
 0002:000121cc       $unwind$?is_in_use@__crt_stdio_stream@@QEBA_NXZ 000000018005f1cc     libucrtd:closeall.obj
 0002:000121cc       $unwind$??R<lambda_c5860995281e5c4ce005b3de8f5874ee>@@QEBA@XZ 000000018005f1cc     libucrtd:fflush.obj
 0002:000121cc       $unwind$?__acrt_stdio_reset_buffer@@YAXV__crt_stdio_stream@@@Z 000000018005f1cc     libucrtd:fflush.obj
 0002:000121cc       $unwind$??$scratch_data@D@formatting_buffer@__crt_stdio_output@@QEAAPEADXZ 000000018005f1cc     libucrtd:output.obj
 0002:000121cc       $unwind$??0formatting_buffer@__crt_stdio_output@@QEAA@XZ 000000018005f1cc     libucrtd:output.obj
 0002:000121cc       $unwind$?is_string_backed@__crt_stdio_stream@@QEBA_NXZ 000000018005f1cc     libucrtd:output.obj
 0002:000121cc       $unwind$?parse_digit@__crt_strtox@@YAI_W@Z 000000018005f1cc     libucrtd:output.obj
 0002:000121cc       $unwind$?state_case_flag@?$output_processor@DV?$string_output_adapter@D@__crt_stdio_output@@V?$format_validation_base@DV?$string_output_adapter@D@__crt_stdio_output@@@2@@__crt_stdio_output@@AEAA_NXZ 000000018005f1cc     libucrtd:output.obj
 0002:000121cc       $unwind$?state_case_flag@?$output_processor@_WV?$string_output_adapter@_W@__crt_stdio_output@@V?$format_validation_base@_WV?$string_output_adapter@_W@__crt_stdio_output@@@2@@__crt_stdio_output@@AEAA_NXZ 000000018005f1cc     libucrtd:output.obj
 0002:000121cc       $unwind$?state_case_normal_common@?$output_processor@DV?$string_output_adapter@D@__crt_stdio_output@@V?$format_validation_base@DV?$string_output_adapter@D@__crt_stdio_output@@@2@@__crt_stdio_output@@AEAA_NXZ 000000018005f1cc     libucrtd:output.obj
 0002:000121cc       $unwind$?state_case_normal_common@?$output_processor@_WV?$string_output_adapter@_W@__crt_stdio_output@@V?$format_validation_base@_WV?$string_output_adapter@_W@__crt_stdio_output@@@2@@__crt_stdio_output@@AEAA_NXZ 000000018005f1cc     libucrtd:output.obj
 0002:000121cc       $unwind$?type_case_Z@?$output_processor@DV?$string_output_adapter@D@__crt_stdio_output@@V?$format_validation_base@DV?$string_output_adapter@D@__crt_stdio_output@@@2@@__crt_stdio_output@@AEAA_NXZ 000000018005f1cc     libucrtd:output.obj
 0002:000121cc       $unwind$?type_case_Z@?$output_processor@_WV?$string_output_adapter@_W@__crt_stdio_output@@V?$format_validation_base@_WV?$string_output_adapter@_W@__crt_stdio_output@@@2@@__crt_stdio_output@@AEAA_NXZ 000000018005f1cc     libucrtd:output.obj
 0002:000121cc       $unwind$?type_case_s@?$output_processor@DV?$string_output_adapter@D@__crt_stdio_output@@V?$format_validation_base@DV?$string_output_adapter@D@__crt_stdio_output@@@2@@__crt_stdio_output@@AEAA_NXZ 000000018005f1cc     libucrtd:output.obj
 0002:000121cc       $unwind$?type_case_s@?$output_processor@_WV?$string_output_adapter@_W@__crt_stdio_output@@V?$format_validation_base@_WV?$string_output_adapter@_W@__crt_stdio_output@@@2@@__crt_stdio_output@@AEAA_NXZ 000000018005f1cc     libucrtd:output.obj
 0002:000121cc       $unwind$?update_locale_slow@__crt_cached_ptd_host@@AEAAXXZ 000000018005f1cc     libucrtd:output.obj
 0002:000121cc       $unwind$_set_statfp        000000018005f1cc     libucrtd:fpctrl.obj
 0002:000121cc       $unwind$??$translate_control_exception_mask@W4__acrt_fenv_abstract_control@@W4__acrt_fenv_machine_sse_control@@@@YA?AW4__acrt_fenv_abstract_control@@W4__acrt_fenv_machine_sse_control@@@Z 000000018005f1cc     libucrtd:_fenvutils.obj
 0002:000121cc       $unwind$??$translate_control_rounding_control@W4__acrt_fenv_abstract_control@@W4__acrt_fenv_machine_sse_control@@@@YA?AW4__acrt_fenv_abstract_control@@W4__acrt_fenv_machine_sse_control@@@Z 000000018005f1cc     libucrtd:_fenvutils.obj
 0002:000121cc       $unwind$?set_machine_sse_control@@YAXW4__acrt_fenv_machine_sse_control@@@Z 000000018005f1cc     libucrtd:_fenvutils.obj
 0002:000121cc       $unwind$?to_abstract_control@@YA?AW4__acrt_fenv_abstract_control@@W4__acrt_fenv_machine_sse_control@@@Z 000000018005f1cc     libucrtd:_fenvutils.obj
 0002:000121cc       $unwind$?translate_control_denormal_control_from_sse@@YA?AW4__acrt_fenv_abstract_control@@W4__acrt_fenv_machine_sse_control@@@Z 000000018005f1cc     libucrtd:_fenvutils.obj
 0002:000121cc       $unwind$feholdexcept       000000018005f1cc     libucrtd:feholdexcept.obj
 0002:000121cc       $unwind$__report_gsfailure 000000018005f1cc     LIBCMTD:gs_report.obj
 0002:000121cc       $unwind$_IsExceptionObjectToBeDestroyed 000000018005f1cc     libvcruntimed:ehhelpers.obj
 0002:000121cc       $unwind$?getESTypes@__FrameHandler3@@SAPEBU_s_ESTypeList@@PEBU_s_FuncInfo@@@Z 000000018005f1cc     libvcruntimed:frame.obj
 0002:000121cc       $unwind$__except_validate_context_record 000000018005f1cc     libvcruntimed:jbcxrval.obj
 0002:000121cc       $unwind$?release@?$__crt_unique_heap_ptr@U__vcrt_ptd@@U__crt_internal_free_policy@@@@QEAAXXZ 000000018005f1cc     libvcruntimed:per_thread_data.obj
 0002:000121cc       $unwind$_FindAndUnlinkFrame 000000018005f1cc     libvcruntimed:risctrnsctrl.obj
 0002:000121cc       $unwind$?release@?$__crt_unique_heap_ptr@DU__crt_public_free_policy@@@@QEAAXXZ 000000018005f1cc     libvcruntimed:std_exception.obj
 0002:000121cc       $unwind$?release@?$__crt_unique_heap_ptr@DU__crt_internal_free_policy@@@@QEAAXXZ 000000018005f1cc     libvcruntimed:std_type_info.obj
 0002:000121cc       $unwind$__std_type_info_destroy_list 000000018005f1cc     libvcruntimed:std_type_info.obj
 0002:000121cc       $unwind$?try_load_library_from_system_directory@@YAPEAUHINSTANCE__@@QEB_W@Z 000000018005f1cc     libvcruntimed:winapi_downlevel.obj
 0002:000121d4       $unwind$?Clamp01@@YA?ATv2@@T1@@Z 000000018005f1d4     handmade.obj
 0002:000121e4       $unwind$??D@YA?ATv3@@T0@M@Z 000000018005f1e4     handmade.obj
 0002:000121f8       $unwind$??X@YAAEATv3@@AEAT0@M@Z 000000018005f1f8     handmade.obj
 0002:0001220c       $unwind$??G@YA?ATv3@@T0@0@Z 000000018005f20c     handmade.obj
 0002:0001220c       $unwind$??H@YA?ATv3@@T0@0@Z 000000018005f20c     handmade.obj
 0002:0001220c       $unwind$?GetEntityGroundPoint@@YA?ATv3@@PEAUsim_entity@@T1@@Z 000000018005f20c     handmade.obj
 0002:0001220c       $unwind$?Hadamard@@YA?ATv3@@T1@0@Z 000000018005f20c     handmade.obj
 0002:00012220       $unwind$??Y@YAAEATv3@@AEAT0@T0@@Z 000000018005f220     handmade.obj
 0002:00012220       $unwind$?GetEntityGroundPoint@@YA?ATv3@@PEAUsim_entity@@@Z 000000018005f220     handmade.obj
 0002:00012234       $unwind$?LengthSq@@YAMTv3@@@Z 000000018005f234     handmade.obj
 0002:00012240       $unwind$?Length@@YAMTv3@@@Z 000000018005f240     handmade.obj
 0002:0001224c       $unwind$?SafeRatio0@@YAMMM@Z 000000018005f24c     handmade.obj
 0002:00012254       $unwind$?RectCenterHalfDim@@YA?AUrectangle2@@Tv2@@0@Z 000000018005f254     handmade.obj
 0002:00012268       $unwind$?RectCenterDim@@YA?AUrectangle2@@Tv2@@0@Z 000000018005f268     handmade.obj
 0002:0001227c       $unwind$?GetBarycentric@@YA?ATv2@@Urectangle2@@T1@@Z 000000018005f27c     handmade.obj
 0002:0001228c       $unwind$?GetMaxCorner@@YA?ATv3@@Urectangle3@@@Z 000000018005f28c     handmade.obj
 0002:0001228c       $unwind$?GetMinCorner@@YA?ATv3@@Urectangle3@@@Z 000000018005f28c     handmade.obj
 0002:000122a0       $unwind$?AddRadiusTo@@YA?AUrectangle3@@U1@Tv3@@@Z 000000018005f2a0     handmade.obj
 0002:000122a0       $unwind$?RectCenterDim@@YA?AUrectangle3@@Tv3@@0@Z 000000018005f2a0     handmade.obj
 0002:000122a0       $unwind$?RectCenterHalfDim@@YA?AUrectangle3@@Tv3@@0@Z 000000018005f2a0     handmade.obj
 0002:000122b4       $unwind$?MakeEntityNonSpatial@@YAXPEAUsim_entity@@@Z 000000018005f2b4     handmade.obj
 0002:000122c8       $unwind$?MakeEntitySpatial@@YAXPEAUsim_entity@@Tv3@@1@Z 000000018005f2c8     handmade.obj
 0002:000122d4       $unwind$?GetStairGround@@YAMPEAUsim_entity@@Tv3@@@Z 000000018005f2d4     handmade.obj
 0002:000122e8       $unwind$?AddCollisionRule@@YAXPEAUgame_state@@IIH@Z 000000018005f2e8     handmade.obj
 0002:000122f0       $unwind$?ClearCollisionRulesFor@@YAXPEAUgame_state@@I@Z 000000018005f2f0     handmade.obj
 0002:000122f8       $unwind$?DrawRectangle@@YAXPEAUloaded_bitmap@@Tv2@@1MMMM@Z 000000018005f2f8     handmade.obj
 0002:00012300       $unwind$?DrawBitmap@@YAXPEAUloaded_bitmap@@0MMM@Z 000000018005f300     handmade.obj
 0002:00012308       $unwind$?RenderGroupToOutput@@YAXPEAUrender_group@@PEAUloaded_bitmap@@@Z 000000018005f308     handmade.obj
 0002:00012318       $unwind$?AllocateRenderGroup@@YAPEAUrender_group@@PEAUmemory_arena@@IM@Z 000000018005f318     handmade.obj
 0002:0001232c       $unwind$?InitializeWorld@@YAXPEAUworld@@Tv3@@@Z 000000018005f32c     handmade.obj
 0002:00012338       $unwind$?ChangeEntityLocation@@YAXPEAUmemory_arena@@PEAUworld@@IPEAUlow_entity@@Uworld_position@@@Z 000000018005f338     handmade.obj
 0002:0001234c       $unwind$?GetHashFromStorageIndex@@YAPEAUsim_entity_hash@@PEAUsim_region@@I@Z 000000018005f34c     handmade.obj
 0002:00012354       $unwind$?AddEntity@@YAPEAUsim_entity@@PEAUgame_state@@PEAUsim_region@@IPEAUlow_entity@@PEATv3@@@Z 000000018005f354     handmade.obj
 0002:00012368       $unwind$?AddEntityRaw@@YAPEAUsim_entity@@PEAUgame_state@@PEAUsim_region@@IPEAUlow_entity@@@Z 000000018005f368     handmade.obj
 0002:00012374       $unwind$?BeginSim@@YAPEAUsim_region@@PEAUmemory_arena@@PEAUgame_state@@PEAUworld@@Uworld_position@@Urectangle3@@M@Z 000000018005f374     handmade.obj
 0002:00012388       $unwind$?EndSim@@YAXPEAUsim_region@@PEAUgame_state@@@Z 000000018005f388     handmade.obj
 0002:0001239c       $unwind$?CanCollide@@YAHPEAUgame_state@@PEAUsim_entity@@1@Z 000000018005f39c     handmade.obj
 0002:000123a4       $unwind$?HandleCollision@@YAHPEAUgame_state@@PEAUsim_entity@@1@Z 000000018005f3a4     handmade.obj
 0002:000123ac       $unwind$?CanOverlap@@YAHPEAUgame_state@@PEAUsim_entity@@1@Z 000000018005f3ac     handmade.obj
 0002:000123b4       $unwind$?HandleOverlap@@YAXPEAUgame_state@@PEAUsim_entity@@1MPEAM@Z 000000018005f3b4     handmade.obj
 0002:000123c8       $unwind$?SpecullativeCollide@@YAHPEAUsim_entity@@0Tv3@@@Z 000000018005f3c8     handmade.obj
 0002:000123dc       $unwind$?EntitiesOverlap@@YAHPEAUsim_entity@@0Tv3@@@Z 000000018005f3dc     handmade.obj
 0002:000123f0       $unwind$?MoveEntity@@YAXPEAUgame_state@@PEAUsim_region@@PEAUsim_entity@@MPEAUmove_spec@@Tv3@@@Z 000000018005f3f0     handmade.obj
 0002:00012404       $unwind$?GameOutputSound@@YAXPEAUgame_state@@PEAUgame_sound_output_buffer@@H@Z 000000018005f404     handmade.obj
 0002:0001240c       $unwind$?DEBUGLoadBMP@@YA?AUloaded_bitmap@@PEAUthread_context@@P6A?AUdebug_read_file_result@@0PEAD@Z1@Z 000000018005f40c     handmade.obj
 0002:00012418       $unwind$?AddLowEntity@@YA?AUadd_low_entity_result@@PEAUgame_state@@W4entity_type@@Uworld_position@@@Z 000000018005f418     handmade.obj
 0002:0001242c       $unwind$?AddGroundedEntity@@YA?AUadd_low_entity_result@@PEAUgame_state@@W4entity_type@@Uworld_position@@PEAUsim_entity_collision_volume_group@@@Z 000000018005f42c     handmade.obj
 0002:00012438       $unwind$?AddStandardRoom@@YA?AUadd_low_entity_result@@PEAUgame_state@@III@Z 000000018005f438     handmade.obj
 0002:0001244c       $unwind$?AddWall@@YA?AUadd_low_entity_result@@PEAUgame_state@@III@Z 000000018005f44c     handmade.obj
 0002:00012460       $unwind$?AddStair@@YA?AUadd_low_entity_result@@PEAUgame_state@@III@Z 000000018005f460     handmade.obj
 0002:00012474       $unwind$?InitHitPoints@@YAXPEAUlow_entity@@I@Z 000000018005f474     handmade.obj
 0002:0001247c       $unwind$?AddSword@@YA?AUadd_low_entity_result@@PEAUgame_state@@@Z 000000018005f47c     handmade.obj
 0002:00012490       $unwind$?AddPlayer@@YA?AUadd_low_entity_result@@PEAUgame_state@@@Z 000000018005f490     handmade.obj
 0002:000124a4       $unwind$?AddMonster@@YA?AUadd_low_entity_result@@PEAUgame_state@@III@Z 000000018005f4a4     handmade.obj
 0002:000124b8       $unwind$?AddFamiliar@@YA?AUadd_low_entity_result@@PEAUgame_state@@III@Z 000000018005f4b8     handmade.obj
 0002:000124cc       $unwind$?MakeSimpleGroundedCollision@@YAPEAUsim_entity_collision_volume_group@@PEAUgame_state@@MMM@Z 000000018005f4cc     handmade.obj
 0002:000124e0       $unwind$?MakeNullCollision@@YAPEAUsim_entity_collision_volume_group@@PEAUgame_state@@@Z 000000018005f4e0     handmade.obj
 0002:000124f4       $unwind$?FillGroundChunk@@YAXPEAUtransient_state@@PEAUgame_state@@PEAUground_buffer@@PEAUworld_position@@@Z 000000018005f4f4     handmade.obj
 0002:00012508       $unwind$?ClearBitmap@@YAXPEAUloaded_bitmap@@@Z 000000018005f508     handmade.obj
 0002:00012510       $unwind$?MakeEmptyBitmap@@YA?AUloaded_bitmap@@PEAUmemory_arena@@HHH@Z 000000018005f510     handmade.obj
 0002:0001251c       $unwind$GameUpdateAndRender 000000018005f51c     handmade.obj
 0002:00012530       $unwind$GameGetSoundSamples 000000018005f530     handmade.obj
 0002:00012538       $unwind$?GetRenderEntityBasisP@@YA?ATv2@@PEAUrender_group@@PEAUrender_entity_basis@@T1@@Z 000000018005f538     handmade.obj
 0002:0001254c       $unwind$?PushRenderElement_@@YAPEAUrender_group_entry_header@@PEAUrender_group@@IW4render_group_entry_type@@@Z 000000018005f54c     handmade.obj
 0002:0001254c       $unwind$?add_carry@__crt_strtox@@YAIAEAIII@Z 000000018005f54c     libucrtd:cfout.obj
 0002:0001254c       $unwind$?multiply_core@__crt_strtox@@YAIQEAIII@Z 000000018005f54c     libucrtd:cfout.obj
 0002:0001254c       $unwind$?check_bytes@@YA_NQEBEE_K@Z 000000018005f54c     libucrtd:debug_heap.obj
 0002:0001254c       $unwind$_CrtIsValidPointer 000000018005f54c     libucrtd:debug_heap.obj
 0002:0001254c       $unwind$??$is_wide_character_specifier@D@__crt_stdio_output@@YA_N_KDW4length_modifier@0@@Z 000000018005f54c     libucrtd:output.obj
 0002:00012554       $unwind$?PushPiece@@YAXPEAUrender_group@@PEAUloaded_bitmap@@Tv2@@M22Tv4@@M@Z 000000018005f554     handmade.obj
 0002:00012564       $unwind$?PushBitmap@@YAXPEAUrender_group@@PEAUloaded_bitmap@@Tv2@@M2MM@Z 000000018005f564     handmade.obj
 0002:00012578       $unwind$?PushRect@@YAXPEAUrender_group@@Tv2@@M1Tv4@@M@Z 000000018005f578     handmade.obj
 0002:00012588       $unwind$?PushRectOutline@@YAXPEAUrender_group@@Tv2@@M1Tv4@@M@Z 000000018005f588     handmade.obj
 0002:0001259c       $unwind$?Clear@@YAXPEAUrender_group@@Tv4@@@Z 000000018005f59c     handmade.obj
 0002:000125a8       $unwind$?PushCoordninateSystem@@YAPEAUrender_entry_coordinate_system@@PEAUrender_group@@Tv2@@11Tv4@@@Z 000000018005f5a8     handmade.obj
 0002:000125b4       $unwind$?NullPosition@@YA?AUworld_position@@XZ 000000018005f5b4     handmade.obj
 0002:000125c8       $unwind$?IsCanonical@@YAHMM@Z 000000018005f5c8     handmade.obj
 0002:000125d0       $unwind$?IsCanonical@@YAHPEAUworld@@Tv3@@@Z 000000018005f5d0     handmade.obj
 0002:000125d0       $unwind$??0big_integer@__crt_strtox@@QEAA@AEBU01@@Z 000000018005f5d0     libucrtd:cfout.obj
 0002:000125d0       $unwind$??4big_integer@__crt_strtox@@QEAAAEAU01@AEBU01@@Z 000000018005f5d0     libucrtd:cfout.obj
 0002:000125d0       $unwind$??9__crt_strtox@@YA_NAEBUbig_integer@0@0@Z 000000018005f5d0     libucrtd:cfout.obj
 0002:000125d0       $unwind$_realloc_base      000000018005f5d0     libucrtd:realloc_base.obj
 0002:000125d0       $unwind$?allocate@?$__crt_win32_buffer@DU__crt_win32_buffer_no_resizing@@@@QEAAH_K@Z 000000018005f5d0     libucrtd:getmodulefilenamea.obj
 0002:000125d0       $unwind$?internal_getptd_noexit@@YAPEAU__acrt_ptd@@AEBV__crt_scoped_get_last_error_reset@@_K@Z 000000018005f5d0     libucrtd:per_thread_data.obj
 0002:000125d0       $unwind$?try_get_first_available_module@@YAPEAUHINSTANCE__@@QEBW4module_id@?A0x391cf84c@@0@Z 000000018005f5d0     libucrtd:winapi_thunks.obj
 0002:000125d0       $unwind$?free_crt_array_internal@@YAXQEAPEBX_K@Z 000000018005f5d0     libucrtd:inittime.obj
 0002:000125d0       $unwind$_updatetlocinfoEx_nolock 000000018005f5d0     libucrtd:locale_refcounting.obj
 0002:000125d0       $unwind$??$initialize_from_array@$$BY10BAA@E@?$dual_state_global@PEAE@__crt_state_management@@QEAAXAEAY10BAA@E@Z 000000018005f5d0     libucrtd:mbctype.obj
 0002:000125d0       $unwind$??$initialize_from_array@$$BY10BAB@E@?$dual_state_global@PEAE@__crt_state_management@@QEAAXAEAY10BAB@E@Z 000000018005f5d0     libucrtd:mbctype.obj
 0002:000125d0       $unwind$??$initialize_from_array@$$BY00Q6AXPEB_W00I_K@Z@?$dual_state_global@P6AXPEB_W00I_K@Z@__crt_state_management@@QEAAXAEAY00Q6AXPEB_W00I_K@Z@Z 000000018005f5d0     libucrtd:invalid_parameter.obj
 0002:000125d0       $unwind$?allocate@?$__crt_win32_buffer@DU__crt_win32_buffer_internal_dynamic_resizing@@@@QEAAH_K@Z 000000018005f5d0     libucrtd:argv_wildcards.obj
 0002:000125d0       $unwind$?allocate@?$__crt_win32_buffer@_WU__crt_win32_buffer_internal_dynamic_resizing@@@@QEAAH_K@Z 000000018005f5d0     libucrtd:argv_wildcards.obj
 0002:000125d0       $unwind$?append@?$argument_list@D@?A0x5f5c8891@@QEAAHQEAD@Z 000000018005f5d0     libucrtd:argv_wildcards.obj
 0002:000125d0       $unwind$?get_file_name@@YAPEADQEAV?$__crt_win32_buffer@DU__crt_win32_buffer_internal_dynamic_resizing@@@@QEA_W@Z 000000018005f5d0     libucrtd:argv_wildcards.obj
 0002:000125d0       $unwind$?get_wide@@YAPEA_WQEAV?$__crt_win32_buffer@_WU__crt_win32_buffer_internal_dynamic_resizing@@@@QEAD@Z 000000018005f5d0     libucrtd:argv_wildcards.obj
 0002:000125d0       $unwind$_initterm          000000018005f5d0     libucrtd:initterm.obj
 0002:000125d0       $unwind$?_fflush_nolock_internal@@YAHQEAU_iobuf@@AEAV__crt_cached_ptd_host@@@Z 000000018005f5d0     libucrtd:fflush.obj
 0002:000125d0       $unwind$?common_flush_all_should_try_to_flush_stream@@YA_NV__crt_stdio_stream@@QEAH@Z 000000018005f5d0     libucrtd:fflush.obj
 0002:000125d0       $unwind$??$extract_argument_from_va_list@U_CRT_DOUBLE@@U1@@?$standard_base@DV?$string_output_adapter@D@__crt_stdio_output@@@__crt_stdio_output@@IEAA_NAEAU_CRT_DOUBLE@@@Z 000000018005f5d0     libucrtd:output.obj
 0002:000125d0       $unwind$??$extract_argument_from_va_list@U_CRT_DOUBLE@@U1@@?$standard_base@_WV?$string_output_adapter@_W@__crt_stdio_output@@@__crt_stdio_output@@IEAA_NAEAU_CRT_DOUBLE@@@Z 000000018005f5d0     libucrtd:output.obj
 0002:000125d0       $unwind$?force_decimal_point@__crt_stdio_output@@YAXPEADQEAU__crt_locale_pointers@@@Z 000000018005f5d0     libucrtd:output.obj
 0002:000125d0       $unwind$??$common_strnlen_c@$00G@@YA_KQEBG_K@Z 000000018005f5d0     libucrtd:strnlen.obj
 0002:000125d0       $unwind$??$common_strnlen_c@$0A@E@@YA_KQEBE_K@Z 000000018005f5d0     libucrtd:strnlen.obj
 0002:000125d0       $unwind$??$common_strnlen_c@$0A@G@@YA_KQEBG_K@Z 000000018005f5d0     libucrtd:strnlen.obj
 0002:000125d0       $unwind$?find_pe_section@@YAPEAU_IMAGE_SECTION_HEADER@@QEAE_K@Z 000000018005f5d0     LIBCMTD:utility.obj
 0002:000125d0       $unwind$?_CallMemberFunction0@@YAXQEAX0@Z 000000018005f5d0     libvcruntimed:ehhelpers.obj
 0002:000125d0       $unwind$?StateFromControlPc@__FrameHandler3@@SAHPEBU_s_FuncInfo@@PEAU_xDISPATCHER_CONTEXT@@@Z 000000018005f5d0     libvcruntimed:ehstate.obj
 0002:000125d0       $unwind$??8type_info@@QEBA_NAEBV0@@Z 000000018005f5d0     libvcruntimed:frame.obj
 0002:000125d0       $unwind$??9iterator@HandlerMap@__FrameHandler3@@QEBA_NAEBV012@@Z 000000018005f5d0     libvcruntimed:frame.obj
 0002:000125d0       $unwind$?ExecutionInCatch@__FrameHandler3@@SA_NPEAU_xDISPATCHER_CONTEXT@@PEBU_s_FuncInfo@@@Z 000000018005f5d0     libvcruntimed:risctrnsctrl.obj
 0002:000125d0       $unwind$_CreateFrameInfo   000000018005f5d0     libvcruntimed:risctrnsctrl.obj
 0002:000125d0       $unwind$?try_get_first_available_module@@YAPEAUHINSTANCE__@@QEBW4module_id@?A0x14174aea@@0@Z 000000018005f5d0     libvcruntimed:winapi_downlevel.obj
 0002:000125d8       $unwind$?AreInSameChunk@@YAHPEAUworld@@PEAUworld_position@@1@Z 000000018005f5d8     handmade.obj
 0002:000125e4       $unwind$?GetWorldChunk@@YAPEAUworld_chunk@@PEAUworld@@HHHPEAUmemory_arena@@@Z 000000018005f5e4     handmade.obj
 0002:000125e4       $unwind$_invoke_watson_if_error 000000018005f5e4     libucrtd:environment_initialization.obj
 0002:000125e4       $unwind$__acrt_MessageWindowA 000000018005f5e4     libucrtd:dbgrpt.obj
 0002:000125e4       $unwind$__acrt_MessageWindowW 000000018005f5e4     libucrtd:dbgrpt.obj
 0002:000125e4       $unwind$??R<lambda_7c9dea7b4ca7285d2cdb541a38da6275>@@QEBA@IQEBDQEA_W_K@Z 000000018005f5e4     libucrtd:argv_wildcards.obj
 0002:000125e4       $unwind$??$write_multiple_characters@V?$string_output_adapter@D@__crt_stdio_output@@D@__crt_stdio_output@@YAXAEBV?$string_output_adapter@D@0@DHQEAHAEAV__crt_cached_ptd_host@@@Z 000000018005f5e4     libucrtd:output.obj
 0002:000125e4       $unwind$??$write_multiple_characters@V?$string_output_adapter@_W@__crt_stdio_output@@D@__crt_stdio_output@@YAXAEBV?$string_output_adapter@_W@0@DHQEAHAEAV__crt_cached_ptd_host@@@Z 000000018005f5e4     libucrtd:output.obj
 0002:000125e4       $unwind$__scrt_dllmain_exception_filter 000000018005f5e4     LIBCMTD:utility.obj
 0002:000125ec       $unwind$?RecanonicalizeCoord@@YAXMPEAHPEAM@Z 000000018005f5ec     handmade.obj
 0002:000125ec       $unwind$?fe_to_nearest@@YA_NQEBN_KF@Z 000000018005f5ec     libucrtd:cvt.obj
 0002:000125f4       $unwind$?MapIntoChunkSpace@@YA?AUworld_position@@PEAUworld@@U1@Tv3@@@Z 000000018005f5f4     handmade.obj
 0002:00012608       $unwind$?Subtract@@YA?ATv3@@PEAUworld@@PEAUworld_position@@1@Z 000000018005f608     handmade.obj
 0002:0001261c       $unwind$?CenteredChunkPoint@@YA?AUworld_position@@III@Z 000000018005f61c     handmade.obj
 0002:00012630       $unwind$?ChangeEntityLocationRaw@@YAXPEAUmemory_arena@@PEAUworld@@IPEAUworld_position@@2@Z 000000018005f630     handmade.obj
 0002:0001263c       $unwind$?RandomSeed@@YA?AUrandom_series@@I@Z 000000018005f63c     handmade.obj
 0002:0001263c       $unwind$?bit_scan_reverse@__crt_strtox@@YAII@Z 000000018005f63c     libucrtd:cfout.obj
 0002:0001263c       $unwind$?count_sequential_high_zeroes@__crt_strtox@@YAII@Z 000000018005f63c     libucrtd:cfout.obj
 0002:0001263c       $unwind$?is_block_type_valid@@YA_NH@Z 000000018005f63c     libucrtd:debug_heap.obj
 0002:0001263c       $unwind$?appmodel_policy_to_policy_type@windowing_model_policy_properties@?1??__acrt_get_windowing_model_policy@@YA?AW4windowing_model_policy@@XZ@SA?AW43@J@Z 000000018005f63c     libucrtd:win_policies.obj
 0002:0001263c       $unwind$?get_std_handle_id@@YAKH@Z 000000018005f63c     libucrtd:ioinit.obj
 0002:0001263c       $unwind$?CPtoLocaleName@@YAPEB_WH@Z 000000018005f63c     libucrtd:mbctype.obj
 0002:0001263c       $unwind$__acrt_errno_from_os_error 000000018005f63c     libucrtd:errno.obj
 0002:0001263c       $unwind$?is_stream_allocated@@YA_NJ@Z 000000018005f63c     libucrtd:fflush.obj
 0002:0001263c       $unwind$?to_integer_size@__crt_stdio_output@@YA_KW4length_modifier@1@@Z 000000018005f63c     libucrtd:output.obj
 0002:0001263c       $unwind$__ascii_iswalpha   000000018005f63c     libucrtd:output.obj
 0002:0001263c       $unwind$_abstract_cw       000000018005f63c     libucrtd:ieee.obj
 0002:0001263c       $unwind$_abstract_sw       000000018005f63c     libucrtd:ieee.obj
 0002:0001263c       $unwind$_hw_cw             000000018005f63c     libucrtd:ieee.obj
 0002:0001263c       $unwind$_handle_nanf       000000018005f63c     libucrtd:libm_error.obj
 0002:00012644       $unwind$?RandomChoice@@YAHPEAUrandom_series@@I@Z 000000018005f644     handmade.obj
 0002:00012644       $unwind$_close_nolock_internal 000000018005f644     libucrtd:close.obj
 0002:00012644       $unwind$?write_requires_double_translation_nolock@@YA_NHAEAV__crt_cached_ptd_host@@@Z 000000018005f644     libucrtd:write.obj
 0002:00012644       $unwind$?has_any_of@__crt_stdio_stream@@QEBA_NJ@Z 000000018005f644     libucrtd:_sftbuf.obj
 0002:00012644       $unwind$?has_all_of@__crt_stdio_stream@@QEBA_NJ@Z 000000018005f644     libucrtd:fflush.obj
 0002:00012644       $unwind$_exception_enabled 000000018005f644     libucrtd:libm_error.obj
 0002:00012644       $unwind$?_FilterSetCurrentException@@YAKPEAU_EXCEPTION_POINTERS@@E@Z 000000018005f644     libvcruntimed:ehhelpers.obj
 0002:00012644       $unwind$?CatchTryBlock@__FrameHandler3@@SAPEBU_s_TryBlockMapEntry@@PEBU_s_FuncInfo@@H@Z 000000018005f644     libvcruntimed:risctrnsctrl.obj
 0002:0001264c       $unwind$?RandomBetween@@YAHPEAUrandom_series@@HH@Z 000000018005f64c     handmade.obj
 0002:0001264c       $unwind$??0fp_control_word_guard@?A0x71ca7cfb@@QEAA@II@Z 000000018005f64c     libucrtd:cfout.obj
 0002:0001264c       $unwind$?dllmain_crt_dispatch@@YAHQEAUHINSTANCE__@@KQEAX@Z 000000018005f64c     LIBCMTD:dll_dllmain.obj
 0002:0001264c       $unwind$?dllmain_raw@@YAHQEAUHINSTANCE__@@KQEAX@Z 000000018005f64c     LIBCMTD:dll_dllmain.obj
 0002:00012654       $unwind$?GetSimSpaceP@@YA?ATv3@@PEAUsim_region@@PEAUlow_entity@@@Z 000000018005f654     handmade.obj
 0002:00012654       $unwind$?LoadEntityReference@@YAXPEAUgame_state@@PEAUsim_region@@PEATentity_reference@@@Z 000000018005f654     handmade.obj
 0002:00012668       $unwind$?EntityOverlapsRectangle@@YAHTv3@@Usim_entity_collision_volume@@Urectangle3@@@Z 000000018005f668     handmade.obj
 0002:0001267c       $unwind$?DefaultMoveSpec@@YA?AUmove_spec@@XZ 000000018005f67c     handmade.obj
 0002:00012690       $unwind$?ChunkPositionFromTilePosition@@YA?AUworld_position@@PEAUworld@@HHHTv3@@@Z 000000018005f690     handmade.obj
 0002:000126a4       $unwind$?DrawHitpoints@@YAXPEAUsim_entity@@PEAUrender_group@@@Z 000000018005f6a4     handmade.obj
 0002:000126b8       $unwind$??$ensure_buffer_is_big_enough@D@formatting_buffer@__crt_stdio_output@@QEAA_N_KAEAV__crt_cached_ptd_host@@@Z 000000018005f6b8     libucrtd:output.obj
 0002:000126b8       $unwind$??$ensure_buffer_is_big_enough@_W@formatting_buffer@__crt_stdio_output@@QEAA_N_KAEAV__crt_cached_ptd_host@@@Z 000000018005f6b8     libucrtd:output.obj
 0002:000126b8       $unwind$__ascii_wcsnicmp   000000018005f6b8     libucrtd:wcsnicmp.obj
 0002:000126b8       $unwind$__GSHandlerCheckCommon 000000018005f6b8     LIBCMTD:gshandler.obj
 0002:000126c0       $unwind$?shift_bytes@@YAXQEAD_K0H@Z 000000018005f6c0     libucrtd:cvt.obj
 0002:000126c0       $unwind$??$message_box@$$TAEBQEB_WAEBQEB_WK@?$__crt_char_traits@_W@@SAH$$QEA$$TAEBQEB_W1$$QEAK@Z 000000018005f6c0     libucrtd:crtmbox.obj
 0002:000126c0       $unwind$??$message_box@PEAUHWND__@@AEBQEB_WAEBQEB_WAEBI@?$__crt_char_traits@_W@@SAH$$QEAPEAUHWND__@@AEBQEB_W1AEBI@Z 000000018005f6c0     libucrtd:crtmbox.obj
 0002:000126c0       $unwind$_invoke_watson     000000018005f6c0     libucrtd:invalid_parameter.obj
 0002:000126c0       $unwind$??$tcsncpy_s@AEAPEAD_KAEAPEADAEB_K@?$__crt_char_traits@D@@SAHAEAPEAD$$QEA_K0AEB_K@Z 000000018005f6c0     libucrtd:argv_wildcards.obj
 0002:000126c0       $unwind$??$tcsncpy_s@PEADAEB_KAEBQEBDAEB_K@?$__crt_char_traits@D@@SAH$$QEAPEADAEB_KAEBQEBD1@Z 000000018005f6c0     libucrtd:argv_wildcards.obj
 0002:000126c0       $unwind$??$tcsncpy_s@PEAD_KAEBQEBDAEB_K@?$__crt_char_traits@D@@SAH$$QEAPEAD$$QEA_KAEBQEBDAEB_K@Z 000000018005f6c0     libucrtd:argv_wildcards.obj
 0002:000126c0       $unwind$strncpy_s          000000018005f6c0     libucrtd:strncpy_s.obj
 0002:000126c0       $unwind$wcsncpy_s          000000018005f6c0     libucrtd:wcsncpy_s.obj
 0002:000126c0       $unwind$__GSHandlerCheck   000000018005f6c0     LIBCMTD:gshandler.obj
 0002:000126c0       $unwind$?BuildCatchObject@__FrameHandler3@@SAXPEAUEHExceptionRecord@@PEAXPEBU_s_HandlerType@@PEBU_s_CatchableType@@@Z 000000018005f6c0     libvcruntimed:frame.obj
 0002:000126c8       $xdatasym                  000000018005f6c8     LIBCMTD:chkstk.obj
 0002:000126d0       $xdatasym                  000000018005f6d0     LIBCMTD:amdsecgs.obj
 0002:000126d4       $unwind$?dllmain_crt_process_attach@@YAHQEAUHINSTANCE__@@QEAX@Z 000000018005f6d4     LIBCMTD:dll_dllmain.obj
 0002:000126f4       $unwind$?filt$0@?0??is_bad_read_pointer@@YA_NQEBX_K@Z@4HA 000000018005f6f4     libucrtd:debug_heap.obj
 0002:000126f4       $unwind$_free_dbg$fin$0    000000018005f6f4     libucrtd:debug_heap.obj
 0002:000126f4       $unwind$_query_new_handler$fin$0 000000018005f6f4     libucrtd:new_handler.obj
 0002:000126f4       $unwind$?fin$0@?0???$?RV<lambda_0ae27a3a962d80f24befdcbee591983d>@@AEAV<lambda_8d0ee55de4b1038c4002e0adecdf1839>@@V<lambda_dc504788e8f1664fe9b84e20bfb512f2>@@@?$__crt_seh_guarded_call@X@@QEAAX$$QEAV<lambda_0ae27a3a962d80f24befdcbee591983d>@@AEAV<lambda_8d0ee55de4b1038c4002e0adecdf1839>@@$$QEAV<lambda_dc504788e8f1664fe9b84e20bfb512f2>@@@Z@4HA 000000018005f6f4     libucrtd:per_thread_data.obj
 0002:000126f4       $unwind$?fin$0@?0???$?RV<lambda_2d41944a1d46af3157314b8a01080d33>@@AEAV<lambda_8f455de75cd7d7f24b4096f044d8b9e6>@@V<lambda_aa500f224e6afead328df44964fe2772>@@@?$__crt_seh_guarded_call@X@@QEAAX$$QEAV<lambda_2d41944a1d46af3157314b8a01080d33>@@AEAV<lambda_8f455de75cd7d7f24b4096f044d8b9e6>@@$$QEAV<lambda_aa500f224e6afead328df44964fe2772>@@@Z@4HA 000000018005f6f4     libucrtd:per_thread_data.obj
 0002:000126f4       $unwind$?fin$0@?0???$?RV<lambda_74a0ef281e44d15e1136f792f539efb3>@@AEAV<lambda_e157831efee4ea0afb0a2ace5dd5fd0d>@@V<lambda_04ddeca75b7c13fd67716e8dfcef87ee>@@@?$__crt_seh_guarded_call@X@@QEAAX$$QEAV<lambda_74a0ef281e44d15e1136f792f539efb3>@@AEAV<lambda_e157831efee4ea0afb0a2ace5dd5fd0d>@@$$QEAV<lambda_04ddeca75b7c13fd67716e8dfcef87ee>@@@Z@4HA 000000018005f6f4     libucrtd:per_thread_data.obj
 0002:000126f4       $unwind$?fin$0@?0???$?RV<lambda_aa87e3671a710a21b5dc78c0bdf72e11>@@AEAV<lambda_92619d2358a28f41a33ba319515a20b9>@@V<lambda_6992ecaafeb10aed2b74cb1fae11a551>@@@?$__crt_seh_guarded_call@X@@QEAAX$$QEAV<lambda_aa87e3671a710a21b5dc78c0bdf72e11>@@AEAV<lambda_92619d2358a28f41a33ba319515a20b9>@@$$QEAV<lambda_6992ecaafeb10aed2b74cb1fae11a551>@@@Z@4HA 000000018005f6f4     libucrtd:per_thread_data.obj
 0002:000126f4       $unwind$__acrt_update_thread_locale_data$fin$0 000000018005f6f4     libucrtd:locale_refcounting.obj
 0002:000126f4       $unwind$?fin$0@?0???$?RV<lambda_410d79af7f07d98d83a3f525b3859a53>@@AEAV<lambda_3e16ef9562a7dcce91392c22ab16ea36>@@V<lambda_38119f0e861e05405d8a144b9b982f0a>@@@?$__crt_seh_guarded_call@X@@QEAAX$$QEAV<lambda_410d79af7f07d98d83a3f525b3859a53>@@AEAV<lambda_3e16ef9562a7dcce91392c22ab16ea36>@@$$QEAV<lambda_38119f0e861e05405d8a144b9b982f0a>@@@Z@4HA 000000018005f6f4     libucrtd:wsetlocale.obj
 0002:000126f4       $unwind$?fin$0@?0???$?RV<lambda_19eaff14c5fe7be5b1b106a862eb1091>@@AEAV<lambda_af29824b49a67d335554598d6cad2be6>@@V<lambda_3ce37f5b621ab310299ea5f68cbdf3bb>@@@?$__crt_seh_guarded_call@H@@QEAAH$$QEAV<lambda_19eaff14c5fe7be5b1b106a862eb1091>@@AEAV<lambda_af29824b49a67d335554598d6cad2be6>@@$$QEAV<lambda_3ce37f5b621ab310299ea5f68cbdf3bb>@@@Z@4HA 000000018005f6f4     libucrtd:close.obj
 0002:000126f4       $unwind$?fin$0@?0???$?RV<lambda_7d29013d608e9f25a034de83c9b9e983>@@AEAV<lambda_3e4146214822e0ea86c47ff907aef2ff>@@V<lambda_b869e5a4e1069fcb5c3da79c0d999133>@@@?$__crt_seh_guarded_call@H@@QEAAH$$QEAV<lambda_7d29013d608e9f25a034de83c9b9e983>@@AEAV<lambda_3e4146214822e0ea86c47ff907aef2ff>@@$$QEAV<lambda_b869e5a4e1069fcb5c3da79c0d999133>@@@Z@4HA 000000018005f6f4     libucrtd:commit.obj
 0002:000126f4       $unwind$__acrt_initialize_lowio$fin$0 000000018005f6f4     libucrtd:ioinit.obj
 0002:000126f4       $unwind$?fin$0@?0???$?RV<lambda_efa02eb69bf647d2f7ff0dd6f1103f72>@@AEAV<lambda_bd5a608237428601b7e45fbdc72b1ae8>@@V<lambda_728235dc0fc2b1f82d1fa5b3e7102d8f>@@@?$__crt_seh_guarded_call@X@@QEAAX$$QEAV<lambda_efa02eb69bf647d2f7ff0dd6f1103f72>@@AEAV<lambda_bd5a608237428601b7e45fbdc72b1ae8>@@$$QEAV<lambda_728235dc0fc2b1f82d1fa5b3e7102d8f>@@@Z@4HA 000000018005f6f4     libucrtd:mbctype.obj
 0002:000126f4       $unwind$?fin$0@?0??update_thread_multibyte_data_internal@@YAPEAU__crt_multibyte_data@@QEAU__acrt_ptd@@QEAPEAU1@@Z@4HA 000000018005f6f4     libucrtd:mbctype.obj
