 win32_handmade

 Timestamp is 65cd4682 (Wed Feb 14 20:02:26 2024)

 Preferred load address is 0000000140000000

 Start         Length     Name                   Class
 0001:00000000 0003f050H .text$mn                CODE
 0001:0003f050 00000040H .text$mn$00             CODE
 0001:0003f090 00000a70H .text$mn$21             CODE
 0001:0003fb00 0000063dH .text$x                 CODE
 0002:00000000 00000388H .idata$5                DATA
 0002:00000388 00000038H .00cfg                  DATA
 0002:000003c0 00000008H .CRT$XCA                DATA
 0002:000003c8 00000008H .CRT$XCAA               DATA
 0002:000003d0 00000008H .CRT$XCZ                DATA
 0002:000003d8 00000008H .CRT$XIA                DATA
 0002:000003e0 00000008H .CRT$XIAA               DATA
 0002:000003e8 00000008H .CRT$XIAC               DATA
 0002:000003f0 00000020H .CRT$XIC                DATA
 0002:00000410 00000008H .CRT$XIZ                DATA
 0002:00000418 00000008H .CRT$XPA                DATA
 0002:00000420 00000010H .CRT$XPX                DATA
 0002:00000430 00000008H .CRT$XPXA               DATA
 0002:00000438 00000008H .CRT$XPZ                DATA
 0002:00000440 00000008H .CRT$XTA                DATA
 0002:00000448 00000008H .CRT$XTZ                DATA
 0002:00000450 00000000H .gehcont$y              DATA
 0002:00000450 00000000H .gfids$y                DATA
 0002:00000450 00010d30H .rdata                  DATA
 0002:00011180 00000180H .rdata$00               DATA
 0002:00011300 00000000H .rdata$CastGuardVftablesA DATA
 0002:00011300 00000000H .rdata$CastGuardVftablesC DATA
 0002:00011300 0000016cH .rdata$r                DATA
 0002:0001146c 00000394H .rdata$voltmd           DATA
 0002:00011800 00000398H .rdata$zzzdbg           DATA
 0002:00011b98 00000008H .rtc$IAA                DATA
 0002:00011ba0 00000008H .rtc$IZZ                DATA
 0002:00011ba8 00000008H .rtc$TAA                DATA
 0002:00011bb0 00000008H .rtc$TZZ                DATA
 0002:00011bb8 000012f0H .xdata                  DATA
 0002:00012ea8 00000084H .xdata$x                DATA
 0002:00012f2c 00000000H .edata                  DATA
 0002:00012f2c 00000050H .idata$2                DATA
 0002:00012f7c 00000014H .idata$3                DATA
 0002:00012f90 00000388H .idata$4                DATA
 0002:00013318 000007bcH .idata$6                DATA
 0003:00000000 00000ac0H .data                   DATA
 0003:00000ac0 00000050H .data$r                 DATA
 0003:00000b10 00000020H .data$rs                DATA
 0003:00000b30 000018b8H .bss                    DATA
 0004:00000000 00003180H .pdata                  DATA
 0005:00000000 000001f4H _RDATA                  DATA

  Address         Publics by Value              Rva+Base               Lib:Object

 0000:00000000       __AbsoluteZero             0000000000000000     <absolute>
 0000:00000000       ___safe_se_handler_count   0000000000000000     <absolute>
 0000:00000000       ___safe_se_handler_table   0000000000000000     <absolute>
 0000:00000000       __arm64x_extra_rfe_table   0000000000000000     <absolute>
 0000:00000000       __arm64x_extra_rfe_table_size 0000000000000000     <absolute>
 0000:00000000       __arm64x_native_entrypoint 0000000000000000     <absolute>
 0000:00000000       __arm64x_redirection_metadata 0000000000000000     <absolute>
 0000:00000000       __arm64x_redirection_metadata_count 0000000000000000     <absolute>
 0000:00000000       __dynamic_value_reloc_table 0000000000000000     <absolute>
 0000:00000000       __enclave_config           0000000000000000     <absolute>
 0000:00000000       __guard_check_icall_a64n_fptr 0000000000000000     <absolute>
 0000:00000000       __guard_eh_cont_count      0000000000000000     <absolute>
 0000:00000000       __guard_eh_cont_table      0000000000000000     <absolute>
 0000:00000000       __guard_fids_count         0000000000000000     <absolute>
 0000:00000000       __guard_fids_table         0000000000000000     <absolute>
 0000:00000000       __guard_iat_count          0000000000000000     <absolute>
 0000:00000000       __guard_iat_table          0000000000000000     <absolute>
 0000:00000000       __guard_longjmp_count      0000000000000000     <absolute>
 0000:00000000       __guard_longjmp_table      0000000000000000     <absolute>
 0000:00000000       __hybrid_auxiliary_delayload_iat 0000000000000000     <absolute>
 0000:00000000       __hybrid_auxiliary_delayload_iat_copy 0000000000000000     <absolute>
 0000:00000000       __hybrid_auxiliary_iat     0000000000000000     <absolute>
 0000:00000000       __hybrid_auxiliary_iat_copy 0000000000000000     <absolute>
 0000:00000000       __hybrid_code_map          0000000000000000     <absolute>
 0000:00000000       __hybrid_code_map_count    0000000000000000     <absolute>
 0000:00000000       __hybrid_image_info_bitfield 0000000000000000     <absolute>
 0000:00000000       __x64_code_ranges_to_entry_points 0000000000000000     <absolute>
 0000:00000000       __x64_code_ranges_to_entry_points_count 0000000000000000     <absolute>
 0000:00000100       __guard_flags              0000000000000100     <absolute>
 0000:00000000       __ImageBase                0000000140000000     <linker-defined>
 0001:00000000       WinMain                    0000000140001000 f   win32_handmade.obj
 0001:00001790       ?XInputGetStateStub@@YAKKPEAU_XINPUT_STATE@@@Z 0000000140002790 f   win32_handmade.obj
 0001:000017b0       ?XInputSetStateStub@@YAKKPEAU_XINPUT_VIBRATION@@@Z 00000001400027b0 f   win32_handmade.obj
 0001:00001a30       ?DEBUGPlatformFreeFileMemory@@YAXPEAUthread_context@@PEAX@Z 0000000140002a30 f   win32_handmade.obj
 0001:00001a70       ?DEBUGPlatformReadEntireFile@@YA?AUdebug_read_file_result@@PEAUthread_context@@PEAD@Z 0000000140002a70 f   win32_handmade.obj
 0001:00001bc0       ?DEBUGPlatformWriteEntireFile@@YAHPEAUthread_context@@PEADIPEAX@Z 0000000140002bc0 f   win32_handmade.obj
 0001:00003310       ?Win32GetLastWriteTime@@YA?AU_FILETIME@@PEAD@Z 0000000140004310 f i win32_handmade.obj
 0001:00003380       ?Win32GetSecondsElapsed@@YAMT_LARGE_INTEGER@@0@Z 0000000140004380 f i win32_handmade.obj
 0001:000033c0       ?Win32GetWallClock@@YA?AT_LARGE_INTEGER@@XZ 00000001400043c0 f i win32_handmade.obj
 0001:000033e0       GetController              00000001400043e0 f i win32_handmade.obj
 0001:00003430       SafeTruncateUInt64         0000000140004430 f i win32_handmade.obj
 0001:00003460       __GSHandlerCheck           0000000140004460 f   LIBCMTD:gshandler.obj
 0001:000034a0       __GSHandlerCheckCommon     00000001400044a0 f   LIBCMTD:gshandler.obj
 0001:000035b0       __chkstk                   00000001400045b0 f   LIBCMTD:chkstk.obj
 0001:000035b0       _alloca_probe              00000001400045b0 f   LIBCMTD:chkstk.obj
 0001:00003610       __security_check_cookie    0000000140004610 f   LIBCMTD:amdsecgs.obj
 0001:000038e0       ?configure_argv@__scrt_narrow_argv_policy@@SAHXZ 00000001400048e0 f i LIBCMTD:exe_winmain.obj
 0001:00003900       ?initialize_environment@__scrt_narrow_environment_policy@@SAHXZ 0000000140004900 f i LIBCMTD:exe_winmain.obj
 0001:00003950       ?set_app_type@__scrt_winmain_policy@@SAXXZ 0000000140004950 f i LIBCMTD:exe_winmain.obj
 0001:00003970       ?set_commode@__scrt_file_policy@@SAXXZ 0000000140004970 f i LIBCMTD:exe_winmain.obj
 0001:00003990       ?set_fmode@__scrt_file_policy@@SAXXZ 0000000140004990 f i LIBCMTD:exe_winmain.obj
 0001:000039b0       WinMainCRTStartup          00000001400049b0 f   LIBCMTD:exe_winmain.obj
 0001:000039d0       __raise_securityfailure    00000001400049d0 f   LIBCMTD:gs_report.obj
 0001:00003a10       __report_gsfailure         0000000140004a10 f   LIBCMTD:gs_report.obj
 0001:00003af0       __report_rangecheckfailure 0000000140004af0 f   LIBCMTD:gs_report.obj
 0001:00003b10       __report_securityfailure   0000000140004b10 f   LIBCMTD:gs_report.obj
 0001:00003e70       NtCurrentTeb               0000000140004e70 f i LIBCMTD:utility.obj
 0001:00003e80       __scrt_acquire_startup_lock 0000000140004e80 f   LIBCMTD:utility.obj
 0001:00003ef0       __scrt_initialize_crt      0000000140004ef0 f   LIBCMTD:utility.obj
 0001:00003f40       __scrt_initialize_onexit_tables 0000000140004f40 f   LIBCMTD:utility.obj
 0001:00004050       __scrt_is_nonwritable_in_current_image 0000000140005050 f   LIBCMTD:utility.obj
 0001:000040e0       __scrt_release_startup_lock 00000001400050e0 f   LIBCMTD:utility.obj
 0001:00004110       __scrt_uninitialize_crt    0000000140005110 f   LIBCMTD:utility.obj
 0001:00004150       _onexit                    0000000140005150 f   LIBCMTD:utility.obj
 0001:000041d0       atexit                     00000001400051d0 f   LIBCMTD:utility.obj
 0001:000042d0       __security_init_cookie     00000001400052d0 f   LIBCMTD:gs_support.obj
 0001:00004350       ?get_current_state_index@__crt_state_management@@YA_KAEBV__crt_scoped_get_last_error_reset@@@Z 0000000140005350 f   libucrtd:invalid_parameter.obj
 0001:00004350       _matherr                   0000000140005350 f   LIBCMTD:matherr.obj
 0001:00004360       _get_startup_argv_mode     0000000140005360 f   LIBCMTD:argv_mode.obj
 0001:00004370       ?get_current_state_index@__crt_state_management@@YA_KXZ 0000000140005370 f   libucrtd:matherr.obj
 0001:00004370       ?get_invalid_value@__crt_hmodule_traits@@SAPEAUHINSTANCE__@@XZ 0000000140005370 f   libucrtd:exit.obj
 0001:00004370       __scrt_exe_initialize_mta  0000000140005370 f   LIBCMTD:utility_desktop.obj
 0001:00004370       __scrt_initialize_winrt    0000000140005370 f   LIBCMTD:utility_desktop.obj
 0001:00004370       __scrt_stub_for_initialize_mta 0000000140005370 f   LIBCMTD:utility_desktop.obj
 0001:00004370       _get_startup_commit_mode   0000000140005370 f   LIBCMTD:commit_mode.obj
 0001:00004370       _get_startup_new_mode      0000000140005370 f   LIBCMTD:new_mode.obj
 0001:00004370       _get_startup_thread_locale_mode 0000000140005370 f   LIBCMTD:thread_locale.obj
 0001:00004380       _get_startup_file_mode     0000000140005380 f   LIBCMTD:file_mode.obj
 0001:00004390       ?__scrt_initialize_type_info@@YAXXZ 0000000140005390 f   LIBCMTD:tncleanup.obj
 0001:000043b0       _should_initialize_environment 00000001400053b0 f   LIBCMTD:env_mode.obj
 0001:000043c0       _initialize_denormal_control 00000001400053c0 f   LIBCMTD:denormal_control.obj
 0001:000043c0       _initialize_invalid_parameter_handler 00000001400053c0 f   LIBCMTD:invalid_parameter_handler.obj
 0001:000043d0       __local_stdio_printf_options 00000001400053d0 f i LIBCMTD:default_local_stdio_options.obj
 0001:000043e0       __local_stdio_scanf_options 00000001400053e0 f i LIBCMTD:default_local_stdio_options.obj
 0001:000043f0       __scrt_initialize_default_local_stdio_options 00000001400053f0 f   LIBCMTD:default_local_stdio_options.obj
 0001:00004440       __scrt_is_user_matherr_present 0000000140005440 f   LIBCMTD:matherr_detection.obj
 0001:00004470       __scrt_get_dyn_tls_init_callback 0000000140005470 f   LIBCMTD:dyn_tls_init.obj
 0001:00004480       __scrt_get_dyn_tls_dtor_callback 0000000140005480 f   LIBCMTD:dyn_tls_dtor.obj
 0001:00004490       __crt_debugger_hook        0000000140005490 f   LIBCMTD:utility_desktop.obj
 0001:000044a0       __scrt_fastfail            00000001400054a0 f   LIBCMTD:utility_desktop.obj
 0001:00004640       __scrt_get_show_window_mode 0000000140005640 f   LIBCMTD:utility_desktop.obj
 0001:000046a0       __scrt_initialize_mta      00000001400056a0 f   LIBCMTD:utility_desktop.obj
 0001:000046b0       __scrt_is_managed_app      00000001400056b0 f   LIBCMTD:utility_desktop.obj
 0001:00004760       __scrt_set_unhandled_exception_filter 0000000140005760 f   LIBCMTD:utility_desktop.obj
 0001:00004780       __scrt_unhandled_exception_filter 0000000140005780 f   LIBCMTD:utility_desktop.obj
 0001:00004820       _RTC_Initialize            0000000140005820 f   LIBCMTD:initsect.obj
 0001:00004870       _RTC_Terminate             0000000140005870 f   LIBCMTD:initsect.obj
 0001:000048c0       ??1?$__crt_simd_cleanup_guard@$0A@@@QEAA@XZ 00000001400058c0 f i libucrtd:strnlen.obj
 0001:000048c0       ??1scoped_global_state_reset@__crt_state_management@@QEAA@XZ 00000001400058c0 f i libucrtd:onexit.obj
 0001:000048c0       _guard_check_icall_nop     00000001400058c0 f i LIBCMTD:guard_support.obj
 0001:000048d0       ReadNoFence64              00000001400058d0 f i LIBCMTD:guard_support.obj
 0001:000048f0       ReadPointerNoFence         00000001400058f0 f i LIBCMTD:guard_support.obj
 0001:00004910       _guard_icall_checks_enforced 0000000140005910 f i LIBCMTD:guard_support.obj
 0001:00004950       __isa_available_init       0000000140005950 f   LIBCMTD:cpu_disp.obj
 0001:00004d00       __scrt_is_ucrt_dll_in_use  0000000140005d00 f   LIBCMTD:ucrt_detection.obj
 0001:00004d30       __C_specific_handler       0000000140005d30 f   libvcruntimed:riscchandler.obj
 0001:000051a0       __vcrt_initialize          00000001400061a0 f   libvcruntimed:initialization.obj
 0001:000051e0       __vcrt_uninitialize        00000001400061e0 f   libvcruntimed:initialization.obj
 0001:00005200       ??$?RD@__crt_internal_free_policy@@QEBAXQEBD@Z 0000000140006200 f i libvcruntimed:std_type_info.obj
 0001:00005200       ??$?RE@__crt_internal_free_policy@@QEBAXQEBE@Z 0000000140006200 f i libucrtd:argv_parsing.obj
 0001:00005200       ??$?RP6AXXZ@__crt_internal_free_policy@@QEBAXQEBQ6AXXZ@Z 0000000140006200 f i libucrtd:onexit.obj
 0001:00005200       ??$?RPEAD@__crt_internal_free_policy@@QEBAXQEBQEAD@Z 0000000140006200 f i libucrtd:argv_parsing.obj
 0001:00005200       ??$?RPEAU__crt_stdio_stream_data@@@__crt_internal_free_policy@@QEBAXQEBQEAU__crt_stdio_stream_data@@@Z 0000000140006200 f i libucrtd:_file.obj
 0001:00005200       ??$?RU__acrt_ptd@@@__crt_internal_free_policy@@QEBAXQEBU__acrt_ptd@@@Z 0000000140006200 f i libucrtd:per_thread_data.obj
 0001:00005200       ??$?RU__crt_lowio_handle_data@@@__crt_internal_free_policy@@QEBAXQEBU__crt_lowio_handle_data@@@Z 0000000140006200 f i libucrtd:osfinfo.obj
 0001:00005200       ??$?RU__crt_multibyte_data@@@__crt_internal_free_policy@@QEBAXQEBU__crt_multibyte_data@@@Z 0000000140006200 f i libucrtd:wsetlocale.obj
 0001:00005200       ??$?RU__vcrt_ptd@@@__crt_internal_free_policy@@QEBAXQEBU__vcrt_ptd@@@Z 0000000140006200 f i libvcruntimed:per_thread_data.obj
 0001:00005230       ??0?$__crt_scoped_stack_ptr@_W@@QEAA@U?$__crt_scoped_stack_ptr_tag@_W@@@Z 0000000140006230 f i libucrtd:getstringtypea.obj
 0001:00005230       ??0?$__crt_scoped_stack_ptr_tag@_W@@QEAA@QEA_W@Z 0000000140006230 f i libucrtd:getstringtypea.obj
 0001:00005230       ??0?$__crt_unique_handle_t@U__crt_findfile_traits@@@@QEAA@QEAX@Z 0000000140006230 f i libucrtd:argv_wildcards.obj
 0001:00005230       ??0?$__crt_unique_handle_t@U__crt_hmodule_traits@@@@QEAA@QEAUHINSTANCE__@@@Z 0000000140006230 f i libucrtd:exit.obj
 0001:00005230       ??0?$__crt_unique_heap_ptr@DU__crt_internal_free_policy@@@@QEAA@QEAD@Z 0000000140006230 f i libvcruntimed:std_type_info.obj
 0001:00005230       ??0?$__crt_unique_heap_ptr@DU__crt_public_free_policy@@@@QEAA@QEAD@Z 0000000140006230 f i libvcruntimed:std_exception.obj
 0001:00005230       ??0?$__crt_unique_heap_ptr@EU__crt_internal_free_policy@@@@QEAA@QEAE@Z 0000000140006230 f i libucrtd:argv_parsing.obj
 0001:00005230       ??0?$__crt_unique_heap_ptr@P6AXXZU__crt_internal_free_policy@@@@QEAA@QEAP6AXXZ@Z 0000000140006230 f i libucrtd:onexit.obj
 0001:00005230       ??0?$__crt_unique_heap_ptr@PEADU__crt_internal_free_policy@@@@QEAA@QEAPEAD@Z 0000000140006230 f i libucrtd:argv_parsing.obj
 0001:00005230       ??0?$__crt_unique_heap_ptr@PEAU__crt_stdio_stream_data@@U__crt_internal_free_policy@@@@QEAA@QEAPEAU__crt_stdio_stream_data@@@Z 0000000140006230 f i libucrtd:_file.obj
 0001:00005230       ??0?$__crt_unique_heap_ptr@U__acrt_ptd@@U__crt_internal_free_policy@@@@QEAA@QEAU__acrt_ptd@@@Z 0000000140006230 f i libucrtd:per_thread_data.obj
 0001:00005230       ??0?$__crt_unique_heap_ptr@U__crt_lowio_handle_data@@U__crt_internal_free_policy@@@@QEAA@QEAU__crt_lowio_handle_data@@@Z 0000000140006230 f i libucrtd:osfinfo.obj
 0001:00005230       ??0?$__crt_unique_heap_ptr@U__crt_multibyte_data@@U__crt_internal_free_policy@@@@QEAA@QEAU__crt_multibyte_data@@@Z 0000000140006230 f i libucrtd:wsetlocale.obj
 0001:00005230       ??0?$__crt_unique_heap_ptr@U__vcrt_ptd@@U__crt_internal_free_policy@@@@QEAA@QEAU__vcrt_ptd@@@Z 0000000140006230 f i libvcruntimed:per_thread_data.obj
 0001:00005230       ??0?$string_output_adapter@D@__crt_stdio_output@@QEAA@QEAU?$string_output_adapter_context@D@1@@Z 0000000140006230 f i libucrtd:output.obj
 0001:00005230       ??0?$string_output_adapter@_W@__crt_stdio_output@@QEAA@QEAU?$string_output_adapter_context@_W@1@@Z 0000000140006230 f i libucrtd:output.obj
 0001:00005230       ??0__crt_stdio_stream@@QEAA@QEAU__crt_stdio_stream_data@@@Z 0000000140006230 f i libucrtd:fflush.obj
 0001:00005230       ??0__crt_stdio_stream@@QEAA@QEAU_iobuf@@@Z 0000000140006230 f i libucrtd:output.obj
 0001:00005250       ??1?$__crt_unique_heap_ptr@DU__crt_internal_free_policy@@@@QEAA@XZ 0000000140006250 f i libvcruntimed:std_type_info.obj
 0001:00005250       ??1?$__crt_unique_heap_ptr@EU__crt_internal_free_policy@@@@QEAA@XZ 0000000140006250 f i libucrtd:argv_parsing.obj
 0001:00005250       ??1?$__crt_unique_heap_ptr@P6AXXZU__crt_internal_free_policy@@@@QEAA@XZ 0000000140006250 f i libucrtd:onexit.obj
 0001:00005250       ??1?$__crt_unique_heap_ptr@PEADU__crt_internal_free_policy@@@@QEAA@XZ 0000000140006250 f i libucrtd:argv_parsing.obj
 0001:00005250       ??1?$__crt_unique_heap_ptr@PEAU__crt_stdio_stream_data@@U__crt_internal_free_policy@@@@QEAA@XZ 0000000140006250 f i libucrtd:_file.obj
 0001:00005250       ??1?$__crt_unique_heap_ptr@U__acrt_ptd@@U__crt_internal_free_policy@@@@QEAA@XZ 0000000140006250 f i libucrtd:per_thread_data.obj
 0001:00005250       ??1?$__crt_unique_heap_ptr@U__crt_lowio_handle_data@@U__crt_internal_free_policy@@@@QEAA@XZ 0000000140006250 f i libucrtd:osfinfo.obj
 0001:00005250       ??1?$__crt_unique_heap_ptr@U__crt_multibyte_data@@U__crt_internal_free_policy@@@@QEAA@XZ 0000000140006250 f i libucrtd:wsetlocale.obj
 0001:00005250       ??1?$__crt_unique_heap_ptr@U__vcrt_ptd@@U__crt_internal_free_policy@@@@QEAA@XZ 0000000140006250 f i libvcruntimed:per_thread_data.obj
 0001:00005270       ??B?$__crt_unique_heap_ptr@DU__crt_internal_free_policy@@@@QEBA_NXZ 0000000140006270 f i libvcruntimed:std_type_info.obj
 0001:00005270       ??B?$__crt_unique_heap_ptr@DU__crt_public_free_policy@@@@QEBA_NXZ 0000000140006270 f i libvcruntimed:std_exception.obj
 0001:00005270       ??B?$__crt_unique_heap_ptr@EU__crt_internal_free_policy@@@@QEBA_NXZ 0000000140006270 f i libucrtd:argv_parsing.obj
 0001:00005270       ??B?$__crt_unique_heap_ptr@PEADU__crt_internal_free_policy@@@@QEBA_NXZ 0000000140006270 f i libucrtd:environment_initialization.obj
 0001:00005270       ??B?$__crt_unique_heap_ptr@U__acrt_ptd@@U__crt_internal_free_policy@@@@QEBA_NXZ 0000000140006270 f i libucrtd:per_thread_data.obj
 0001:00005270       ??B?$__crt_unique_heap_ptr@U__crt_lowio_handle_data@@U__crt_internal_free_policy@@@@QEBA_NXZ 0000000140006270 f i libucrtd:osfinfo.obj
 0001:00005270       ??B?$__crt_unique_heap_ptr@U__crt_multibyte_data@@U__crt_internal_free_policy@@@@QEBA_NXZ 0000000140006270 f i libucrtd:wsetlocale.obj
 0001:00005270       ??B?$__crt_unique_heap_ptr@U__vcrt_ptd@@U__crt_internal_free_policy@@@@QEBA_NXZ 0000000140006270 f i libvcruntimed:per_thread_data.obj
 0001:00005290       ?__crt_interlocked_read_64@@YA_JPED_J@Z 0000000140006290 f i libvcruntimed:std_type_info.obj
 0001:000052b0       ??C__crt_stdio_stream@@QEBAPEAU__crt_stdio_stream_data@@XZ 00000001400062b0 f i libucrtd:output.obj
 0001:000052b0       ?get@?$__crt_scoped_stack_ptr@_W@@QEBAPEA_WXZ 00000001400062b0 f i libucrtd:getstringtypea.obj
 0001:000052b0       ?get@?$__crt_unique_handle_t@U__crt_findfile_traits@@@@QEBAPEAXXZ 00000001400062b0 f i libucrtd:argv_wildcards.obj
 0001:000052b0       ?get@?$__crt_unique_handle_t@U__crt_hmodule_traits@@@@QEBAPEAUHINSTANCE__@@XZ 00000001400062b0 f i libucrtd:exit.obj
 0001:000052b0       ?get@?$__crt_unique_heap_ptr@DU__crt_internal_free_policy@@@@QEBAPEADXZ 00000001400062b0 f i libvcruntimed:std_type_info.obj
 0001:000052b0       ?get@?$__crt_unique_heap_ptr@DU__crt_public_free_policy@@@@QEBAPEADXZ 00000001400062b0 f i libvcruntimed:std_exception.obj
 0001:000052b0       ?get@?$__crt_unique_heap_ptr@EU__crt_internal_free_policy@@@@QEBAPEAEXZ 00000001400062b0 f i libucrtd:argv_parsing.obj
 0001:000052b0       ?get@?$__crt_unique_heap_ptr@PEADU__crt_internal_free_policy@@@@QEBAPEAPEADXZ 00000001400062b0 f i libucrtd:argv_parsing.obj
 0001:000052b0       ?get@?$__crt_unique_heap_ptr@U__acrt_ptd@@U__crt_internal_free_policy@@@@QEBAPEAU__acrt_ptd@@XZ 00000001400062b0 f i libucrtd:per_thread_data.obj
 0001:000052b0       ?get@?$__crt_unique_heap_ptr@U__crt_lowio_handle_data@@U__crt_internal_free_policy@@@@QEBAPEAU__crt_lowio_handle_data@@XZ 00000001400062b0 f i libucrtd:osfinfo.obj
 0001:000052b0       ?get@?$__crt_unique_heap_ptr@U__crt_multibyte_data@@U__crt_internal_free_policy@@@@QEBAPEAU__crt_multibyte_data@@XZ 00000001400062b0 f i libucrtd:wsetlocale.obj
 0001:000052b0       ?get@?$__crt_unique_heap_ptr@U__vcrt_ptd@@U__crt_internal_free_policy@@@@QEBAPEAU__vcrt_ptd@@XZ 00000001400062b0 f i libvcruntimed:per_thread_data.obj
 0001:000052b0       ?public_stream@__crt_stdio_stream@@QEBAPEAU_iobuf@@XZ 00000001400062b0 f i libucrtd:output.obj
 0001:000052b0       ?save_state@?$c_string_character_source@D@__crt_strtox@@QEBAPEBDXZ 00000001400062b0 f i libucrtd:output.obj
 0001:000052b0       ?save_state@?$c_string_character_source@_W@__crt_strtox@@QEBAPEB_WXZ 00000001400062b0 f i libucrtd:output.obj
 0001:000052c0       ??B?$__crt_scoped_stack_ptr@_W@@QEBA_NXZ 00000001400062c0 f i libucrtd:lcmapstringa.obj
 0001:000052c0       ?is_valid@?$__crt_unique_heap_ptr@DU__crt_internal_free_policy@@@@QEBA_NXZ 00000001400062c0 f i libvcruntimed:std_type_info.obj
 0001:000052c0       ?is_valid@?$__crt_unique_heap_ptr@DU__crt_public_free_policy@@@@QEBA_NXZ 00000001400062c0 f i libvcruntimed:std_exception.obj
 0001:000052c0       ?is_valid@?$__crt_unique_heap_ptr@EU__crt_internal_free_policy@@@@QEBA_NXZ 00000001400062c0 f i libucrtd:argv_parsing.obj
 0001:000052c0       ?is_valid@?$__crt_unique_heap_ptr@PEADU__crt_internal_free_policy@@@@QEBA_NXZ 00000001400062c0 f i libucrtd:environment_initialization.obj
 0001:000052c0       ?is_valid@?$__crt_unique_heap_ptr@U__acrt_ptd@@U__crt_internal_free_policy@@@@QEBA_NXZ 00000001400062c0 f i libucrtd:per_thread_data.obj
 0001:000052c0       ?is_valid@?$__crt_unique_heap_ptr@U__crt_lowio_handle_data@@U__crt_internal_free_policy@@@@QEBA_NXZ 00000001400062c0 f i libucrtd:osfinfo.obj
 0001:000052c0       ?is_valid@?$__crt_unique_heap_ptr@U__crt_multibyte_data@@U__crt_internal_free_policy@@@@QEBA_NXZ 00000001400062c0 f i libucrtd:wsetlocale.obj
 0001:000052c0       ?is_valid@?$__crt_unique_heap_ptr@U__vcrt_ptd@@U__crt_internal_free_policy@@@@QEBA_NXZ 00000001400062c0 f i libvcruntimed:per_thread_data.obj
 0001:000052c0       ?valid@__crt_stdio_stream@@QEBA_NXZ 00000001400062c0 f i libucrtd:output.obj
 0001:000052f0       ?release@?$__crt_unique_heap_ptr@DU__crt_internal_free_policy@@@@QEAAXXZ 00000001400062f0 f i libvcruntimed:std_type_info.obj
 0001:000052f0       ?release@?$__crt_unique_heap_ptr@EU__crt_internal_free_policy@@@@QEAAXXZ 00000001400062f0 f i libucrtd:argv_parsing.obj
 0001:000052f0       ?release@?$__crt_unique_heap_ptr@P6AXXZU__crt_internal_free_policy@@@@QEAAXXZ 00000001400062f0 f i libucrtd:onexit.obj
 0001:000052f0       ?release@?$__crt_unique_heap_ptr@PEADU__crt_internal_free_policy@@@@QEAAXXZ 00000001400062f0 f i libucrtd:argv_parsing.obj
 0001:000052f0       ?release@?$__crt_unique_heap_ptr@PEAU__crt_stdio_stream_data@@U__crt_internal_free_policy@@@@QEAAXXZ 00000001400062f0 f i libucrtd:_file.obj
 0001:000052f0       ?release@?$__crt_unique_heap_ptr@U__acrt_ptd@@U__crt_internal_free_policy@@@@QEAAXXZ 00000001400062f0 f i libucrtd:per_thread_data.obj
 0001:000052f0       ?release@?$__crt_unique_heap_ptr@U__crt_lowio_handle_data@@U__crt_internal_free_policy@@@@QEAAXXZ 00000001400062f0 f i libucrtd:osfinfo.obj
 0001:000052f0       ?release@?$__crt_unique_heap_ptr@U__crt_multibyte_data@@U__crt_internal_free_policy@@@@QEAAXXZ 00000001400062f0 f i libucrtd:wsetlocale.obj
 0001:000052f0       ?release@?$__crt_unique_heap_ptr@U__vcrt_ptd@@U__crt_internal_free_policy@@@@QEAAXXZ 00000001400062f0 f i libvcruntimed:per_thread_data.obj
 0001:00005320       __std_type_info_compare    0000000140006320 f   libvcruntimed:std_type_info.obj
 0001:00005360       __DestructExceptionObject  0000000140006360 f   libvcruntimed:ehhelpers.obj
 0001:00005460       ?_CallMemberFunction0@@YAXQEAX0@Z 0000000140006460 f i libvcruntimed:ehhelpers.obj
 0001:00005530       _IsExceptionObjectToBeDestroyed 0000000140006530 f   libvcruntimed:ehhelpers.obj
 0001:00005580       __AdjustPointer            0000000140006580 f   libvcruntimed:ehhelpers.obj
 0001:00005600       __FrameUnwindFilter        0000000140006600 f   libvcruntimed:ehhelpers.obj
 0001:000056b0       __current_exception        00000001400066b0 f   libvcruntimed:ehhelpers.obj
 0001:000056d0       __current_exception_context 00000001400066d0 f   libvcruntimed:ehhelpers.obj
 0001:00005720       _NLG_Notify                0000000140006720 f   libvcruntimed:notify.obj
 0001:00005740       __NLG_Dispatch2            0000000140006740 f   libvcruntimed:notify.obj
 0001:00005750       __NLG_Return2              0000000140006750 f   libvcruntimed:notify.obj
 0001:00005760       __except_validate_context_record 0000000140006760 f   libvcruntimed:jbcxrval.obj
 0001:00005800       ?detach@?$__crt_unique_heap_ptr@DU__crt_internal_free_policy@@@@QEAAPEADXZ 0000000140006800 f i libucrtd:environment_initialization.obj
 0001:00005800       ?detach@?$__crt_unique_heap_ptr@DU__crt_public_free_policy@@@@QEAAPEADXZ 0000000140006800 f i libvcruntimed:std_exception.obj
 0001:00005800       ?detach@?$__crt_unique_heap_ptr@EU__crt_internal_free_policy@@@@QEAAPEAEXZ 0000000140006800 f i libucrtd:argv_parsing.obj
 0001:00005800       ?detach@?$__crt_unique_heap_ptr@P6AXXZU__crt_internal_free_policy@@@@QEAAPEAP6AXXZXZ 0000000140006800 f i libucrtd:onexit.obj
 0001:00005800       ?detach@?$__crt_unique_heap_ptr@PEADU__crt_internal_free_policy@@@@QEAAPEAPEADXZ 0000000140006800 f i libucrtd:argv_parsing.obj
 0001:00005800       ?detach@?$__crt_unique_heap_ptr@PEAU__crt_stdio_stream_data@@U__crt_internal_free_policy@@@@QEAAPEAPEAU__crt_stdio_stream_data@@XZ 0000000140006800 f i libucrtd:_file.obj
 0001:00005800       ?detach@?$__crt_unique_heap_ptr@U__acrt_ptd@@U__crt_internal_free_policy@@@@QEAAPEAU__acrt_ptd@@XZ 0000000140006800 f i libucrtd:per_thread_data.obj
 0001:00005800       ?detach@?$__crt_unique_heap_ptr@U__crt_lowio_handle_data@@U__crt_internal_free_policy@@@@QEAAPEAU__crt_lowio_handle_data@@XZ 0000000140006800 f i libucrtd:osfinfo.obj
 0001:00005800       ?detach@?$__crt_unique_heap_ptr@U__crt_multibyte_data@@U__crt_internal_free_policy@@@@QEAAPEAU__crt_multibyte_data@@XZ 0000000140006800 f i libucrtd:wsetlocale.obj
 0001:00005800       ?detach@?$__crt_unique_heap_ptr@U__vcrt_ptd@@U__crt_internal_free_policy@@@@QEAAPEAU__vcrt_ptd@@XZ 0000000140006800 f i libvcruntimed:per_thread_data.obj
 0001:00005870       __vcrt_freefls             0000000140006870 f   libvcruntimed:per_thread_data.obj
 0001:000058b0       __vcrt_getptd              00000001400068b0 f   libvcruntimed:per_thread_data.obj
 0001:000058e0       __vcrt_getptd_noexit       00000001400068e0 f   libvcruntimed:per_thread_data.obj
 0001:00005a80       __vcrt_initialize_ptd      0000000140006a80 f   libvcruntimed:per_thread_data.obj
 0001:00005ad0       __vcrt_uninitialize_ptd    0000000140006ad0 f   libvcruntimed:per_thread_data.obj
 0001:00005b00       __vcrt_initialize_locks    0000000140006b00 f   libvcruntimed:locks.obj
 0001:00005b70       __vcrt_uninitialize_locks  0000000140006b70 f   libvcruntimed:locks.obj
 0001:00005bd0       _vsprintf_s_l              0000000140006bd0 f i libvcruntimed:undname.obj
 0001:00005c40       sprintf_s                  0000000140006c40 f i libvcruntimed:undname.obj
 0001:00005ca0       ??$__crt_interlocked_exchange_pointer@UHINSTANCE__@@PEAU1@@@YAPEAUHINSTANCE__@@PEDSEAU0@QEAU0@@Z 0000000140006ca0 f i libvcruntimed:winapi_downlevel.obj
 0001:00005ca0       ??$__crt_interlocked_exchange_pointer@UHINSTANCE__@@PEAX@@YAPEAUHINSTANCE__@@PEDSEAU0@QEAX@Z 0000000140006ca0 f i libvcruntimed:winapi_downlevel.obj
 0001:00005ca0       ??$__crt_interlocked_exchange_pointer@XPEAX@@YAPEAXPEDSEAXQEAX@Z 0000000140006ca0 f i libvcruntimed:winapi_downlevel.obj
 0001:00005cc0       ??$__crt_interlocked_read_pointer@UHINSTANCE__@@@@YAPEAUHINSTANCE__@@PEDSEAU0@@Z 0000000140006cc0 f i libvcruntimed:winapi_downlevel.obj
 0001:00005cc0       ??$__crt_interlocked_read_pointer@X@@YAPEAXPEDSEAX@Z 0000000140006cc0 f i libvcruntimed:winapi_downlevel.obj
 0001:00005ce0       ?get_invalid_value@__crt_findfile_traits@@SAPEAXXZ 0000000140006ce0 f   libucrtd:argv_wildcards.obj
 0001:000061d0       __vcrt_FlsAlloc            00000001400071d0 f   libvcruntimed:winapi_downlevel.obj
 0001:00006220       __vcrt_FlsFree             0000000140007220 f   libvcruntimed:winapi_downlevel.obj
 0001:00006270       __vcrt_FlsGetValue         0000000140007270 f   libvcruntimed:winapi_downlevel.obj
 0001:000062c0       __vcrt_FlsSetValue         00000001400072c0 f   libvcruntimed:winapi_downlevel.obj
 0001:00006320       __vcrt_InitializeCriticalSectionEx 0000000140007320 f   libvcruntimed:winapi_downlevel.obj
 0001:00006390       ??$?0AEAViterator@TryBlockMap@__FrameHandler3@@AEAV012@$0A@@?$pair@Viterator@TryBlockMap@__FrameHandler3@@V123@@std@@QEAA@AEAViterator@TryBlockMap@__FrameHandler3@@0@Z 0000000140007390 f i libvcruntimed:risctrnsctrl.obj
 0001:000064a0       ??$_CallSETranslator@V__FrameHandler3@@@@YAHPEAUEHExceptionRecord@@PEA_KPEAU_CONTEXT@@PEAU_xDISPATCHER_CONTEXT@@PEBU_s_FuncInfo@@K1H@Z 00000001400074a0 f i libvcruntimed:risctrnsctrl.obj
 0001:00006530       ??0iterator@HandlerMap@__FrameHandler3@@QEAA@AEAV12@I@Z 0000000140007530 f i libvcruntimed:frame.obj
 0001:00006530       ??0iterator@TryBlockMap@__FrameHandler3@@QEAA@AEAV12@I@Z 0000000140007530 f i libvcruntimed:risctrnsctrl.obj
 0001:00006560       ?CatchTryBlock@__FrameHandler3@@SAPEBU_s_TryBlockMapEntry@@PEBU_s_FuncInfo@@H@Z 0000000140007560 f   libvcruntimed:risctrnsctrl.obj
 0001:000065f0       ?ExecutionInCatch@__FrameHandler3@@SA_NPEAU_xDISPATCHER_CONTEXT@@PEBU_s_FuncInfo@@@Z 00000001400075f0 f   libvcruntimed:risctrnsctrl.obj
 0001:00006640       ?FrameUnwindToEmptyState@__FrameHandler3@@SAXPEA_KPEAU_xDISPATCHER_CONTEXT@@PEBU_s_FuncInfo@@@Z 0000000140007640 f   libvcruntimed:risctrnsctrl.obj
 0001:000066e0       ?GetEstablisherFrame@__FrameHandler3@@SAPEA_KPEA_KPEAU_xDISPATCHER_CONTEXT@@PEBU_s_FuncInfo@@0@Z 00000001400076e0 f   libvcruntimed:risctrnsctrl.obj
 0001:00006850       ?GetRangeOfTrysToCheck@__FrameHandler3@@SA?AU?$pair@Viterator@TryBlockMap@__FrameHandler3@@V123@@std@@AEAVTryBlockMap@1@HPEAU_xDISPATCHER_CONTEXT@@PEBU_s_FuncInfo@@H@Z 0000000140007850 f   libvcruntimed:risctrnsctrl.obj
 0001:00006a90       ?UnwindNestedFrames@__FrameHandler3@@SAXPEA_KPEAUEHExceptionRecord@@PEAU_CONTEXT@@0PEAXPEBU_s_FuncInfo@@HHPEBU_s_HandlerType@@PEAU_xDISPATCHER_CONTEXT@@E@Z 0000000140007a90 f   libvcruntimed:risctrnsctrl.obj
 0001:00006c00       _CreateFrameInfo           0000000140007c00 f   libvcruntimed:risctrnsctrl.obj
 0001:00006c70       _FindAndUnlinkFrame        0000000140007c70 f   libvcruntimed:risctrnsctrl.obj
 0001:00006cf0       _GetImageBase              0000000140007cf0 f   libvcruntimed:risctrnsctrl.obj
 0001:00006d10       _GetThrowImageBase         0000000140007d10 f   libvcruntimed:risctrnsctrl.obj
 0001:00006d30       _SetImageBase              0000000140007d30 f   libvcruntimed:risctrnsctrl.obj
 0001:00006d50       _SetThrowImageBase         0000000140007d50 f   libvcruntimed:risctrnsctrl.obj
 0001:00006d70       __CxxFrameHandler3         0000000140007d70 f   libvcruntimed:risctrnsctrl.obj
 0001:00006e50       ?GetCurrentState@__FrameHandler3@@SAHPEA_KPEAU_xDISPATCHER_CONTEXT@@PEBU_s_FuncInfo@@@Z 0000000140007e50 f   libvcruntimed:ehstate.obj
 0001:00006eb0       ?GetUnwindTryBlock@__FrameHandler3@@SAHPEA_KPEAU_xDISPATCHER_CONTEXT@@PEBU_s_FuncInfo@@@Z 0000000140007eb0 f   libvcruntimed:ehstate.obj
 0001:00006f00       ?SetState@__FrameHandler3@@SAXPEA_KPEBU_s_FuncInfo@@H@Z 0000000140007f00 f   libvcruntimed:ehstate.obj
 0001:00006f30       ?SetUnwindTryBlock@__FrameHandler3@@SAXPEA_KPEAU_xDISPATCHER_CONTEXT@@PEBU_s_FuncInfo@@H@Z 0000000140007f30 f   libvcruntimed:ehstate.obj
 0001:00006fa0       ?StateFromControlPc@__FrameHandler3@@SAHPEBU_s_FuncInfo@@PEAU_xDISPATCHER_CONTEXT@@@Z 0000000140007fa0 f   libvcruntimed:ehstate.obj
 0001:00006fe0       ?StateFromIp@__FrameHandler3@@SAHPEBU_s_FuncInfo@@PEAU_xDISPATCHER_CONTEXT@@_K@Z 0000000140007fe0 f   libvcruntimed:ehstate.obj
 0001:000070d0       ?__RVAtoRealOffset@@YA_KPEAU_xDISPATCHER_CONTEXT@@H@Z 00000001400080d0 f i libvcruntimed:ehstate.obj
 0001:000082a0       ??$TypeMatchHelper@V__FrameHandler3@@@@YAHPEBU_s_HandlerType@@PEBU_s_CatchableType@@PEBU_s_ThrowInfo@@@Z 00000001400092a0 f i libvcruntimed:frame.obj
 0001:000084a0       ??$__InternalCxxFrameHandler@V__FrameHandler3@@@@YA?AW4_EXCEPTION_DISPOSITION@@PEAUEHExceptionRecord@@PEA_KPEAU_CONTEXT@@PEAU_xDISPATCHER_CONTEXT@@PEBU_s_FuncInfo@@H1E@Z 00000001400094a0 f i libvcruntimed:frame.obj
 0001:00008910       ??$__InternalCxxFrameHandlerWrapper@V__FrameHandler3@@@@YA?AW4_EXCEPTION_DISPOSITION@@PEAUEHExceptionRecord@@PEA_KPEAU_CONTEXT@@PEAU_xDISPATCHER_CONTEXT@@PEBU_s_FuncInfo@@H1E@Z 0000000140009910 f i libvcruntimed:frame.obj
 0001:00008980       ??0HandlerMap@__FrameHandler3@@QEAA@PEBU_s_TryBlockMapEntry@@_KI@Z 0000000140009980 f i libvcruntimed:frame.obj
 0001:000089d0       ??0TryBlockMap@__FrameHandler3@@QEAA@PEBU_s_FuncInfo@@_K@Z 00000001400099d0 f i libvcruntimed:frame.obj
 0001:00008a00       ??0bad_exception@std@@QEAA@AEBV01@@Z 0000000140009a00 f i libvcruntimed:frame.obj
 0001:00008a40       ??0bad_exception@std@@QEAA@XZ 0000000140009a40 f i libvcruntimed:frame.obj
 0001:00008a80       ??0exception@std@@QEAA@AEBV01@@Z 0000000140009a80 f i libvcruntimed:frame.obj
 0001:00008ae0       ??0exception@std@@QEAA@QEBDH@Z 0000000140009ae0 f i libvcruntimed:frame.obj
 0001:00008b30       ??1bad_exception@std@@UEAA@XZ 0000000140009b30 f i libvcruntimed:frame.obj
 0001:00008b50       ??1exception@std@@UEAA@XZ  0000000140009b50 f i libvcruntimed:frame.obj
 0001:00008b80       ??8iterator@HandlerMap@__FrameHandler3@@QEBA_NAEBV012@@Z 0000000140009b80 f i libvcruntimed:frame.obj
 0001:00008bc0       ??8type_info@@QEBA_NAEBV0@@Z 0000000140009bc0 f i libvcruntimed:frame.obj
 0001:00008c40       ??9iterator@HandlerMap@__FrameHandler3@@QEBA_NAEBV012@@Z 0000000140009c40 f i libvcruntimed:frame.obj
 0001:00008c80       ??Diterator@HandlerMap@__FrameHandler3@@QEAA?BU_s_HandlerType@@XZ 0000000140009c80 f i libvcruntimed:frame.obj
 0001:00008cc0       ??Diterator@TryBlockMap@__FrameHandler3@@QEAA?BU_s_TryBlockMapEntry@@XZ 0000000140009cc0 f i libvcruntimed:frame.obj
 0001:00008d10       ??Eiterator@HandlerMap@__FrameHandler3@@QEAAAEAV012@XZ 0000000140009d10 f i libvcruntimed:frame.obj
 0001:00008d10       ??Eiterator@TryBlockMap@__FrameHandler3@@QEAAAEAV012@XZ 0000000140009d10 f i libvcruntimed:frame.obj
 0001:00008d30       ??Miterator@TryBlockMap@__FrameHandler3@@QEBA_NAEBV012@@Z 0000000140009d30 f i libvcruntimed:frame.obj
 0001:00008d70       ??_Ebad_exception@std@@UEAAPEAXI@Z 0000000140009d70 f i libvcruntimed:frame.obj
 0001:00008d70       ??_Gbad_exception@std@@UEAAPEAXI@Z 0000000140009d70 f i libvcruntimed:frame.obj
 0001:00008db0       ??_Eexception@std@@UEAAPEAXI@Z 0000000140009db0 f i libvcruntimed:frame.obj
 0001:00008db0       ??_Gexception@std@@UEAAPEAXI@Z 0000000140009db0 f i libvcruntimed:frame.obj
 0001:00008df0       ?BuildCatchObject@__FrameHandler3@@SAXPEAUEHExceptionRecord@@PEAXPEBU_s_HandlerType@@PEBU_s_CatchableType@@@Z 0000000140009df0 f   libvcruntimed:frame.obj
 0001:00008e30       ?CxxCallCatchBlock@__FrameHandler3@@SAPEAXPEAU_EXCEPTION_RECORD@@@Z 0000000140009e30 f   libvcruntimed:frame.obj
 0001:00009190       ?FrameUnwindToState@__FrameHandler3@@SAXPEA_KPEAU_xDISPATCHER_CONTEXT@@PEBU_s_FuncInfo@@H@Z 000000014000a190 f   libvcruntimed:frame.obj
 0001:000093e0       ?GetHandlerSearchState@__FrameHandler3@@SAHPEA_KPEAU_xDISPATCHER_CONTEXT@@PEBU_s_FuncInfo@@@Z 000000014000a3e0 f i libvcruntimed:frame.obj
 0001:00009490       ?GetMaxState@__FrameHandler3@@SAHPEAU_xDISPATCHER_CONTEXT@@PEBU_s_FuncInfo@@@Z 000000014000a490 f i libvcruntimed:frame.obj
 0001:00009690       ?TypeMatch@__FrameHandler3@@SAHPEBU_s_HandlerType@@PEBU_s_CatchableType@@PEBU_s_ThrowInfo@@@Z 000000014000a690 f   libvcruntimed:frame.obj
 0001:00009690       __TypeMatch                000000014000a690 f   libvcruntimed:frame.obj
 0001:000096c0       ?_CallMemberFunction1@@YAXQEAX00@Z 000000014000a6c0 f i libvcruntimed:frame.obj
 0001:00009700       ?_CallMemberFunction2@@YAXQEAX00H@Z 000000014000a700 f i libvcruntimed:frame.obj
 0001:00009790       ?begin@HandlerMap@__FrameHandler3@@QEAA?AViterator@12@XZ 000000014000a790 f i libvcruntimed:frame.obj
 0001:000097c0       ?end@HandlerMap@__FrameHandler3@@QEAA?AViterator@12@XZ 000000014000a7c0 f i libvcruntimed:frame.obj
 0001:000097f0       ?getESTypes@__FrameHandler3@@SAPEBU_s_ESTypeList@@PEBU_s_FuncInfo@@@Z 000000014000a7f0 f i libvcruntimed:frame.obj
 0001:00009830       ?getLastEntry@HandlerMap@__FrameHandler3@@QEAAPEBU_s_HandlerType@@XZ 000000014000a830 f i libvcruntimed:frame.obj
 0001:00009850       ?getMagicNum@__FrameHandler3@@SAIPEBU_s_FuncInfo@@@Z 000000014000a850 f i libvcruntimed:frame.obj
 0001:00009870       ?getNumTryBlocks@TryBlockMap@__FrameHandler3@@QEAAIXZ 000000014000a870 f i libvcruntimed:frame.obj
 0001:00009890       ?isEHs@__FrameHandler3@@SA_NPEBU_s_FuncInfo@@@Z 000000014000a890 f i libvcruntimed:frame.obj
 0001:000098d0       ?isNoExcept@__FrameHandler3@@SA_NPEBU_s_FuncInfo@@@Z 000000014000a8d0 f i libvcruntimed:frame.obj
 0001:00009910       ?what@exception@std@@UEBAPEBDXZ 000000014000a910 f i libvcruntimed:frame.obj
 0001:00009950       __vcrt_EncodePointer       000000014000a950 f i libvcruntimed:frame.obj
 0001:00009980       memcpy_avx_ermsb_Intel     000000014000a980 f   libvcruntimed:memcpy_avx_ermsb_aligned.obj
 0001:00009db0       memcpy_avx_ermsb_amd       000000014000adb0 f   libvcruntimed:memcpy_avx_ermsb_aligned_amd.obj
 0001:0000a1e0       memcpy_sse2_ermsb_Intel    000000014000b1e0 f   libvcruntimed:memcpy_sse2_ermsb_aligned.obj
 0001:0000a490       memcpy_sse2_ermsb_amd      000000014000b490 f   libvcruntimed:memcpy_sse2_ermsb_aligned_amd.obj
 0001:0000a770       _CallSettingFrame          000000014000b770 f   libvcruntimed:handlers.obj
 0001:0000a7b0       ??$?RD@__crt_public_free_policy@@QEBAXQEBD@Z 000000014000b7b0 f i libvcruntimed:std_exception.obj
 0001:0000a7d0       ??1?$__crt_unique_heap_ptr@DU__crt_public_free_policy@@@@QEAA@XZ 000000014000b7d0 f i libvcruntimed:std_exception.obj
 0001:0000a7f0       ?release@?$__crt_unique_heap_ptr@DU__crt_public_free_policy@@@@QEAAXXZ 000000014000b7f0 f i libvcruntimed:std_exception.obj
 0001:0000a820       __std_exception_copy       000000014000b820 f   libvcruntimed:std_exception.obj
 0001:0000a960       __std_exception_destroy    000000014000b960 f   libvcruntimed:std_exception.obj
 0001:0000a9a0       _CxxThrowException         000000014000b9a0 f   libvcruntimed:throw.obj
 0001:0000aaf0       memcpy_repmovs_Intel       000000014000baf0 f   libvcruntimed:memcpy_repmovs.obj
 0001:0000ab10       memcpy_CopyDown_Intel      000000014000bb10 f   libvcruntimed:memcpy_CopyDown.obj
 0001:0000ac00       memcpy_repmovs_amd         000000014000bc00 f   libvcruntimed:memcpy_repmovs_amd.obj
 0001:0000ac20       memcpy_CopyDown_amd        000000014000bc20 f   libvcruntimed:memcpy_CopyDown_amd.obj
 0001:0000ad70       _seh_filter_exe            000000014000bd70 f   libucrtd:exception_filter.obj
 0001:0000b210       __acrt_report_runtime_error 000000014000c210 f   libucrtd:report_runtime_error.obj
 0001:0000b490       _invoke_watson_if_error    000000014000c490 f i libucrtd:report_runtime_error.obj
 0001:0000b4e0       _query_app_type            000000014000c4e0 f   libucrtd:report_runtime_error.obj
 0001:0000b4f0       _set_app_type              000000014000c4f0 f   libucrtd:report_runtime_error.obj
 0001:0000b500       ??$__crt_fast_decode_pointer@P6AHPEAU_exception@@@Z@@YAP6AHPEAU_exception@@@ZQ6AH0@Z@Z 000000014000c500 f i libucrtd:matherr.obj
 0001:0000b500       ??$__crt_fast_decode_pointer@P6AH_K@Z@@YAP6AH_K@ZQ6AH0@Z@Z 000000014000c500 f i libucrtd:new_handler.obj
 0001:0000b500       ??$__crt_fast_decode_pointer@P6AXH@Z@@YAP6AXH@ZQ6AXH@Z@Z 000000014000c500 f i libucrtd:signal.obj
 0001:0000b500       ??$__crt_fast_decode_pointer@P6AXPEAXK0@Z@@YAP6AXPEAXK0@ZQ6AX0K0@Z@Z 000000014000c500 f i libucrtd:exit.obj
 0001:0000b500       ??$__crt_fast_decode_pointer@P6AXPEB_W00I_K@Z@@YAP6AXPEB_W00I_K@ZQ6AX000I1@Z@Z 000000014000c500 f i libucrtd:invalid_parameter.obj
 0001:0000b500       ??$__crt_fast_decode_pointer@P6AXXZ@@YAP6AXXZQ6AXXZ@Z 000000014000c500 f i libucrtd:onexit.obj
 0001:0000b500       ??$__crt_fast_decode_pointer@PEAP6AXXZ@@YAPEAP6AXXZQEAP6AXXZ@Z 000000014000c500 f i libucrtd:onexit.obj
 0001:0000b500       ??$__crt_fast_decode_pointer@PEAX@@YAPEAXQEAX@Z 000000014000c500 f i libucrtd:winapi_thunks.obj
 0001:0000b540       ??$__crt_fast_encode_pointer@P6AHPEAU_exception@@@Z@@YAP6AHPEAU_exception@@@ZQ6AH0@Z@Z 000000014000c540 f i libucrtd:matherr.obj
 0001:0000b540       ??$__crt_fast_encode_pointer@P6AHXZ@@YAP6AHXZQ6AHXZ@Z 000000014000c540 f i libucrtd:onexit.obj
 0001:0000b540       ??$__crt_fast_encode_pointer@P6AXH@Z@@YAP6AXH@ZQ6AXH@Z@Z 000000014000c540 f i libucrtd:signal.obj
 0001:0000b540       ??$__crt_fast_encode_pointer@P6AXPEAXK0@Z@@YAP6AXPEAXK0@ZQ6AX0K0@Z@Z 000000014000c540 f i libucrtd:exit.obj
 0001:0000b540       ??$__crt_fast_encode_pointer@P6AXXZ@@YAP6AXXZQ6AXXZ@Z 000000014000c540 f i libucrtd:onexit.obj
 0001:0000b540       ??$__crt_fast_encode_pointer@PEAP6AXXZ@@YAPEAP6AXXZQEAP6AXXZ@Z 000000014000c540 f i libucrtd:onexit.obj
 0001:0000b540       ??$__crt_fast_encode_pointer@PEAX@@YAPEAXQEAX@Z 000000014000c540 f i libucrtd:initialization.obj
 0001:0000b580       ?__crt_rotate_pointer_value@@YA_K_KH@Z 000000014000c580 f i libucrtd:matherr.obj
 0001:0000b5a0       ?initialize@?$dual_state_global@P6AHPEAU_exception@@@Z@__crt_state_management@@QEAAXQ6AHPEAU_exception@@@Z@Z 000000014000c5a0 f i libucrtd:matherr.obj
 0001:0000b5a0       ?initialize@?$dual_state_global@P6AH_K@Z@__crt_state_management@@QEAAXQ6AH_K@Z@Z 000000014000c5a0 f i libucrtd:new_handler.obj
 0001:0000b5a0       ?initialize@?$dual_state_global@P6AXH@Z@__crt_state_management@@QEAAXQ6AXH@Z@Z 000000014000c5a0 f i libucrtd:signal.obj
 0001:0000b5a0       ?initialize@?$dual_state_global@PEAPEAD@__crt_state_management@@QEAAXQEAPEAD@Z 000000014000c5a0 f i libucrtd:environment_initialization.obj
 0001:0000b5a0       ?initialize@?$dual_state_global@PEAU__crt_locale_data@@@__crt_state_management@@QEAAXQEAU__crt_locale_data@@@Z 000000014000c5a0 f i libucrtd:initialization.obj
 0001:0000b5a0       ?initialize@?$dual_state_global@PEAU__crt_multibyte_data@@@__crt_state_management@@QEAAXQEAU__crt_multibyte_data@@@Z 000000014000c5a0 f i libucrtd:mbctype.obj
 0001:0000b5f0       ?value@?$dual_state_global@P6AHPEAU_exception@@@Z@__crt_state_management@@QEAAAEAP6AHPEAU_exception@@@ZXZ 000000014000c5f0 f i libucrtd:matherr.obj
 0001:0000b5f0       ?value@?$dual_state_global@P6AH_K@Z@__crt_state_management@@QEAAAEAP6AH_K@ZXZ 000000014000c5f0 f i libucrtd:new_handler.obj
 0001:0000b5f0       ?value@?$dual_state_global@P6AXH@Z@__crt_state_management@@QEAAAEAP6AXH@ZXZ 000000014000c5f0 f i libucrtd:signal.obj
 0001:0000b5f0       ?value@?$dual_state_global@PEAE@__crt_state_management@@QEAAAEAPEAEXZ 000000014000c5f0 f i libucrtd:mbctype.obj
 0001:0000b5f0       ?value@?$dual_state_global@PEAPEAD@__crt_state_management@@QEAAAEAPEAPEADXZ 000000014000c5f0 f i libucrtd:environment_initialization.obj
 0001:0000b5f0       ?value@?$dual_state_global@PEAU__crt_locale_data@@@__crt_state_management@@QEAAAEAPEAU__crt_locale_data@@XZ 000000014000c5f0 f i libucrtd:wsetlocale.obj
 0001:0000b5f0       ?value@?$dual_state_global@PEAU__crt_multibyte_data@@@__crt_state_management@@QEAAAEAPEAU__crt_multibyte_data@@XZ 000000014000c5f0 f i libucrtd:mbctype.obj
 0001:0000b610       __acrt_has_user_matherr    000000014000c610 f   libucrtd:matherr.obj
 0001:0000b650       __acrt_initialize_user_matherr 000000014000c650 f   libucrtd:matherr.obj
 0001:0000b670       __acrt_invoke_user_matherr 000000014000c670 f   libucrtd:matherr.obj
 0001:0000b6e0       __setusermatherr           000000014000c6e0 f   libucrtd:matherr.obj
 0001:0000bab0       ??$get_module_file_name@$$TAEAY0BAF@DH@?$__crt_char_traits@D@@SAK$$QEA$$TAEAY0BAF@D$$QEAH@Z 000000014000cab0 f i libucrtd:argv_parsing.obj
 0001:0000bab0       ??$get_module_file_name@AEAPEAUHINSTANCE__@@AEAY0BAF@DK@?$__crt_char_traits@D@@SAKAEAPEAUHINSTANCE__@@AEAY0BAF@D$$QEAK@Z 000000014000cab0 f i libucrtd:dbgrpt.obj
 0001:0000bfc0       ??$set_program_name@PEAD@?$__crt_char_traits@D@@SAX$$QEAPEAD@Z 000000014000cfc0 f i libucrtd:argv_parsing.obj
 0001:0000c090       ?dangerous_get_state_array@?$dual_state_global@H@__crt_state_management@@QEAAPEAHXZ 000000014000d090 f i libucrtd:txtmode.obj
 0001:0000c090       ?dangerous_get_state_array@?$dual_state_global@P6AXPEB_W00I_K@Z@__crt_state_management@@QEAAPEAP6AXPEB_W00I_K@ZXZ 000000014000d090 f i libucrtd:invalid_parameter.obj
 0001:0000c090       ?dangerous_get_state_array@?$dual_state_global@PEAE@__crt_state_management@@QEAAPEAPEAEXZ 000000014000d090 f i libucrtd:mbctype.obj
 0001:0000c090       ?dangerous_get_state_array@?$dual_state_global@PEAU__crt_locale_data@@@__crt_state_management@@QEAAPEAPEAU__crt_locale_data@@XZ 000000014000d090 f i libucrtd:per_thread_data.obj
 0001:0000c090       ?dangerous_get_state_array@?$dual_state_global@PEAU__crt_multibyte_data@@@__crt_state_management@@QEAAPEAPEAU__crt_multibyte_data@@XZ 000000014000d090 f i libucrtd:mbctype.obj
 0001:0000c090       ?debug_info@?$__crt_win32_buffer@DU__crt_win32_buffer_internal_dynamic_resizing@@@@QEBAAEBV__crt_win32_buffer_empty_debug_info@@XZ 000000014000d090 f i libucrtd:argv_wildcards.obj
 0001:0000c090       ?debug_info@?$__crt_win32_buffer@DU__crt_win32_buffer_no_resizing@@@@QEBAAEBV__crt_win32_buffer_empty_debug_info@@XZ 000000014000d090 f i libucrtd:getmodulefilenamea.obj
 0001:0000c090       ?debug_info@?$__crt_win32_buffer@_WU__crt_win32_buffer_internal_dynamic_resizing@@@@QEBAAEBV__crt_win32_buffer_empty_debug_info@@XZ 000000014000d090 f i libucrtd:argv_wildcards.obj
 0001:0000c090       ?get_address_of@?$__crt_unique_handle_t@U__crt_hmodule_traits@@@@QEAAPEAPEAUHINSTANCE__@@XZ 000000014000d090 f i libucrtd:exit.obj
 0001:0000c090       ?get_address_of@?$__crt_unique_heap_ptr@PEADU__crt_internal_free_policy@@@@QEAAPEAPEAPEADXZ 000000014000d090 f i libucrtd:argv_parsing.obj
 0001:0000c100       __acrt_allocate_buffer_for_argv 000000014000d100 f   libucrtd:argv_parsing.obj
 0001:0000c220       _configure_narrow_argv     000000014000d220 f   libucrtd:argv_parsing.obj
 0001:0000c240       _set_pgmptr                000000014000d240 f i libucrtd:argv_parsing.obj
 0001:0000c670       ??$get_environment_from_os@$$V@?$__crt_char_traits@D@@SAPEADXZ 000000014000d670 f i libucrtd:environment_initialization.obj
 0001:0000c680       ??$tcscpy_s@PEADAEB_KAEAPEAD@?$__crt_char_traits@D@@SAH$$QEAPEADAEB_KAEAPEAD@Z 000000014000d680 f i libucrtd:environment_initialization.obj
 0001:0000c6c0       ??$tcslen@AEAPEAD@?$__crt_char_traits@D@@SA_KAEAPEAD@Z 000000014000d6c0 f i libucrtd:environment_initialization.obj
 0001:0000c6c0       ??$tcslen@AEBQEBD@?$__crt_char_traits@D@@SA_KAEBQEBD@Z 000000014000d6c0 f i libucrtd:dbgrpt.obj
 0001:0000c6e0       ??$uninitialize@A6AXAEAPEAPEAD@_E@?$dual_state_global@PEAPEAD@__crt_state_management@@QEAAXA6AXAEAPEAPEAD@_E@Z 000000014000d6e0 f i libucrtd:environment_initialization.obj
 0001:0000c760       ??$uninitialize@A6AXAEAPEAPEA_W@_E@?$dual_state_global@PEAPEA_W@__crt_state_management@@QEAAXA6AXAEAPEAPEA_W@_E@Z 000000014000d760 f i libucrtd:environment_initialization.obj
 0001:0000c8b0       __dcrt_uninitialize_environments_nolock 000000014000d8b0 f   libucrtd:environment_initialization.obj
 0001:0000c900       _initialize_narrow_environment 000000014000d900 f   libucrtd:environment_initialization.obj
 0001:0000ca50       _get_narrow_winmain_command_line 000000014000da50 f   libucrtd:argv_winmain.obj
 0001:0000ca60       _initterm                  000000014000da60 f   libucrtd:initterm.obj
 0001:0000cad0       _initterm_e                000000014000dad0 f   libucrtd:initterm.obj
 0001:0000cb50       ??$?B$$A6AXH@Z@__crt_fast_encoded_nullptr_t@@QEBAP6AXH@ZXZ 000000014000db50 f i libucrtd:signal.obj
 0001:0000cb50       ??$?B$$A6AXPEAXK0@Z@__crt_fast_encoded_nullptr_t@@QEBAP6AXPEAXK0@ZXZ 000000014000db50 f i libucrtd:exit.obj
 0001:0000cb50       ??$?B$$A6AXXZ@__crt_fast_encoded_nullptr_t@@QEBAP6AXXZXZ 000000014000db50 f i libucrtd:onexit.obj
 0001:0000cb50       ??$?BP6AXXZ@__crt_fast_encoded_nullptr_t@@QEBAPEAP6AXXZXZ 000000014000db50 f i libucrtd:onexit.obj
 0001:0000cb50       ??$?BX@__crt_fast_encoded_nullptr_t@@QEBAPEAXXZ 000000014000db50 f i libucrtd:initialization.obj
 0001:0000cc10       ??$__crt_get_proc_address@P6AXI@Z@@YAP6AXI@ZQEAUHINSTANCE__@@QEBD@Z 000000014000dc10 f i libucrtd:exit.obj
 0001:0000cc40       ??$__crt_interlocked_read@J@@YAJPEDJ@Z 000000014000dc40 f i libucrtd:exit.obj
 0001:0000ccd0       ??1?$__crt_unique_handle_t@U__crt_hmodule_traits@@@@QEAA@XZ 000000014000dcd0 f i libucrtd:exit.obj
 0001:0000ce50       ?__acrt_select_exit_lock@@YA?AW4__acrt_lock_id@@XZ 000000014000de50 f i libucrtd:exit.obj
 0001:0000ce60       ?__crt_fast_encode_pointer@@YA?AU__crt_fast_encoded_nullptr_t@@$$T@Z 000000014000de60 f i libucrtd:exit.obj
 0001:0000ce80       ?__crt_interlocked_read_32@@YAHPEDH@Z 000000014000de80 f i libucrtd:exit.obj
 0001:0000cec0       ?close@?$__crt_unique_handle_t@U__crt_hmodule_traits@@@@QEAAXXZ 000000014000dec0 f i libucrtd:exit.obj
 0001:0000cf00       ?close@__crt_hmodule_traits@@SA_NPEAUHINSTANCE__@@@Z 000000014000df00 f i libucrtd:exit.obj
 0001:0000d1c0       __acrt_initialize_thread_local_exit_callback 000000014000e1c0 f   libucrtd:exit.obj
 0001:0000d1e0       _c_exit                    000000014000e1e0 f   libucrtd:exit.obj
 0001:0000d200       _cexit                     000000014000e200 f   libucrtd:exit.obj
 0001:0000d220       _exit                      000000014000e220 f   libucrtd:exit.obj
 0001:0000d240       _register_thread_local_exe_atexit_callback 000000014000e240 f   libucrtd:exit.obj
 0001:0000d290       exit                       000000014000e290 f   libucrtd:exit.obj
 0001:0000d2b0       ?value@?$dual_state_global@H@__crt_state_management@@QEAAAEAHXZ 000000014000e2b0 f i libucrtd:setmode.obj
 0001:0000d2b0       ?value@?$dual_state_global@J@__crt_state_management@@QEAAAEAJXZ 000000014000e2b0 f i libucrtd:new_mode.obj
 0001:0000d2d0       _set_fmode                 000000014000e2d0 f   libucrtd:setmode.obj
 0001:0000d530       __acrt_disable_global_locale_sync 000000014000e530 f i libucrtd:wsetlocale.obj
 0001:0000d560       __acrt_enable_global_locale_sync 000000014000e560 f i libucrtd:wsetlocale.obj
 0001:0000d590       __acrt_set_locale_changed  000000014000e590 f   libucrtd:wsetlocale.obj
 0001:0000d5a0       __acrt_uninitialize_locale 000000014000e5a0 f   libucrtd:wsetlocale.obj
 0001:0000d5d0       __ascii_tolower            000000014000e5d0 f i libucrtd:wsetlocale.obj
 0001:0000d5f0       __ascii_towlower           000000014000e5f0 f i libucrtd:wsetlocale.obj
 0001:0000d610       _configthreadlocale        000000014000e610 f   libucrtd:wsetlocale.obj
 0001:0000d770       _query_new_mode            000000014000e770 f   libucrtd:new_mode.obj
 0001:0000d790       _set_new_mode              000000014000e790 f   libucrtd:new_mode.obj
 0001:0000d860       __p__commode               000000014000e860 f   libucrtd:ncommode.obj
 0001:0000df40       _crt_atexit                000000014000ef40 f   libucrtd:onexit.obj
 0001:0000df60       _execute_onexit_table      000000014000ef60 f   libucrtd:onexit.obj
 0001:0000dfa0       _initialize_onexit_table   000000014000efa0 f   libucrtd:onexit.obj
 0001:0000e020       _register_onexit_function  000000014000f020 f   libucrtd:onexit.obj
 0001:0000e0c0       __acrt_uninitialize_command_line 000000014000f0c0 f   libucrtd:argv_data.obj
 0001:0000e330       __acrt_initialize          000000014000f330 f   libucrtd:initialization.obj
 0001:0000e360       __acrt_uninitialize        000000014000f360 f   libucrtd:initialization.obj
 0001:0000e390       terminate                  000000014000f390 f   libucrtd:terminate.obj
 0001:0000e3e0       ??0_LocaleUpdate@@QEAA@QEAU__crt_locale_pointers@@@Z 000000014000f3e0 f i libucrtd:debug_heap.obj
 0001:0000e500       ??1_LocaleUpdate@@QEAA@XZ  000000014000f500 f i libucrtd:debug_heap.obj
 0001:0000e530       ?GetLocaleT@_LocaleUpdate@@QEAAPEAU__crt_locale_pointers@@XZ 000000014000f530 f i libucrtd:debug_heap.obj
 0001:000108e0       _CrtCheckMemory            00000001400118e0 f   libucrtd:debug_heap.obj
 0001:00010a70       _CrtDumpMemoryLeaks        0000000140011a70 f   libucrtd:debug_heap.obj
 0001:00010b30       _CrtIsValidHeapPointer     0000000140011b30 f   libucrtd:debug_heap.obj
 0001:00010b80       _CrtIsValidPointer         0000000140011b80 f   libucrtd:debug_heap.obj
 0001:00010bc0       _CrtMemCheckpoint          0000000140011bc0 f   libucrtd:debug_heap.obj
 0001:00010e40       _CrtMemDumpAllObjectsSince 0000000140011e40 f   libucrtd:debug_heap.obj
 0001:00010ea0       _CrtSetDbgFlag             0000000140011ea0 f   libucrtd:debug_heap.obj
 0001:00011000       _CrtSetDumpClient          0000000140012000 f   libucrtd:debug_heap.obj
 0001:00011030       __acrt_get_locale_data_prefix 0000000140012030 f i libucrtd:debug_heap.obj
 0001:00011050       __acrt_locale_changed      0000000140012050 f i libucrtd:debug_heap.obj
 0001:00011080       _calloc_dbg                0000000140012080 f   libucrtd:debug_heap.obj
 0001:00011120       _chvalidchk_l              0000000140012120 f i libucrtd:debug_heap.obj
 0001:00011150       _free_dbg                  0000000140012150 f   libucrtd:debug_heap.obj
 0001:000111c0       _invoke_watson_if_oneof    00000001400121c0 f i libucrtd:debug_heap.obj
 0001:00011220       _ischartype_l              0000000140012220 f i libucrtd:debug_heap.obj
 0001:000112b0       _malloc_dbg                00000001400122b0 f   libucrtd:debug_heap.obj
 0001:000112f0       _msize_dbg                 00000001400122f0 f   libucrtd:debug_heap.obj
 0001:00011490       _realloc_dbg               0000000140012490 f   libucrtd:debug_heap.obj
 0001:00011500       _recalloc_dbg              0000000140012500 f   libucrtd:debug_heap.obj
 0001:00011ae0       strcpy_s                   0000000140012ae0 f   libucrtd:strcpy_s.obj
 0001:00011b20       strcmp                     0000000140012b20 f   libucrtd:strcmp.obj
 0001:00011ba0       strlen                     0000000140012ba0 f   libucrtd:strlen.obj
 0001:00011c50       abort                      0000000140012c50 f   libucrtd:abort.obj
 0001:00011cd0       ??$initialize_from_array@$$BY00Q6AXPEB_W00I_K@Z@?$dual_state_global@P6AXPEB_W00I_K@Z@__crt_state_management@@QEAAXAEAY00Q6AXPEB_W00I_K@Z@Z 0000000140012cd0 f i libucrtd:invalid_parameter.obj
 0001:00011d30       ??0?$cached@H@__crt_cached_ptd_host@@QEAA@XZ 0000000140012d30 f i libucrtd:invalid_parameter.obj
 0001:00011d30       ??0?$cached@K@__crt_cached_ptd_host@@QEAA@XZ 0000000140012d30 f i libucrtd:invalid_parameter.obj
 0001:00011d50       ??0__crt_cached_ptd_host@@QEAA@QEAU__crt_locale_pointers@@@Z 0000000140012d50 f i libucrtd:invalid_parameter.obj
 0001:00011e10       ??0__crt_scoped_get_last_error_reset@@QEAA@XZ 0000000140012e10 f i libucrtd:invalid_parameter.obj
 0001:00011e30       ??1__crt_cached_ptd_host@@QEAA@XZ 0000000140012e30 f i libucrtd:invalid_parameter.obj
 0001:00011ee0       ??1__crt_scoped_get_last_error_reset@@QEAA@XZ 0000000140012ee0 f i libucrtd:invalid_parameter.obj
 0001:00011f00       ?check_synchronize_global_state_index@__crt_cached_ptd_host@@AEAA_KAEBV__crt_scoped_get_last_error_reset@@@Z 0000000140012f00 f i libucrtd:invalid_parameter.obj
 0001:00011f40       ?check_synchronize_global_state_index@__crt_cached_ptd_host@@AEAA_KXZ 0000000140012f40 f i libucrtd:invalid_parameter.obj
 0001:00011fa0       ?check_synchronize_per_thread_data@__crt_cached_ptd_host@@AEAAPEAU__acrt_ptd@@XZ 0000000140012fa0 f i libucrtd:invalid_parameter.obj
 0001:00011fe0       ?force_synchronize_global_state_index@__crt_cached_ptd_host@@AEAA_KAEBV__crt_scoped_get_last_error_reset@@@Z 0000000140012fe0 f i libucrtd:invalid_parameter.obj
 0001:00012020       ?force_synchronize_per_thread_data@__crt_cached_ptd_host@@AEAAPEAU__acrt_ptd@@XZ 0000000140013020 f i libucrtd:invalid_parameter.obj
 0001:00012080       ?get_current_global_state_index@__crt_cached_ptd_host@@QEAA_KXZ 0000000140013080 f i libucrtd:invalid_parameter.obj
 0001:000120a0       ?get_raw_ptd@__crt_cached_ptd_host@@QEAAPEAU__acrt_ptd@@XZ 00000001400130a0 f i libucrtd:invalid_parameter.obj
 0001:000120c0       ?get_raw_ptd_noexit@__crt_cached_ptd_host@@QEAAPEAU__acrt_ptd@@XZ 00000001400130c0 f i libucrtd:invalid_parameter.obj
 0001:000120e0       ?try_synchronize_per_thread_data@__crt_cached_ptd_host@@AEAAPEAU__acrt_ptd@@XZ 00000001400130e0 f i libucrtd:invalid_parameter.obj
 0001:00012110       ?unsafe_value@?$cached@H@__crt_cached_ptd_host@@QEAAHXZ 0000000140013110 f i libucrtd:invalid_parameter.obj
 0001:00012110       ?unsafe_value@?$cached@K@__crt_cached_ptd_host@@QEAAKXZ 0000000140013110 f i libucrtd:invalid_parameter.obj
 0001:00012120       ?valid@?$cached@H@__crt_cached_ptd_host@@QEBA_NXZ 0000000140013120 f i libucrtd:invalid_parameter.obj
 0001:00012120       ?valid@?$cached@K@__crt_cached_ptd_host@@QEBA_NXZ 0000000140013120 f i libucrtd:invalid_parameter.obj
 0001:00012130       ?value@?$dual_state_global@P6AXPEB_W00I_K@Z@__crt_state_management@@QEAAAEAP6AXPEB_W00I_K@ZAEAV__crt_cached_ptd_host@@@Z 0000000140013130 f i libucrtd:invalid_parameter.obj
 0001:00012160       __acrt_call_reportfault    0000000140013160 f   libucrtd:invalid_parameter.obj
 0001:00012290       __acrt_initialize_invalid_parameter_handler 0000000140013290 f   libucrtd:invalid_parameter.obj
 0001:000122c0       _invalid_parameter         00000001400132c0 f   libucrtd:invalid_parameter.obj
 0001:00012330       _invalid_parameter_internal 0000000140013330 f   libucrtd:invalid_parameter.obj
 0001:00012480       _invalid_parameter_noinfo  0000000140013480 f   libucrtd:invalid_parameter.obj
 0001:000124b0       _invoke_watson             00000001400134b0 f   libucrtd:invalid_parameter.obj
 0001:00012510       ??$?0AEBV?$string_output_adapter@D@__crt_stdio_output@@AEB_KAEBQEBDAEAV__crt_cached_ptd_host@@AEBQEAD@?$format_validation_base@DV?$string_output_adapter@D@__crt_stdio_output@@@__crt_stdio_output@@IEAA@AEBV?$string_output_adapter@D@1@AEB_KAEBQEBDAEAV__crt_cached_ptd_host@@AEBQEAD@Z 0000000140013510 f i libucrtd:output.obj
 0001:00012560       ??$?0AEBV?$string_output_adapter@D@__crt_stdio_output@@AEB_KAEBQEBDAEAV__crt_cached_ptd_host@@AEBQEAD@?$standard_base@DV?$string_output_adapter@D@__crt_stdio_output@@@__crt_stdio_output@@IEAA@AEBV?$string_output_adapter@D@1@AEB_KAEBQEBDAEAV__crt_cached_ptd_host@@AEBQEAD@Z 0000000140013560 f i libucrtd:output.obj
 0001:000125d0       ??$?0AEBV?$string_output_adapter@_W@__crt_stdio_output@@AEB_KAEBQEB_WAEAV__crt_cached_ptd_host@@AEBQEAD@?$format_validation_base@_WV?$string_output_adapter@_W@__crt_stdio_output@@@__crt_stdio_output@@IEAA@AEBV?$string_output_adapter@_W@1@AEB_KAEBQEB_WAEAV__crt_cached_ptd_host@@AEBQEAD@Z 00000001400135d0 f i libucrtd:output.obj
 0001:00012620       ??$?0AEBV?$string_output_adapter@_W@__crt_stdio_output@@AEB_KAEBQEB_WAEAV__crt_cached_ptd_host@@AEBQEAD@?$standard_base@_WV?$string_output_adapter@_W@__crt_stdio_output@@@__crt_stdio_output@@IEAA@AEBV?$string_output_adapter@_W@1@AEB_KAEBQEB_WAEAV__crt_cached_ptd_host@@AEBQEAD@Z 0000000140013620 f i libucrtd:output.obj
 0001:00012690       ??$_tcstol_internal@DPEAPEAD$0A@@@YAJAEAV__crt_cached_ptd_host@@QEBDQEAPEADH@Z 0000000140013690 f i libucrtd:output.obj
 0001:000126e0       ??$_tcstol_internal@_WPEAPEA_W$0A@@@YAJAEAV__crt_cached_ptd_host@@QEB_WQEAPEA_WH@Z 00000001400136e0 f i libucrtd:output.obj
 0001:000142b0       ??$count@D@formatting_buffer@__crt_stdio_output@@QEBA_KXZ 00000001400152b0 f i libucrtd:output.obj
 0001:00014300       ??$count@_W@formatting_buffer@__crt_stdio_output@@QEBA_KXZ 0000000140015300 f i libucrtd:output.obj
 0001:00014350       ??$data@D@formatting_buffer@__crt_stdio_output@@QEAAPEADXZ 0000000140015350 f i libucrtd:output.obj
 0001:00014350       ??$data@_W@formatting_buffer@__crt_stdio_output@@QEAAPEA_WXZ 0000000140015350 f i libucrtd:output.obj
 0001:000143a0       ??$ensure_buffer_is_big_enough@D@formatting_buffer@__crt_stdio_output@@QEAA_N_KAEAV__crt_cached_ptd_host@@@Z 00000001400153a0 f i libucrtd:output.obj
 0001:000144e0       ??$ensure_buffer_is_big_enough@_W@formatting_buffer@__crt_stdio_output@@QEAA_N_KAEAV__crt_cached_ptd_host@@@Z 00000001400154e0 f i libucrtd:output.obj
 0001:00014620       ??$extract_argument_from_va_list@C_J@?$standard_base@DV?$string_output_adapter@D@__crt_stdio_output@@@__crt_stdio_output@@IEAA_NAEA_J@Z 0000000140015620 f i libucrtd:output.obj
 0001:00014620       ??$extract_argument_from_va_list@C_J@?$standard_base@_WV?$string_output_adapter@_W@__crt_stdio_output@@@__crt_stdio_output@@IEAA_NAEA_J@Z 0000000140015620 f i libucrtd:output.obj
 0001:00014660       ??$extract_argument_from_va_list@E_J@?$standard_base@DV?$string_output_adapter@D@__crt_stdio_output@@@__crt_stdio_output@@IEAA_NAEA_J@Z 0000000140015660 f i libucrtd:output.obj
 0001:00014660       ??$extract_argument_from_va_list@E_J@?$standard_base@_WV?$string_output_adapter@_W@__crt_stdio_output@@@__crt_stdio_output@@IEAA_NAEA_J@Z 0000000140015660 f i libucrtd:output.obj
 0001:000146a0       ??$extract_argument_from_va_list@F_J@?$standard_base@DV?$string_output_adapter@D@__crt_stdio_output@@@__crt_stdio_output@@IEAA_NAEA_J@Z 00000001400156a0 f i libucrtd:output.obj
 0001:000146a0       ??$extract_argument_from_va_list@F_J@?$standard_base@_WV?$string_output_adapter@_W@__crt_stdio_output@@@__crt_stdio_output@@IEAA_NAEA_J@Z 00000001400156a0 f i libucrtd:output.obj
 0001:000146e0       ??$extract_argument_from_va_list@GD@?$standard_base@DV?$string_output_adapter@D@__crt_stdio_output@@@__crt_stdio_output@@IEAA_NAEAD@Z 00000001400156e0 f i libucrtd:output.obj
 0001:00014710       ??$extract_argument_from_va_list@G_J@?$standard_base@DV?$string_output_adapter@D@__crt_stdio_output@@@__crt_stdio_output@@IEAA_NAEA_J@Z 0000000140015710 f i libucrtd:output.obj
 0001:00014710       ??$extract_argument_from_va_list@G_J@?$standard_base@_WV?$string_output_adapter@_W@__crt_stdio_output@@@__crt_stdio_output@@IEAA_NAEA_J@Z 0000000140015710 f i libucrtd:output.obj
 0001:00014750       ??$extract_argument_from_va_list@H_J@?$standard_base@DV?$string_output_adapter@D@__crt_stdio_output@@@__crt_stdio_output@@IEAA_NAEA_J@Z 0000000140015750 f i libucrtd:output.obj
 0001:00014750       ??$extract_argument_from_va_list@H_J@?$standard_base@_WV?$string_output_adapter@_W@__crt_stdio_output@@@__crt_stdio_output@@IEAA_NAEA_J@Z 0000000140015750 f i libucrtd:output.obj
 0001:00014780       ??$extract_argument_from_va_list@I_J@?$standard_base@DV?$string_output_adapter@D@__crt_stdio_output@@@__crt_stdio_output@@IEAA_NAEA_J@Z 0000000140015780 f i libucrtd:output.obj
 0001:00014780       ??$extract_argument_from_va_list@I_J@?$standard_base@_WV?$string_output_adapter@_W@__crt_stdio_output@@@__crt_stdio_output@@IEAA_NAEA_J@Z 0000000140015780 f i libucrtd:output.obj
 0001:000147b0       ??$extract_argument_from_va_list@PEADPEAD@?$standard_base@DV?$string_output_adapter@D@__crt_stdio_output@@@__crt_stdio_output@@IEAA_NAEAPEAD@Z 00000001400157b0 f i libucrtd:output.obj
 0001:000147b0       ??$extract_argument_from_va_list@PEADPEAD@?$standard_base@_WV?$string_output_adapter@_W@__crt_stdio_output@@@__crt_stdio_output@@IEAA_NAEAPEAD@Z 00000001400157b0 f i libucrtd:output.obj
 0001:000147b0       ??$extract_argument_from_va_list@PEAUansi_string@?1??type_case_Z@?$output_processor@DV?$string_output_adapter@D@__crt_stdio_output@@V?$format_validation_base@DV?$string_output_adapter@D@__crt_stdio_output@@@2@@__crt_stdio_output@@AEAA_NXZ@PEAU1?1??234@AEAA_NXZ@@?$standard_base@DV?$string_output_adapter@D@__crt_stdio_output@@@__crt_stdio_output@@IEAA_NAEAPEAUansi_string@?1??type_case_Z@?$output_processor@DV?$string_output_adapter@D@__crt_stdio_output@@V?$format_validation_base@DV?$string_output_adapter@D@__crt_stdio_output@@@2@@1@AEAA_NXZ@@Z 00000001400157b0 f i libucrtd:output.obj
 0001:000147b0       ??$extract_argument_from_va_list@PEAUansi_string@?1??type_case_Z@?$output_processor@_WV?$string_output_adapter@_W@__crt_stdio_output@@V?$format_validation_base@_WV?$string_output_adapter@_W@__crt_stdio_output@@@2@@__crt_stdio_output@@AEAA_NXZ@PEAU1?1??234@AEAA_NXZ@@?$standard_base@_WV?$string_output_adapter@_W@__crt_stdio_output@@@__crt_stdio_output@@IEAA_NAEAPEAUansi_string@?1??type_case_Z@?$output_processor@_WV?$string_output_adapter@_W@__crt_stdio_output@@V?$format_validation_base@_WV?$string_output_adapter@_W@__crt_stdio_output@@@2@@1@AEAA_NXZ@@Z 00000001400157b0 f i libucrtd:output.obj
 0001:000147b0       ??$extract_argument_from_va_list@PEAXPEAX@?$standard_base@DV?$string_output_adapter@D@__crt_stdio_output@@@__crt_stdio_output@@IEAA_NAEAPEAX@Z 00000001400157b0 f i libucrtd:output.obj
 0001:000147b0       ??$extract_argument_from_va_list@PEAXPEAX@?$standard_base@_WV?$string_output_adapter@_W@__crt_stdio_output@@@__crt_stdio_output@@IEAA_NAEAPEAX@Z 00000001400157b0 f i libucrtd:output.obj
 0001:000147b0       ??$extract_argument_from_va_list@_J_J@?$standard_base@DV?$string_output_adapter@D@__crt_stdio_output@@@__crt_stdio_output@@IEAA_NAEA_J@Z 00000001400157b0 f i libucrtd:output.obj
 0001:000147b0       ??$extract_argument_from_va_list@_J_J@?$standard_base@_WV?$string_output_adapter@_W@__crt_stdio_output@@@__crt_stdio_output@@IEAA_NAEA_J@Z 00000001400157b0 f i libucrtd:output.obj
 0001:000147b0       ??$extract_argument_from_va_list@_K_J@?$standard_base@DV?$string_output_adapter@D@__crt_stdio_output@@@__crt_stdio_output@@IEAA_NAEA_J@Z 00000001400157b0 f i libucrtd:output.obj
 0001:000147b0       ??$extract_argument_from_va_list@_K_J@?$standard_base@_WV?$string_output_adapter@_W@__crt_stdio_output@@@__crt_stdio_output@@IEAA_NAEA_J@Z 00000001400157b0 f i libucrtd:output.obj
 0001:000147e0       ??$extract_argument_from_va_list@U_CRT_DOUBLE@@U1@@?$standard_base@DV?$string_output_adapter@D@__crt_stdio_output@@@__crt_stdio_output@@IEAA_NAEAU_CRT_DOUBLE@@@Z 00000001400157e0 f i libucrtd:output.obj
 0001:000147e0       ??$extract_argument_from_va_list@U_CRT_DOUBLE@@U1@@?$standard_base@_WV?$string_output_adapter@_W@__crt_stdio_output@@@__crt_stdio_output@@IEAA_NAEAU_CRT_DOUBLE@@@Z 00000001400157e0 f i libucrtd:output.obj
 0001:00014830       ??$extract_argument_from_va_list@_W_W@?$standard_base@DV?$string_output_adapter@D@__crt_stdio_output@@@__crt_stdio_output@@IEAA_NAEA_W@Z 0000000140015830 f i libucrtd:output.obj
 0001:00014830       ??$extract_argument_from_va_list@_W_W@?$standard_base@_WV?$string_output_adapter@_W@__crt_stdio_output@@@__crt_stdio_output@@IEAA_NAEA_W@Z 0000000140015830 f i libucrtd:output.obj
 0001:00014860       ??$is_overflow_condition@K@__crt_strtox@@YA_NIK@Z 0000000140015860 f i libucrtd:output.obj
 0001:000148d0       ??$is_wide_character_specifier@D@__crt_stdio_output@@YA_N_KDW4length_modifier@0@@Z 00000001400158d0 f i libucrtd:output.obj
 0001:00014970       ??$is_wide_character_specifier@_W@__crt_stdio_output@@YA_N_K_WW4length_modifier@0@@Z 0000000140015970 f i libucrtd:output.obj
 0001:00014a40       ??$make_c_string_character_source@DPEAPEAD@__crt_strtox@@YA?AV?$c_string_character_source@D@0@QEBDQEAPEAD@Z 0000000140015a40 f i libucrtd:output.obj
 0001:00014a40       ??$make_c_string_character_source@_WPEAPEA_W@__crt_strtox@@YA?AV?$c_string_character_source@_W@0@QEB_WQEAPEA_W@Z 0000000140015a40 f i libucrtd:output.obj
 0001:00014a80       ??$parse_integer@KV?$c_string_character_source@D@__crt_strtox@@$0A@@__crt_strtox@@YAKAEAV__crt_cached_ptd_host@@V?$c_string_character_source@D@0@H_N@Z 0000000140015a80 f i libucrtd:output.obj
 0001:00014f00       ??$parse_integer@KV?$c_string_character_source@_W@__crt_strtox@@$0A@@__crt_strtox@@YAKAEAV__crt_cached_ptd_host@@V?$c_string_character_source@_W@0@H_N@Z 0000000140015f00 f i libucrtd:output.obj
 0001:00015380       ??$read_va_arg@C@__crt_stdio_output@@YACAEAPEAD@Z 0000000140016380 f i libucrtd:output.obj
 0001:00015380       ??$read_va_arg@E@__crt_stdio_output@@YAEAEAPEAD@Z 0000000140016380 f i libucrtd:output.obj
 0001:000153f0       ??$read_va_arg@F@__crt_stdio_output@@YAFAEAPEAD@Z 00000001400163f0 f i libucrtd:output.obj
 0001:000153f0       ??$read_va_arg@G@__crt_stdio_output@@YAGAEAPEAD@Z 00000001400163f0 f i libucrtd:output.obj
 0001:000153f0       ??$read_va_arg@_W@__crt_stdio_output@@YA_WAEAPEAD@Z 00000001400163f0 f i libucrtd:output.obj
 0001:00015460       ??$read_va_arg@H@__crt_stdio_output@@YAHAEAPEAD@Z 0000000140016460 f i libucrtd:output.obj
 0001:00015460       ??$read_va_arg@I@__crt_stdio_output@@YAIAEAPEAD@Z 0000000140016460 f i libucrtd:output.obj
 0001:000154c0       ??$read_va_arg@PEAD@__crt_stdio_output@@YAPEADAEAPEAD@Z 00000001400164c0 f i libucrtd:output.obj
 0001:000154c0       ??$read_va_arg@PEAUansi_string@?1??type_case_Z@?$output_processor@DV?$string_output_adapter@D@__crt_stdio_output@@V?$format_validation_base@DV?$string_output_adapter@D@__crt_stdio_output@@@2@@__crt_stdio_output@@AEAA_NXZ@@__crt_stdio_output@@YAPEAUansi_string@?1??type_case_Z@?$output_processor@DV?$string_output_adapter@D@__crt_stdio_output@@V?$format_validation_base@DV?$string_output_adapter@D@__crt_stdio_output@@@2@@0@AEAA_NXZ@AEAPEAD@Z 00000001400164c0 f i libucrtd:output.obj
 0001:000154c0       ??$read_va_arg@PEAUansi_string@?1??type_case_Z@?$output_processor@_WV?$string_output_adapter@_W@__crt_stdio_output@@V?$format_validation_base@_WV?$string_output_adapter@_W@__crt_stdio_output@@@2@@__crt_stdio_output@@AEAA_NXZ@@__crt_stdio_output@@YAPEAUansi_string@?1??type_case_Z@?$output_processor@_WV?$string_output_adapter@_W@__crt_stdio_output@@V?$format_validation_base@_WV?$string_output_adapter@_W@__crt_stdio_output@@@2@@0@AEAA_NXZ@AEAPEAD@Z 00000001400164c0 f i libucrtd:output.obj
 0001:000154c0       ??$read_va_arg@PEAX@__crt_stdio_output@@YAPEAXAEAPEAD@Z 00000001400164c0 f i libucrtd:output.obj
 0001:000154c0       ??$read_va_arg@U_CRT_DOUBLE@@@__crt_stdio_output@@YA?AU_CRT_DOUBLE@@AEAPEAD@Z 00000001400164c0 f i libucrtd:output.obj
 0001:000154c0       ??$read_va_arg@_J@__crt_stdio_output@@YA_JAEAPEAD@Z 00000001400164c0 f i libucrtd:output.obj
 0001:000154c0       ??$read_va_arg@_K@__crt_stdio_output@@YA_KAEAPEAD@Z 00000001400164c0 f i libucrtd:output.obj
 0001:00015530       ??$scratch_count@D@formatting_buffer@__crt_stdio_output@@QEBA_KXZ 0000000140016530 f i libucrtd:output.obj
 0001:00015550       ??$scratch_data@D@formatting_buffer@__crt_stdio_output@@QEAAPEADXZ 0000000140016550 f i libucrtd:output.obj
 0001:000155c0       ??$type_case_integer@$07@?$output_processor@DV?$string_output_adapter@D@__crt_stdio_output@@V?$format_validation_base@DV?$string_output_adapter@D@__crt_stdio_output@@@2@@__crt_stdio_output@@AEAA_N_N@Z 00000001400165c0 f i libucrtd:output.obj
 0001:00015a40       ??$type_case_integer@$07@?$output_processor@_WV?$string_output_adapter@_W@__crt_stdio_output@@V?$format_validation_base@_WV?$string_output_adapter@_W@__crt_stdio_output@@@2@@__crt_stdio_output@@AEAA_N_N@Z 0000000140016a40 f i libucrtd:output.obj
 0001:00015ec0       ??$type_case_integer@$09@?$output_processor@DV?$string_output_adapter@D@__crt_stdio_output@@V?$format_validation_base@DV?$string_output_adapter@D@__crt_stdio_output@@@2@@__crt_stdio_output@@AEAA_N_N@Z 0000000140016ec0 f i libucrtd:output.obj
 0001:00016340       ??$type_case_integer@$09@?$output_processor@_WV?$string_output_adapter@_W@__crt_stdio_output@@V?$format_validation_base@_WV?$string_output_adapter@_W@__crt_stdio_output@@@2@@__crt_stdio_output@@AEAA_N_N@Z 0000000140017340 f i libucrtd:output.obj
 0001:000167c0       ??$type_case_integer@$0BA@@?$output_processor@DV?$string_output_adapter@D@__crt_stdio_output@@V?$format_validation_base@DV?$string_output_adapter@D@__crt_stdio_output@@@2@@__crt_stdio_output@@AEAA_N_N@Z 00000001400177c0 f i libucrtd:output.obj
 0001:00016c40       ??$type_case_integer@$0BA@@?$output_processor@_WV?$string_output_adapter@_W@__crt_stdio_output@@V?$format_validation_base@_WV?$string_output_adapter@_W@__crt_stdio_output@@@2@@__crt_stdio_output@@AEAA_N_N@Z 0000000140017c40 f i libucrtd:output.obj
 0001:000170c0       ??$type_case_integer_parse_into_buffer@I$07@?$output_processor@DV?$string_output_adapter@D@__crt_stdio_output@@V?$format_validation_base@DV?$string_output_adapter@D@__crt_stdio_output@@@2@@__crt_stdio_output@@AEAAXI_N@Z 00000001400180c0 f i libucrtd:output.obj
 0001:000171f0       ??$type_case_integer_parse_into_buffer@I$07@?$output_processor@_WV?$string_output_adapter@_W@__crt_stdio_output@@V?$format_validation_base@_WV?$string_output_adapter@_W@__crt_stdio_output@@@2@@__crt_stdio_output@@AEAAXI_N@Z 00000001400181f0 f i libucrtd:output.obj
 0001:00017330       ??$type_case_integer_parse_into_buffer@I$09@?$output_processor@DV?$string_output_adapter@D@__crt_stdio_output@@V?$format_validation_base@DV?$string_output_adapter@D@__crt_stdio_output@@@2@@__crt_stdio_output@@AEAAXI_N@Z 0000000140018330 f i libucrtd:output.obj
 0001:00017460       ??$type_case_integer_parse_into_buffer@I$09@?$output_processor@_WV?$string_output_adapter@_W@__crt_stdio_output@@V?$format_validation_base@_WV?$string_output_adapter@_W@__crt_stdio_output@@@2@@__crt_stdio_output@@AEAAXI_N@Z 0000000140018460 f i libucrtd:output.obj
 0001:000175a0       ??$type_case_integer_parse_into_buffer@I$0BA@@?$output_processor@DV?$string_output_adapter@D@__crt_stdio_output@@V?$format_validation_base@DV?$string_output_adapter@D@__crt_stdio_output@@@2@@__crt_stdio_output@@AEAAXI_N@Z 00000001400185a0 f i libucrtd:output.obj
 0001:000176d0       ??$type_case_integer_parse_into_buffer@I$0BA@@?$output_processor@_WV?$string_output_adapter@_W@__crt_stdio_output@@V?$format_validation_base@_WV?$string_output_adapter@_W@__crt_stdio_output@@@2@@__crt_stdio_output@@AEAAXI_N@Z 00000001400186d0 f i libucrtd:output.obj
 0001:00017810       ??$type_case_integer_parse_into_buffer@_K$07@?$output_processor@DV?$string_output_adapter@D@__crt_stdio_output@@V?$format_validation_base@DV?$string_output_adapter@D@__crt_stdio_output@@@2@@__crt_stdio_output@@AEAAX_K_N@Z 0000000140018810 f i libucrtd:output.obj
 0001:00017950       ??$type_case_integer_parse_into_buffer@_K$07@?$output_processor@_WV?$string_output_adapter@_W@__crt_stdio_output@@V?$format_validation_base@_WV?$string_output_adapter@_W@__crt_stdio_output@@@2@@__crt_stdio_output@@AEAAX_K_N@Z 0000000140018950 f i libucrtd:output.obj
 0001:00017a90       ??$type_case_integer_parse_into_buffer@_K$09@?$output_processor@DV?$string_output_adapter@D@__crt_stdio_output@@V?$format_validation_base@DV?$string_output_adapter@D@__crt_stdio_output@@@2@@__crt_stdio_output@@AEAAX_K_N@Z 0000000140018a90 f i libucrtd:output.obj
 0001:00017bd0       ??$type_case_integer_parse_into_buffer@_K$09@?$output_processor@_WV?$string_output_adapter@_W@__crt_stdio_output@@V?$format_validation_base@_WV?$string_output_adapter@_W@__crt_stdio_output@@@2@@__crt_stdio_output@@AEAAX_K_N@Z 0000000140018bd0 f i libucrtd:output.obj
 0001:00017d10       ??$type_case_integer_parse_into_buffer@_K$0BA@@?$output_processor@DV?$string_output_adapter@D@__crt_stdio_output@@V?$format_validation_base@DV?$string_output_adapter@D@__crt_stdio_output@@@2@@__crt_stdio_output@@AEAAX_K_N@Z 0000000140018d10 f i libucrtd:output.obj
 0001:00017e50       ??$type_case_integer_parse_into_buffer@_K$0BA@@?$output_processor@_WV?$string_output_adapter@_W@__crt_stdio_output@@V?$format_validation_base@_WV?$string_output_adapter@_W@__crt_stdio_output@@@2@@__crt_stdio_output@@AEAAX_K_N@Z 0000000140018e50 f i libucrtd:output.obj
 0001:00017f90       ??$write_multiple_characters@V?$string_output_adapter@D@__crt_stdio_output@@D@__crt_stdio_output@@YAXAEBV?$string_output_adapter@D@0@DHQEAHAEAV__crt_cached_ptd_host@@@Z 0000000140018f90 f i libucrtd:output.obj
 0001:00018000       ??$write_multiple_characters@V?$string_output_adapter@_W@__crt_stdio_output@@D@__crt_stdio_output@@YAXAEBV?$string_output_adapter@_W@0@DHQEAHAEAV__crt_cached_ptd_host@@@Z 0000000140019000 f i libucrtd:output.obj
 0001:00018070       ??0?$c_string_character_source@D@__crt_strtox@@QEAA@QEBDQEAPEBD@Z 0000000140019070 f i libucrtd:output.obj
 0001:00018070       ??0?$c_string_character_source@_W@__crt_strtox@@QEAA@QEB_WQEAPEB_W@Z 0000000140019070 f i libucrtd:output.obj
 0001:000180c0       ??0?$common_data@D@__crt_stdio_output@@IEAA@AEAV__crt_cached_ptd_host@@@Z 00000001400190c0 f i libucrtd:output.obj
 0001:00018180       ??0?$common_data@_W@__crt_stdio_output@@IEAA@AEAV__crt_cached_ptd_host@@@Z 0000000140019180 f i libucrtd:output.obj
 0001:00018240       ??0?$output_adapter_data@DV?$string_output_adapter@D@__crt_stdio_output@@@__crt_stdio_output@@IEAA@AEBV?$string_output_adapter@D@1@_KQEBDAEAV__crt_cached_ptd_host@@QEAD@Z 0000000140019240 f i libucrtd:output.obj
 0001:000182c0       ??0?$output_adapter_data@_WV?$string_output_adapter@_W@__crt_stdio_output@@@__crt_stdio_output@@IEAA@AEBV?$string_output_adapter@_W@1@_KQEB_WAEAV__crt_cached_ptd_host@@QEAD@Z 00000001400192c0 f i libucrtd:output.obj
 0001:00018340       ??0?$output_processor@DV?$string_output_adapter@D@__crt_stdio_output@@V?$format_validation_base@DV?$string_output_adapter@D@__crt_stdio_output@@@2@@__crt_stdio_output@@QEAA@AEBV?$string_output_adapter@D@1@_KQEBDAEAV__crt_cached_ptd_host@@QEAD@Z 0000000140019340 f i libucrtd:output.obj
 0001:00018390       ??0?$output_processor@_WV?$string_output_adapter@_W@__crt_stdio_output@@V?$format_validation_base@_WV?$string_output_adapter@_W@__crt_stdio_output@@@2@@__crt_stdio_output@@QEAA@AEBV?$string_output_adapter@_W@1@_KQEB_WAEAV__crt_cached_ptd_host@@QEAD@Z 0000000140019390 f i libucrtd:output.obj
 0001:000183e0       ??0formatting_buffer@__crt_stdio_output@@QEAA@XZ 00000001400193e0 f i libucrtd:output.obj
 0001:00018420       ??0guard@?$cached@H@__crt_cached_ptd_host@@QEAA@AEAU12@@Z 0000000140019420 f i libucrtd:output.obj
 0001:00018460       ??1?$c_string_character_source@D@__crt_strtox@@QEAA@XZ 0000000140019460 f i libucrtd:output.obj
 0001:00018460       ??1?$c_string_character_source@_W@__crt_strtox@@QEAA@XZ 0000000140019460 f i libucrtd:output.obj
 0001:00018490       ??1?$common_data@D@__crt_stdio_output@@QEAA@XZ 0000000140019490 f i libucrtd:output.obj
 0001:00018490       ??1?$common_data@_W@__crt_stdio_output@@QEAA@XZ 0000000140019490 f i libucrtd:output.obj
 0001:000184b0       ??1?$format_validation_base@DV?$string_output_adapter@D@__crt_stdio_output@@@__crt_stdio_output@@QEAA@XZ 00000001400194b0 f i libucrtd:output.obj
 0001:000184b0       ??1?$format_validation_base@_WV?$string_output_adapter@_W@__crt_stdio_output@@@__crt_stdio_output@@QEAA@XZ 00000001400194b0 f i libucrtd:output.obj
 0001:000184d0       ??1?$output_adapter_data@DV?$string_output_adapter@D@__crt_stdio_output@@@__crt_stdio_output@@QEAA@XZ 00000001400194d0 f i libucrtd:output.obj
 0001:000184d0       ??1?$output_adapter_data@_WV?$string_output_adapter@_W@__crt_stdio_output@@@__crt_stdio_output@@QEAA@XZ 00000001400194d0 f i libucrtd:output.obj
 0001:000184f0       ??1?$output_processor@DV?$string_output_adapter@D@__crt_stdio_output@@V?$format_validation_base@DV?$string_output_adapter@D@__crt_stdio_output@@@2@@__crt_stdio_output@@QEAA@XZ 00000001400194f0 f i libucrtd:output.obj
 0001:000184f0       ??1?$output_processor@_WV?$string_output_adapter@_W@__crt_stdio_output@@V?$format_validation_base@_WV?$string_output_adapter@_W@__crt_stdio_output@@@2@@__crt_stdio_output@@QEAA@XZ 00000001400194f0 f i libucrtd:output.obj
 0001:00018510       ??1?$standard_base@DV?$string_output_adapter@D@__crt_stdio_output@@@__crt_stdio_output@@QEAA@XZ 0000000140019510 f i libucrtd:output.obj
 0001:00018510       ??1?$standard_base@_WV?$string_output_adapter@_W@__crt_stdio_output@@@__crt_stdio_output@@QEAA@XZ 0000000140019510 f i libucrtd:output.obj
 0001:00018530       ??1formatting_buffer@__crt_stdio_output@@QEAA@XZ 0000000140019530 f i libucrtd:output.obj
 0001:00018560       ??1guard@?$cached@H@__crt_cached_ptd_host@@QEAA@XZ 0000000140019560 f i libucrtd:output.obj
 0001:00018590       ??4?$__crt_unique_heap_ptr@DU__crt_internal_free_policy@@@@QEAAAEAV0@$$QEAV0@@Z 0000000140019590 f i libucrtd:output.obj
 0001:000185d0       ??A?$spectre_mitigated_lookup_table@Ustate_transition_pair@__crt_stdio_output@@$0IA@@__crt_stdio_output@@QEBAAEBUstate_transition_pair@1@_K@Z 00000001400195d0 f i libucrtd:output.obj
 0001:000185f0       ?adjust_hexit@?$output_processor@DV?$string_output_adapter@D@__crt_stdio_output@@V?$format_validation_base@DV?$string_output_adapter@D@__crt_stdio_output@@@2@@__crt_stdio_output@@CADH_N@Z 00000001400195f0 f i libucrtd:output.obj
 0001:000185f0       ?adjust_hexit@?$output_processor@_WV?$string_output_adapter@_W@__crt_stdio_output@@V?$format_validation_base@_WV?$string_output_adapter@_W@__crt_stdio_output@@@2@@__crt_stdio_output@@CADH_N@Z 00000001400195f0 f i libucrtd:output.obj
 0001:00018640       ?advance_to_next_pass@?$standard_base@DV?$string_output_adapter@D@__crt_stdio_output@@@__crt_stdio_output@@IEAA_NXZ 0000000140019640 f i libucrtd:output.obj
 0001:00018640       ?advance_to_next_pass@?$standard_base@_WV?$string_output_adapter@_W@__crt_stdio_output@@@__crt_stdio_output@@IEAA_NXZ 0000000140019640 f i libucrtd:output.obj
 0001:00018690       ?check@?$cached@H@__crt_cached_ptd_host@@QEBA_NH@Z 0000000140019690 f i libucrtd:output.obj
 0001:000186d0       ?create_guard@?$cached@H@__crt_cached_ptd_host@@QEAA?AVguard@12@XZ 00000001400196d0 f i libucrtd:output.obj
 0001:00018700       ?crop_zeroes@__crt_stdio_output@@YAXPEADQEAU__crt_locale_pointers@@@Z 0000000140019700 f i libucrtd:output.obj
 0001:00018850       ?disable@guard@?$cached@H@__crt_cached_ptd_host@@QEAAXXZ 0000000140019850 f i libucrtd:output.obj
 0001:00018860       ?enable@guard@?$cached@H@__crt_cached_ptd_host@@QEAAXXZ 0000000140019860 f i libucrtd:output.obj
 0001:00018870       ?find_next_state@?$output_processor@DV?$string_output_adapter@D@__crt_stdio_output@@V?$format_validation_base@DV?$string_output_adapter@D@__crt_stdio_output@@@2@@__crt_stdio_output@@AEBA?AW4state@2@DW432@@Z 0000000140019870 f i libucrtd:output.obj
 0001:00018910       ?find_next_state@?$output_processor@_WV?$string_output_adapter@_W@__crt_stdio_output@@V?$format_validation_base@_WV?$string_output_adapter@_W@__crt_stdio_output@@@2@@__crt_stdio_output@@AEBA?AW4state@2@_WW432@@Z 0000000140019910 f i libucrtd:output.obj
 0001:000189b0       ?force_decimal_point@__crt_stdio_output@@YAXPEADQEAU__crt_locale_pointers@@@Z 00000001400199b0 f i libucrtd:output.obj
 0001:00018ab0       ?get@?$c_string_character_source@D@__crt_strtox@@QEAADXZ 0000000140019ab0 f i libucrtd:output.obj
 0001:00018af0       ?get@?$c_string_character_source@_W@__crt_strtox@@QEAA_WXZ 0000000140019af0 f i libucrtd:output.obj
 0001:00018b30       ?get_errno@__crt_cached_ptd_host@@QEAA@XZ 0000000140019b30 f i libucrtd:output.obj
 0001:00018b40       ?get_flags@__crt_stdio_stream@@QEBAJXZ 0000000140019b40 f i libucrtd:output.obj
 0001:00018b70       ?get_locale@__crt_cached_ptd_host@@QEAAPEAU__crt_locale_pointers@@XZ 0000000140019b70 f i libucrtd:output.obj
 0001:00018ba0       ?has_flag@?$output_processor@DV?$string_output_adapter@D@__crt_stdio_output@@V?$format_validation_base@DV?$string_output_adapter@D@__crt_stdio_output@@@2@@__crt_stdio_output@@AEBA_NI@Z 0000000140019ba0 f i libucrtd:output.obj
 0001:00018ba0       ?has_flag@?$output_processor@_WV?$string_output_adapter@_W@__crt_stdio_output@@V?$format_validation_base@_WV?$string_output_adapter@_W@__crt_stdio_output@@@2@@__crt_stdio_output@@AEBA_NI@Z 0000000140019ba0 f i libucrtd:output.obj
 0001:00018be0       ?is_string_backed@__crt_stdio_stream@@QEBA_NXZ 0000000140019be0 f i libucrtd:output.obj
 0001:00018c20       ?maximum_signed_value@__crt_strtox@@YAJK@Z 0000000140019c20 f i libucrtd:output.obj
 0001:00018c30       ?minimum_signed_value@__crt_strtox@@YAJK@Z 0000000140019c30 f i libucrtd:output.obj
 0001:00018c40       ?narrow_null_string@?$output_processor@DV?$string_output_adapter@D@__crt_stdio_output@@V?$format_validation_base@DV?$string_output_adapter@D@__crt_stdio_output@@@2@@__crt_stdio_output@@CAPEADXZ 0000000140019c40 f i libucrtd:output.obj
 0001:00018c40       ?narrow_null_string@?$output_processor@_WV?$string_output_adapter@_W@__crt_stdio_output@@V?$format_validation_base@_WV?$string_output_adapter@_W@__crt_stdio_output@@@2@@__crt_stdio_output@@CAPEADXZ 0000000140019c40 f i libucrtd:output.obj
 0001:00018c50       ?parse_digit@__crt_strtox@@YAID@Z 0000000140019c50 f i libucrtd:output.obj
 0001:00018cc0       ?parse_digit@__crt_strtox@@YAI_W@Z 0000000140019cc0 f i libucrtd:output.obj
 0001:00018d10       ?parse_int_from_format_string@?$output_processor@DV?$string_output_adapter@D@__crt_stdio_output@@V?$format_validation_base@DV?$string_output_adapter@D@__crt_stdio_output@@@2@@__crt_stdio_output@@AEAA_NQEAH@Z 0000000140019d10 f i libucrtd:output.obj
 0001:00018e10       ?parse_int_from_format_string@?$output_processor@_WV?$string_output_adapter@_W@__crt_stdio_output@@V?$format_validation_base@_WV?$string_output_adapter@_W@__crt_stdio_output@@@2@@__crt_stdio_output@@AEAA_NQEAH@Z 0000000140019e10 f i libucrtd:output.obj
 0001:00018f10       ?process@?$output_processor@DV?$string_output_adapter@D@__crt_stdio_output@@V?$format_validation_base@DV?$string_output_adapter@D@__crt_stdio_output@@@2@@__crt_stdio_output@@QEAAHXZ 0000000140019f10 f i libucrtd:output.obj
 0001:000192d0       ?process@?$output_processor@_WV?$string_output_adapter@_W@__crt_stdio_output@@V?$format_validation_base@_WV?$string_output_adapter@_W@__crt_stdio_output@@@2@@__crt_stdio_output@@QEAAHXZ 000000014001a2d0 f i libucrtd:output.obj
 0001:00019690       ?restore_state@?$c_string_character_source@D@__crt_strtox@@QEAA_NQEBD@Z 000000014001a690 f i libucrtd:output.obj
 0001:00019690       ?restore_state@?$c_string_character_source@_W@__crt_strtox@@QEAA_NQEB_W@Z 000000014001a690 f i libucrtd:output.obj
 0001:000196b0       ?set@?$cached@H@__crt_cached_ptd_host@@QEAAHH@Z 000000014001a6b0 f i libucrtd:output.obj
 0001:000196b0       ?set@?$cached@K@__crt_cached_ptd_host@@QEAAKK@Z 000000014001a6b0 f i libucrtd:errno.obj
 0001:000196e0       ?set_flag@?$output_processor@DV?$string_output_adapter@D@__crt_stdio_output@@V?$format_validation_base@DV?$string_output_adapter@D@__crt_stdio_output@@@2@@__crt_stdio_output@@AEAAXI@Z 000000014001a6e0 f i libucrtd:output.obj
 0001:000196e0       ?set_flag@?$output_processor@_WV?$string_output_adapter@_W@__crt_stdio_output@@V?$format_validation_base@_WV?$string_output_adapter@_W@__crt_stdio_output@@@2@@__crt_stdio_output@@AEAAXI@Z 000000014001a6e0 f i libucrtd:output.obj
 0001:00019700       ?should_format@?$standard_base@DV?$string_output_adapter@D@__crt_stdio_output@@@__crt_stdio_output@@IEAA_NXZ 000000014001a700 f i libucrtd:output.obj
 0001:00019700       ?should_format@?$standard_base@_WV?$string_output_adapter@_W@__crt_stdio_output@@@__crt_stdio_output@@IEAA_NXZ 000000014001a700 f i libucrtd:output.obj
 0001:00019700       ?validate_and_update_state_at_beginning_of_format_character@?$standard_base@DV?$string_output_adapter@D@__crt_stdio_output@@@__crt_stdio_output@@IEAA_NXZ 000000014001a700 f i libucrtd:output.obj
 0001:00019700       ?validate_and_update_state_at_beginning_of_format_character@?$standard_base@_WV?$string_output_adapter@_W@__crt_stdio_output@@@__crt_stdio_output@@IEAA_NXZ 000000014001a700 f i libucrtd:output.obj
 0001:00019700       ?validate_state_for_type_case_a@?$standard_base@DV?$string_output_adapter@D@__crt_stdio_output@@@__crt_stdio_output@@IEBA_NXZ 000000014001a700 f i libucrtd:output.obj
 0001:00019700       ?validate_state_for_type_case_a@?$standard_base@_WV?$string_output_adapter@_W@__crt_stdio_output@@@__crt_stdio_output@@IEBA_NXZ 000000014001a700 f i libucrtd:output.obj
 0001:00019710       ?should_skip_normal_state_processing@?$standard_base@DV?$string_output_adapter@D@__crt_stdio_output@@@__crt_stdio_output@@IEAA_NXZ 000000014001a710 f i libucrtd:output.obj
 0001:00019710       ?should_skip_normal_state_processing@?$standard_base@_WV?$string_output_adapter@_W@__crt_stdio_output@@@__crt_stdio_output@@IEAA_NXZ 000000014001a710 f i libucrtd:output.obj
 0001:00019710       ?should_skip_type_state_output@?$standard_base@DV?$string_output_adapter@D@__crt_stdio_output@@@__crt_stdio_output@@IEBA_NXZ 000000014001a710 f i libucrtd:output.obj
 0001:00019710       ?should_skip_type_state_output@?$standard_base@_WV?$string_output_adapter@_W@__crt_stdio_output@@@__crt_stdio_output@@IEBA_NXZ 000000014001a710 f i libucrtd:output.obj
 0001:00019720       ?state_case_dot@?$output_processor@DV?$string_output_adapter@D@__crt_stdio_output@@V?$format_validation_base@DV?$string_output_adapter@D@__crt_stdio_output@@@2@@__crt_stdio_output@@AEAA_NXZ 000000014001a720 f i libucrtd:output.obj
 0001:00019720       ?state_case_dot@?$output_processor@_WV?$string_output_adapter@_W@__crt_stdio_output@@V?$format_validation_base@_WV?$string_output_adapter@_W@__crt_stdio_output@@@2@@__crt_stdio_output@@AEAA_NXZ 000000014001a720 f i libucrtd:output.obj
 0001:00019740       ?state_case_flag@?$output_processor@DV?$string_output_adapter@D@__crt_stdio_output@@V?$format_validation_base@DV?$string_output_adapter@D@__crt_stdio_output@@@2@@__crt_stdio_output@@AEAA_NXZ 000000014001a740 f i libucrtd:output.obj
 0001:000197e0       ?state_case_flag@?$output_processor@_WV?$string_output_adapter@_W@__crt_stdio_output@@V?$format_validation_base@_WV?$string_output_adapter@_W@__crt_stdio_output@@@2@@__crt_stdio_output@@AEAA_NXZ 000000014001a7e0 f i libucrtd:output.obj
 0001:00019880       ?state_case_normal@?$output_processor@DV?$string_output_adapter@D@__crt_stdio_output@@V?$format_validation_base@DV?$string_output_adapter@D@__crt_stdio_output@@@2@@__crt_stdio_output@@AEAA_NXZ 000000014001a880 f i libucrtd:output.obj
 0001:00019980       ?state_case_normal@?$output_processor@_WV?$string_output_adapter@_W@__crt_stdio_output@@V?$format_validation_base@_WV?$string_output_adapter@_W@__crt_stdio_output@@@2@@__crt_stdio_output@@AEAA_NXZ 000000014001a980 f i libucrtd:output.obj
 0001:00019a80       ?state_case_normal_common@?$output_processor@DV?$string_output_adapter@D@__crt_stdio_output@@V?$format_validation_base@DV?$string_output_adapter@D@__crt_stdio_output@@@2@@__crt_stdio_output@@AEAA_NXZ 000000014001aa80 f i libucrtd:output.obj
 0001:00019ae0       ?state_case_normal_common@?$output_processor@_WV?$string_output_adapter@_W@__crt_stdio_output@@V?$format_validation_base@_WV?$string_output_adapter@_W@__crt_stdio_output@@@2@@__crt_stdio_output@@AEAA_NXZ 000000014001aae0 f i libucrtd:output.obj
 0001:00019b40       ?state_case_normal_tchar@?$output_processor@DV?$string_output_adapter@D@__crt_stdio_output@@V?$format_validation_base@DV?$string_output_adapter@D@__crt_stdio_output@@@2@@__crt_stdio_output@@AEAA_ND@Z 000000014001ab40 f i libucrtd:output.obj
 0001:00019cd0       ?state_case_normal_tchar@?$output_processor@_WV?$string_output_adapter@_W@__crt_stdio_output@@V?$format_validation_base@_WV?$string_output_adapter@_W@__crt_stdio_output@@@2@@__crt_stdio_output@@AEAA_N_W@Z 000000014001acd0 f i libucrtd:output.obj
 0001:00019cf0       ?state_case_percent@?$output_processor@DV?$string_output_adapter@D@__crt_stdio_output@@V?$format_validation_base@DV?$string_output_adapter@D@__crt_stdio_output@@@2@@__crt_stdio_output@@AEAA_NXZ 000000014001acf0 f i libucrtd:output.obj
 0001:00019cf0       ?state_case_percent@?$output_processor@_WV?$string_output_adapter@_W@__crt_stdio_output@@V?$format_validation_base@_WV?$string_output_adapter@_W@__crt_stdio_output@@@2@@__crt_stdio_output@@AEAA_NXZ 000000014001acf0 f i libucrtd:output.obj
 0001:00019d40       ?state_case_precision@?$output_processor@DV?$string_output_adapter@D@__crt_stdio_output@@V?$format_validation_base@DV?$string_output_adapter@D@__crt_stdio_output@@@2@@__crt_stdio_output@@AEAA_NXZ 000000014001ad40 f i libucrtd:output.obj
 0001:00019dc0       ?state_case_precision@?$output_processor@_WV?$string_output_adapter@_W@__crt_stdio_output@@V?$format_validation_base@_WV?$string_output_adapter@_W@__crt_stdio_output@@@2@@__crt_stdio_output@@AEAA_NXZ 000000014001adc0 f i libucrtd:output.obj
 0001:00019e40       ?state_case_size@?$output_processor@DV?$string_output_adapter@D@__crt_stdio_output@@V?$format_validation_base@DV?$string_output_adapter@D@__crt_stdio_output@@@2@@__crt_stdio_output@@AEAA_NXZ 000000014001ae40 f i libucrtd:output.obj
 0001:0001a300       ?state_case_size@?$output_processor@_WV?$string_output_adapter@_W@__crt_stdio_output@@V?$format_validation_base@_WV?$string_output_adapter@_W@__crt_stdio_output@@@2@@__crt_stdio_output@@AEAA_NXZ 000000014001b300 f i libucrtd:output.obj
 0001:0001a7c0       ?state_case_type@?$output_processor@DV?$string_output_adapter@D@__crt_stdio_output@@V?$format_validation_base@DV?$string_output_adapter@D@__crt_stdio_output@@@2@@__crt_stdio_output@@AEAA_NXZ 000000014001b7c0 f i libucrtd:output.obj
 0001:0001ac80       ?state_case_type@?$output_processor@_WV?$string_output_adapter@_W@__crt_stdio_output@@V?$format_validation_base@_WV?$string_output_adapter@_W@__crt_stdio_output@@@2@@__crt_stdio_output@@AEAA_NXZ 000000014001bc80 f i libucrtd:output.obj
 0001:0001b210       ?state_case_width@?$output_processor@DV?$string_output_adapter@D@__crt_stdio_output@@V?$format_validation_base@DV?$string_output_adapter@D@__crt_stdio_output@@@2@@__crt_stdio_output@@AEAA_NXZ 000000014001c210 f i libucrtd:output.obj
 0001:0001b2a0       ?state_case_width@?$output_processor@_WV?$string_output_adapter@_W@__crt_stdio_output@@V?$format_validation_base@_WV?$string_output_adapter@_W@__crt_stdio_output@@@2@@__crt_stdio_output@@AEAA_NXZ 000000014001c2a0 f i libucrtd:output.obj
 0001:0001b330       ?state_count@?$format_validation_base@DV?$string_output_adapter@D@__crt_stdio_output@@@__crt_stdio_output@@KAIXZ 000000014001c330 f i libucrtd:output.obj
 0001:0001b330       ?state_count@?$format_validation_base@_WV?$string_output_adapter@_W@__crt_stdio_output@@@__crt_stdio_output@@KAIXZ 000000014001c330 f i libucrtd:output.obj
 0001:0001b340       ?state_transition_table@?$format_validation_base@DV?$string_output_adapter@D@__crt_stdio_output@@@__crt_stdio_output@@KAAEBV?$spectre_mitigated_lookup_table@Ustate_transition_pair@__crt_stdio_output@@$0IA@@2@XZ 000000014001c340 f i libucrtd:output.obj
 0001:0001b340       ?state_transition_table@?$format_validation_base@_WV?$string_output_adapter@_W@__crt_stdio_output@@@__crt_stdio_output@@KAAEBV?$spectre_mitigated_lookup_table@Ustate_transition_pair@__crt_stdio_output@@$0IA@@2@XZ 000000014001c340 f i libucrtd:output.obj
 0001:0001b350       ?tchar_string@?$common_data@D@__crt_stdio_output@@IEAAAEAPEADD@Z 000000014001c350 f i libucrtd:output.obj
 0001:0001b370       ?tchar_string@?$common_data@D@__crt_stdio_output@@IEAAAEAPEADXZ 000000014001c370 f i libucrtd:output.obj
 0001:0001b390       ?tchar_string@?$common_data@_W@__crt_stdio_output@@IEAAAEAPEA_WXZ 000000014001c390 f i libucrtd:output.obj
 0001:0001b3b0       ?tchar_string@?$common_data@_W@__crt_stdio_output@@IEAAAEAPEA_W_W@Z 000000014001c3b0 f i libucrtd:output.obj
 0001:0001b3d0       ?to_integer_size@__crt_stdio_output@@YA_KW4length_modifier@1@@Z 000000014001c3d0 f i libucrtd:output.obj
 0001:0001b480       ?type_case_X@?$output_processor@DV?$string_output_adapter@D@__crt_stdio_output@@V?$format_validation_base@DV?$string_output_adapter@D@__crt_stdio_output@@@2@@__crt_stdio_output@@AEAA_NXZ 000000014001c480 f i libucrtd:output.obj
 0001:0001b4a0       ?type_case_X@?$output_processor@_WV?$string_output_adapter@_W@__crt_stdio_output@@V?$format_validation_base@_WV?$string_output_adapter@_W@__crt_stdio_output@@@2@@__crt_stdio_output@@AEAA_NXZ 000000014001c4a0 f i libucrtd:output.obj
 0001:0001b4c0       ?type_case_Z@?$output_processor@DV?$string_output_adapter@D@__crt_stdio_output@@V?$format_validation_base@DV?$string_output_adapter@D@__crt_stdio_output@@@2@@__crt_stdio_output@@AEAA_NXZ 000000014001c4c0 f i libucrtd:output.obj
 0001:0001b5e0       ?type_case_Z@?$output_processor@_WV?$string_output_adapter@_W@__crt_stdio_output@@V?$format_validation_base@_WV?$string_output_adapter@_W@__crt_stdio_output@@@2@@__crt_stdio_output@@AEAA_NXZ 000000014001c5e0 f i libucrtd:output.obj
 0001:0001b700       ?type_case_a@?$output_processor@DV?$string_output_adapter@D@__crt_stdio_output@@V?$format_validation_base@DV?$string_output_adapter@D@__crt_stdio_output@@@2@@__crt_stdio_output@@AEAA_NXZ 000000014001c700 f i libucrtd:output.obj
 0001:0001bb60       ?type_case_a@?$output_processor@_WV?$string_output_adapter@_W@__crt_stdio_output@@V?$format_validation_base@_WV?$string_output_adapter@_W@__crt_stdio_output@@@2@@__crt_stdio_output@@AEAA_NXZ 000000014001cb60 f i libucrtd:output.obj
 0001:0001bfd0       ?type_case_c@?$output_processor@DV?$string_output_adapter@D@__crt_stdio_output@@V?$format_validation_base@DV?$string_output_adapter@D@__crt_stdio_output@@@2@@__crt_stdio_output@@AEAA_NXZ 000000014001cfd0 f i libucrtd:output.obj
 0001:0001bff0       ?type_case_c@?$output_processor@_WV?$string_output_adapter@_W@__crt_stdio_output@@V?$format_validation_base@_WV?$string_output_adapter@_W@__crt_stdio_output@@@2@@__crt_stdio_output@@AEAA_NXZ 000000014001cff0 f i libucrtd:output.obj
 0001:0001c010       ?type_case_c_tchar@?$output_processor@DV?$string_output_adapter@D@__crt_stdio_output@@V?$format_validation_base@DV?$string_output_adapter@D@__crt_stdio_output@@@2@@__crt_stdio_output@@AEAA_ND@Z 000000014001d010 f i libucrtd:output.obj
 0001:0001c180       ?type_case_c_tchar@?$output_processor@_WV?$string_output_adapter@_W@__crt_stdio_output@@V?$format_validation_base@_WV?$string_output_adapter@_W@__crt_stdio_output@@@2@@__crt_stdio_output@@AEAA_N_W@Z 000000014001d180 f i libucrtd:output.obj
 0001:0001c2e0       ?type_case_d@?$output_processor@DV?$string_output_adapter@D@__crt_stdio_output@@V?$format_validation_base@DV?$string_output_adapter@D@__crt_stdio_output@@@2@@__crt_stdio_output@@AEAA_NXZ 000000014001d2e0 f i libucrtd:output.obj
 0001:0001c310       ?type_case_d@?$output_processor@_WV?$string_output_adapter@_W@__crt_stdio_output@@V?$format_validation_base@_WV?$string_output_adapter@_W@__crt_stdio_output@@@2@@__crt_stdio_output@@AEAA_NXZ 000000014001d310 f i libucrtd:output.obj
 0001:0001c340       ?type_case_n@?$output_processor@DV?$string_output_adapter@D@__crt_stdio_output@@V?$format_validation_base@DV?$string_output_adapter@D@__crt_stdio_output@@@2@@__crt_stdio_output@@AEAA_NXZ 000000014001d340 f i libucrtd:output.obj
 0001:0001c5d0       ?type_case_n@?$output_processor@_WV?$string_output_adapter@_W@__crt_stdio_output@@V?$format_validation_base@_WV?$string_output_adapter@_W@__crt_stdio_output@@@2@@__crt_stdio_output@@AEAA_NXZ 000000014001d5d0 f i libucrtd:output.obj
 0001:0001c860       ?type_case_o@?$output_processor@DV?$string_output_adapter@D@__crt_stdio_output@@V?$format_validation_base@DV?$string_output_adapter@D@__crt_stdio_output@@@2@@__crt_stdio_output@@AEAA_NXZ 000000014001d860 f i libucrtd:output.obj
 0001:0001c8a0       ?type_case_o@?$output_processor@_WV?$string_output_adapter@_W@__crt_stdio_output@@V?$format_validation_base@_WV?$string_output_adapter@_W@__crt_stdio_output@@@2@@__crt_stdio_output@@AEAA_NXZ 000000014001d8a0 f i libucrtd:output.obj
 0001:0001c8e0       ?type_case_p@?$output_processor@DV?$string_output_adapter@D@__crt_stdio_output@@V?$format_validation_base@DV?$string_output_adapter@D@__crt_stdio_output@@@2@@__crt_stdio_output@@AEAA_NXZ 000000014001d8e0 f i libucrtd:output.obj
 0001:0001c920       ?type_case_p@?$output_processor@_WV?$string_output_adapter@_W@__crt_stdio_output@@V?$format_validation_base@_WV?$string_output_adapter@_W@__crt_stdio_output@@@2@@__crt_stdio_output@@AEAA_NXZ 000000014001d920 f i libucrtd:output.obj
 0001:0001c960       ?type_case_s@?$output_processor@DV?$string_output_adapter@D@__crt_stdio_output@@V?$format_validation_base@DV?$string_output_adapter@D@__crt_stdio_output@@@2@@__crt_stdio_output@@AEAA_NXZ 000000014001d960 f i libucrtd:output.obj
 0001:0001ca80       ?type_case_s@?$output_processor@_WV?$string_output_adapter@_W@__crt_stdio_output@@V?$format_validation_base@_WV?$string_output_adapter@_W@__crt_stdio_output@@@2@@__crt_stdio_output@@AEAA_NXZ 000000014001da80 f i libucrtd:output.obj
 0001:0001cba0       ?type_case_s_compute_narrow_string_length@?$output_processor@DV?$string_output_adapter@D@__crt_stdio_output@@V?$format_validation_base@DV?$string_output_adapter@D@__crt_stdio_output@@@2@@__crt_stdio_output@@AEAAHHD@Z 000000014001dba0 f i libucrtd:output.obj
 0001:0001cbd0       ?type_case_s_compute_narrow_string_length@?$output_processor@_WV?$string_output_adapter@_W@__crt_stdio_output@@V?$format_validation_base@_WV?$string_output_adapter@_W@__crt_stdio_output@@@2@@__crt_stdio_output@@AEAAHH_W@Z 000000014001dbd0 f i libucrtd:output.obj
 0001:0001cc70       ?type_case_u@?$output_processor@DV?$string_output_adapter@D@__crt_stdio_output@@V?$format_validation_base@DV?$string_output_adapter@D@__crt_stdio_output@@@2@@__crt_stdio_output@@AEAA_NXZ 000000014001dc70 f i libucrtd:output.obj
 0001:0001cc90       ?type_case_u@?$output_processor@_WV?$string_output_adapter@_W@__crt_stdio_output@@V?$format_validation_base@_WV?$string_output_adapter@_W@__crt_stdio_output@@@2@@__crt_stdio_output@@AEAA_NXZ 000000014001dc90 f i libucrtd:output.obj
 0001:0001ccb0       ?type_case_x@?$output_processor@DV?$string_output_adapter@D@__crt_stdio_output@@V?$format_validation_base@DV?$string_output_adapter@D@__crt_stdio_output@@@2@@__crt_stdio_output@@AEAA_NXZ 000000014001dcb0 f i libucrtd:output.obj
 0001:0001ccd0       ?type_case_x@?$output_processor@_WV?$string_output_adapter@_W@__crt_stdio_output@@V?$format_validation_base@_WV?$string_output_adapter@_W@__crt_stdio_output@@@2@@__crt_stdio_output@@AEAA_NXZ 000000014001dcd0 f i libucrtd:output.obj
 0001:0001ccf0       ?unget@?$c_string_character_source@D@__crt_strtox@@QEAAXD@Z 000000014001dcf0 f i libucrtd:output.obj
 0001:0001cdd0       ?unget@?$c_string_character_source@_W@__crt_strtox@@QEAAX_W@Z 000000014001ddd0 f i libucrtd:output.obj
 0001:0001ceb0       ?unset_flag@?$output_processor@DV?$string_output_adapter@D@__crt_stdio_output@@V?$format_validation_base@DV?$string_output_adapter@D@__crt_stdio_output@@@2@@__crt_stdio_output@@AEAAXI@Z 000000014001deb0 f i libucrtd:output.obj
 0001:0001ceb0       ?unset_flag@?$output_processor@_WV?$string_output_adapter@_W@__crt_stdio_output@@V?$format_validation_base@_WV?$string_output_adapter@_W@__crt_stdio_output@@@2@@__crt_stdio_output@@AEAAXI@Z 000000014001deb0 f i libucrtd:output.obj
 0001:0001cee0       ?update_field_width@?$standard_base@DV?$string_output_adapter@D@__crt_stdio_output@@@__crt_stdio_output@@IEAA_NXZ 000000014001dee0 f i libucrtd:output.obj
 0001:0001cee0       ?update_field_width@?$standard_base@_WV?$string_output_adapter@_W@__crt_stdio_output@@@__crt_stdio_output@@IEAA_NXZ 000000014001dee0 f i libucrtd:output.obj
 0001:0001cf10       ?update_locale@__crt_cached_ptd_host@@AEAAXXZ 000000014001df10 f i libucrtd:output.obj
 0001:0001cf40       ?update_locale_slow@__crt_cached_ptd_host@@AEAAXXZ 000000014001df40 f i libucrtd:output.obj
 0001:0001cff0       ?update_precision@?$standard_base@DV?$string_output_adapter@D@__crt_stdio_output@@@__crt_stdio_output@@IEAA_NXZ 000000014001dff0 f i libucrtd:output.obj
 0001:0001cff0       ?update_precision@?$standard_base@_WV?$string_output_adapter@_W@__crt_stdio_output@@@__crt_stdio_output@@IEAA_NXZ 000000014001dff0 f i libucrtd:output.obj
 0001:0001d020       ?validate@?$c_string_character_source@D@__crt_strtox@@QEBA_NXZ 000000014001e020 f i libucrtd:output.obj
 0001:0001d0e0       ?validate@?$c_string_character_source@_W@__crt_strtox@@QEBA_NXZ 000000014001e0e0 f i libucrtd:output.obj
 0001:0001d1a0       ?validate@?$string_output_adapter@D@__crt_stdio_output@@QEBA_NAEAV__crt_cached_ptd_host@@@Z 000000014001e1a0 f i libucrtd:output.obj
 0001:0001d280       ?validate@?$string_output_adapter@_W@__crt_stdio_output@@QEBA_NAEAV__crt_cached_ptd_host@@@Z 000000014001e280 f i libucrtd:output.obj
 0001:0001d360       ?validate_and_update_state_at_end_of_format_string@?$format_validation_base@DV?$string_output_adapter@D@__crt_stdio_output@@@__crt_stdio_output@@IEAA_NXZ 000000014001e360 f i libucrtd:output.obj
 0001:0001d450       ?validate_and_update_state_at_end_of_format_string@?$format_validation_base@_WV?$string_output_adapter@_W@__crt_stdio_output@@@__crt_stdio_output@@IEAA_NXZ 000000014001e450 f i libucrtd:output.obj
 0001:0001d540       ?wide_character_to_digit@__crt_strtox@@YAH_W@Z 000000014001e540 f i libucrtd:output.obj
 0001:0001d8b0       ?wide_null_string@?$output_processor@DV?$string_output_adapter@D@__crt_stdio_output@@V?$format_validation_base@DV?$string_output_adapter@D@__crt_stdio_output@@@2@@__crt_stdio_output@@CAPEA_WXZ 000000014001e8b0 f i libucrtd:output.obj
 0001:0001d8b0       ?wide_null_string@?$output_processor@_WV?$string_output_adapter@_W@__crt_stdio_output@@V?$format_validation_base@_WV?$string_output_adapter@_W@__crt_stdio_output@@@2@@__crt_stdio_output@@CAPEA_WXZ 000000014001e8b0 f i libucrtd:output.obj
 0001:0001d8c0       ?write_character@?$string_output_adapter@D@__crt_stdio_output@@QEBA_NDQEAHAEAV__crt_cached_ptd_host@@@Z 000000014001e8c0 f i libucrtd:output.obj
 0001:0001d990       ?write_character@?$string_output_adapter@_W@__crt_stdio_output@@QEBA_N_WQEAHAEAV__crt_cached_ptd_host@@@Z 000000014001e990 f i libucrtd:output.obj
 0001:0001da60       ?write_stored_string_tchar@?$output_processor@DV?$string_output_adapter@D@__crt_stdio_output@@V?$format_validation_base@DV?$string_output_adapter@D@__crt_stdio_output@@@2@@__crt_stdio_output@@AEAA_ND@Z 000000014001ea60 f i libucrtd:output.obj
 0001:0001dc10       ?write_stored_string_tchar@?$output_processor@_WV?$string_output_adapter@_W@__crt_stdio_output@@V?$format_validation_base@_WV?$string_output_adapter@_W@__crt_stdio_output@@@2@@__crt_stdio_output@@AEAA_N_W@Z 000000014001ec10 f i libucrtd:output.obj
 0001:0001dd70       ?write_string@?$string_output_adapter@D@__crt_stdio_output@@QEBAXQEBDHQEAHAEAV__crt_cached_ptd_host@@@Z 000000014001ed70 f i libucrtd:output.obj
 0001:0001dee0       ?write_string@?$string_output_adapter@_W@__crt_stdio_output@@QEBAXQEB_WHQEAHAEAV__crt_cached_ptd_host@@@Z 000000014001eee0 f i libucrtd:output.obj
 0001:0001e050       __acrt_isleadbyte_l_noupdate 000000014001f050 f i libucrtd:output.obj
 0001:0001e080       __acrt_locale_get_ctype_array_value 000000014001f080 f i libucrtd:output.obj
 0001:0001e0c0       __ascii_iswalpha           000000014001f0c0 f i libucrtd:output.obj
 0001:0001e100       __ascii_toupper            000000014001f100 f i libucrtd:output.obj
 0001:0001e120       __ascii_towupper           000000014001f120 f i libucrtd:output.obj
 0001:0001e140       __stdio_common_vsnprintf_s 000000014001f140 f   libucrtd:output.obj
 0001:0001e1d0       __stdio_common_vsnwprintf_s 000000014001f1d0 f   libucrtd:output.obj
 0001:0001e260       __stdio_common_vsprintf_s  000000014001f260 f   libucrtd:output.obj
 0001:0001e2f0       _ctype_fast_check_internal 000000014001f2f0 f i libucrtd:output.obj
 0001:0001e320       _isdigit_fast_internal     000000014001f320 f i libucrtd:output.obj
 0001:0001e350       _tolower_fast_internal     000000014001f350 f i libucrtd:output.obj
 0001:0001f150       ??$get_module_file_name@AEAPEAUHINSTANCE__@@AEAY0BAF@_WK@?$__crt_char_traits@_W@@SAKAEAPEAUHINSTANCE__@@AEAY0BAF@_W$$QEAK@Z 0000000140020150 f i libucrtd:dbgrpt.obj
 0001:0001f190       ??$tcscpy_s@AEAY0BAF@D_KPEBD@?$__crt_char_traits@D@@SAHAEAY0BAF@D$$QEA_K$$QEAPEBD@Z 0000000140020190 f i libucrtd:dbgrpt.obj
 0001:0001f1d0       ??$tcscpy_s@AEAY0BAF@_W_KPEB_W@?$__crt_char_traits@_W@@SAHAEAY0BAF@_W$$QEA_K$$QEAPEB_W@Z 00000001400201d0 f i libucrtd:dbgrpt.obj
 0001:0001f210       ??$tcslen@AEAY0BAF@D@?$__crt_char_traits@D@@SA_KAEAY0BAF@D@Z 0000000140020210 f i libucrtd:dbgrpt.obj
 0001:0001f230       ??$tcslen@AEAY0BAF@_W@?$__crt_char_traits@_W@@SA_KAEAY0BAF@_W@Z 0000000140020230 f i libucrtd:dbgrpt.obj
 0001:0001f250       ??$tcslen@AEBQEB_W@?$__crt_char_traits@_W@@SA_KAEBQEB_W@Z 0000000140020250 f i libucrtd:dbgrpt.obj
 0001:0001f2b0       _CrtDbgReport              00000001400202b0 f   libucrtd:dbgrpt.obj
 0001:0001f330       _CrtDbgReportW             0000000140020330 f   libucrtd:dbgrpt.obj
 0001:0001f3b0       __acrt_MessageWindowA      00000001400203b0 f   libucrtd:dbgrpt.obj
 0001:0001f400       __acrt_MessageWindowW      0000000140020400 f   libucrtd:dbgrpt.obj
 0001:0001f450       _snwprintf_s               0000000140020450 f i libucrtd:dbgrpt.obj
 0001:0001f4c0       _vsnwprintf_s_l            00000001400204c0 f i libucrtd:dbgrpt.obj
 0001:0001f550       strncmp                    0000000140020550 f   libucrtd:strncmp.obj
 0001:0001f5d0       wcsncmp                    00000001400205d0 f   libucrtd:wcsncmp.obj
 0001:0001f660       free                       0000000140020660 f   libucrtd:free.obj
 0001:0001f690       malloc                     0000000140020690 f   libucrtd:malloc.obj
 0001:00020000       __acrt_getptd              0000000140021000 f   libucrtd:per_thread_data.obj
 0001:00020030       __acrt_getptd_head         0000000140021030 f   libucrtd:per_thread_data.obj
 0001:00020060       __acrt_getptd_noexit       0000000140021060 f   libucrtd:per_thread_data.obj
 0001:00020070       __acrt_getptd_noexit_explicit 0000000140021070 f   libucrtd:per_thread_data.obj
 0001:000200a0       __acrt_initialize_ptd      00000001400210a0 f   libucrtd:per_thread_data.obj
 0001:000200e0       __acrt_uninitialize_ptd    00000001400210e0 f   libucrtd:per_thread_data.obj
 0001:00020110       _set_error_mode            0000000140021110 f   libucrtd:set_error_mode.obj
 0001:000208a0       wcscat_s                   00000001400218a0 f   libucrtd:wcscat_s.obj
 0001:00020dd0       wcscpy_s                   0000000140021dd0 f   libucrtd:wcscpy_s.obj
 0001:000214b0       wcsncpy_s                  00000001400224b0 f   libucrtd:wcsncpy_s.obj
 0001:000227f0       ??1?$__crt_simd_cleanup_guard@$00@@QEAA@XZ 00000001400237f0 f i libucrtd:strnlen.obj
 0001:00022800       ?compare_equals@?$__crt_simd_traits@$00E@@SA?AT__m256i@@T2@0@Z 0000000140023800 f i libucrtd:strnlen.obj
 0001:00022840       ?compare_equals@?$__crt_simd_traits@$00G@@SA?AT__m256i@@T2@0@Z 0000000140023840 f i libucrtd:strnlen.obj
 0001:00022880       ?compare_equals@?$__crt_simd_traits@$0A@E@@SA?AT__m128i@@T2@0@Z 0000000140023880 f i libucrtd:strnlen.obj
 0001:000228b0       ?compare_equals@?$__crt_simd_traits@$0A@G@@SA?AT__m128i@@T2@0@Z 00000001400238b0 f i libucrtd:strnlen.obj
 0001:000228e0       ?compute_byte_mask@?$__crt_simd_pack_traits@$00@@SAHT__m256i@@@Z 00000001400238e0 f i libucrtd:strnlen.obj
 0001:00022900       ?compute_byte_mask@?$__crt_simd_pack_traits@$0A@@@SAHT__m128i@@@Z 0000000140023900 f i libucrtd:strnlen.obj
 0001:00022920       ?get_zero_pack@?$__crt_simd_pack_traits@$00@@SA?AT__m256i@@XZ 0000000140023920 f i libucrtd:strnlen.obj
 0001:00022950       ?get_zero_pack@?$__crt_simd_pack_traits@$0A@@@SA?AT__m128i@@XZ 0000000140023950 f i libucrtd:strnlen.obj
 0001:00022970       strnlen                    0000000140023970 f   libucrtd:strnlen.obj
 0001:000229a0       wcslen                     00000001400239a0 f   libucrtd:strnlen.obj
 0001:000229c0       wcsnlen                    00000001400239c0 f   libucrtd:strnlen.obj
 0001:00022b30       ??$message_box@$$TAEBQEB_WAEBQEB_WK@?$__crt_char_traits@_W@@SAH$$QEA$$TAEBQEB_W1$$QEAK@Z 0000000140023b30 f i libucrtd:crtmbox.obj
 0001:00022b30       ??$message_box@PEAUHWND__@@AEBQEB_WAEBQEB_WAEBI@?$__crt_char_traits@_W@@SAH$$QEAPEAUHWND__@@AEBQEB_W1AEBI@Z 0000000140023b30 f i libucrtd:crtmbox.obj
 0001:00022b80       ??$output_debug_string@AEBQEB_W@?$__crt_char_traits@_W@@SAXAEBQEB_W@Z 0000000140023b80 f i libucrtd:crtmbox.obj
 0001:00022ba0       __acrt_show_wide_message_box 0000000140023ba0 f   libucrtd:crtmbox.obj
 0001:00022bd0       ?get_doserrno@__crt_cached_ptd_host@@QEAA@XZ 0000000140023bd0 f i libucrtd:errno.obj
 0001:00022be0       __acrt_errno_from_os_error 0000000140023be0 f   libucrtd:errno.obj
 0001:00022c70       __acrt_errno_map_os_error  0000000140023c70 f   libucrtd:errno.obj
 0001:00022ca0       __acrt_errno_map_os_error_ptd 0000000140023ca0 f   libucrtd:errno.obj
 0001:00022d00       __doserrno                 0000000140023d00 f   libucrtd:errno.obj
 0001:00022d30       _errno                     0000000140023d30 f   libucrtd:errno.obj
 0001:00022d90       ??$__acrt_convert_wcs_mbs_cp@D_WV<lambda_7c9dea7b4ca7285d2cdb541a38da6275>@@U__crt_win32_buffer_internal_dynamic_resizing@@@@YAHQEBDAEAV?$__crt_win32_buffer@_WU__crt_win32_buffer_internal_dynamic_resizing@@@@AEBV<lambda_7c9dea7b4ca7285d2cdb541a38da6275>@@I@Z 0000000140023d90 f i libucrtd:argv_wildcards.obj
 0001:00022f40       ??$__acrt_convert_wcs_mbs_cp@_WDV<lambda_d8593a27d1aa8c02be35c86a17d324c4>@@U__crt_win32_buffer_internal_dynamic_resizing@@@@YAHQEB_WAEAV?$__crt_win32_buffer@DU__crt_win32_buffer_internal_dynamic_resizing@@@@AEBV<lambda_d8593a27d1aa8c02be35c86a17d324c4>@@I@Z 0000000140023f40 f i libucrtd:argv_wildcards.obj
 0001:000230f0       ??$__acrt_mbs_to_wcs_cp@U__crt_win32_buffer_internal_dynamic_resizing@@@@YAHQEBDAEAV?$__crt_win32_buffer@_WU__crt_win32_buffer_internal_dynamic_resizing@@@@I@Z 00000001400240f0 f i libucrtd:argv_wildcards.obj
 0001:00023140       ??$__acrt_wcs_to_mbs_cp@U__crt_win32_buffer_internal_dynamic_resizing@@@@YAHQEB_WAEAV?$__crt_win32_buffer@DU__crt_win32_buffer_internal_dynamic_resizing@@@@I@Z 0000000140024140 f i libucrtd:argv_wildcards.obj
 0001:00023b80       ??$tcsncpy_s@AEAPEAD_KAEAPEADAEB_K@?$__crt_char_traits@D@@SAHAEAPEAD$$QEA_K0AEB_K@Z 0000000140024b80 f i libucrtd:argv_wildcards.obj
 0001:00023b80       ??$tcsncpy_s@PEADAEB_KAEBQEBDAEB_K@?$__crt_char_traits@D@@SAH$$QEAPEADAEB_KAEBQEBD1@Z 0000000140024b80 f i libucrtd:argv_wildcards.obj
 0001:00023b80       ??$tcsncpy_s@PEAD_KAEBQEBDAEB_K@?$__crt_char_traits@D@@SAH$$QEAPEAD$$QEA_KAEBQEBDAEB_K@Z 0000000140024b80 f i libucrtd:argv_wildcards.obj
 0001:00023bd0       ??$tcspbrk@AEAPEADAEAY02$$CBD@?$__crt_char_traits@D@@SAPEADAEAPEADAEAY02$$CBD@Z 0000000140024bd0 f i libucrtd:argv_wildcards.obj
 0001:00023c00       ??0?$__crt_win32_buffer@DU__crt_win32_buffer_internal_dynamic_resizing@@@@QEAA@XZ 0000000140024c00 f i libucrtd:argv_wildcards.obj
 0001:00023c00       ??0?$__crt_win32_buffer@_WU__crt_win32_buffer_internal_dynamic_resizing@@@@QEAA@XZ 0000000140024c00 f i libucrtd:argv_wildcards.obj
 0001:00023ca0       ??1?$__crt_unique_handle_t@U__crt_findfile_traits@@@@QEAA@XZ 0000000140024ca0 f i libucrtd:argv_wildcards.obj
 0001:00023cc0       ??1?$__crt_win32_buffer@DU__crt_win32_buffer_internal_dynamic_resizing@@@@QEAA@XZ 0000000140024cc0 f i libucrtd:argv_wildcards.obj
 0001:00023cc0       ??1?$__crt_win32_buffer@_WU__crt_win32_buffer_internal_dynamic_resizing@@@@QEAA@XZ 0000000140024cc0 f i libucrtd:argv_wildcards.obj
 0001:00023d70       ??R<lambda_7c9dea7b4ca7285d2cdb541a38da6275>@@QEBA@IQEBDQEA_W_K@Z 0000000140024d70 f i libucrtd:argv_wildcards.obj
 0001:00023e50       ??R<lambda_d8593a27d1aa8c02be35c86a17d324c4>@@QEBA@IQEB_WQEAD_K@Z 0000000140024e50 f i libucrtd:argv_wildcards.obj
 0001:00023e50       ??R<lambda_f788ae46380686e8b737efdd8c720d07>@@QEBA@IQEB_WQEAD_K@Z 0000000140024e50 f i libucrtd:getmodulefilenamea.obj
 0001:00023eb0       ?__acrt_get_utf8_acp_compatibility_codepage@@YAIXZ 0000000140024eb0 f i libucrtd:argv_wildcards.obj
 0001:00023f50       ?_deallocate@?$__crt_win32_buffer@DU__crt_win32_buffer_internal_dynamic_resizing@@@@AEAAXXZ 0000000140024f50 f i libucrtd:argv_wildcards.obj
 0001:00023f50       ?_deallocate@?$__crt_win32_buffer@_WU__crt_win32_buffer_internal_dynamic_resizing@@@@AEAAXXZ 0000000140024f50 f i libucrtd:argv_wildcards.obj
 0001:00023fa0       ?allocate@?$__crt_win32_buffer@DU__crt_win32_buffer_internal_dynamic_resizing@@@@QEAAH_K@Z 0000000140024fa0 f i libucrtd:argv_wildcards.obj
 0001:00024020       ?allocate@?$__crt_win32_buffer@_WU__crt_win32_buffer_internal_dynamic_resizing@@@@QEAAH_K@Z 0000000140025020 f i libucrtd:argv_wildcards.obj
 0001:000240b0       ?allocate@__crt_win32_buffer_internal_dynamic_resizing@@SAHQEAPEAX_KAEBV__crt_win32_buffer_empty_debug_info@@@Z 00000001400250b0 f i libucrtd:argv_wildcards.obj
 0001:00024180       ?capacity@?$__crt_win32_buffer@DU__crt_win32_buffer_internal_dynamic_resizing@@@@QEBA_KXZ 0000000140025180 f i libucrtd:argv_wildcards.obj
 0001:00024180       ?capacity@?$__crt_win32_buffer@DU__crt_win32_buffer_no_resizing@@@@QEBA_KXZ 0000000140025180 f i libucrtd:getmodulefilenamea.obj
 0001:00024180       ?capacity@?$__crt_win32_buffer@_WU__crt_win32_buffer_internal_dynamic_resizing@@@@QEBA_KXZ 0000000140025180 f i libucrtd:argv_wildcards.obj
 0001:00024190       ?close@?$__crt_unique_handle_t@U__crt_findfile_traits@@@@QEAAXXZ 0000000140025190 f i libucrtd:argv_wildcards.obj
 0001:000241d0       ?close@__crt_findfile_traits@@SA_NPEAX@Z 00000001400251d0 f i libucrtd:argv_wildcards.obj
 0001:00024210       ?data@?$__crt_win32_buffer@DU__crt_win32_buffer_internal_dynamic_resizing@@@@QEAAPEADXZ 0000000140025210 f i libucrtd:argv_wildcards.obj
 0001:00024210       ?data@?$__crt_win32_buffer@DU__crt_win32_buffer_no_resizing@@@@QEAAPEADXZ 0000000140025210 f i libucrtd:getmodulefilenamea.obj
 0001:00024210       ?data@?$__crt_win32_buffer@_WU__crt_win32_buffer_internal_dynamic_resizing@@@@QEAAPEA_WXZ 0000000140025210 f i libucrtd:argv_wildcards.obj
 0001:00024220       ?deallocate@__crt_win32_buffer_internal_dynamic_resizing@@SAXQEAXAEBV__crt_win32_buffer_empty_debug_info@@@Z 0000000140025220 f i libucrtd:argv_wildcards.obj
 0001:00024510       ?set_to_nullptr@?$__crt_win32_buffer@DU__crt_win32_buffer_internal_dynamic_resizing@@@@QEAAXXZ 0000000140025510 f i libucrtd:argv_wildcards.obj
 0001:00024510       ?set_to_nullptr@?$__crt_win32_buffer@_WU__crt_win32_buffer_internal_dynamic_resizing@@@@QEAAXXZ 0000000140025510 f i libucrtd:argv_wildcards.obj
 0001:00024550       ?size@?$__crt_win32_buffer@DU__crt_win32_buffer_internal_dynamic_resizing@@@@QEAAX_K@Z 0000000140025550 f i libucrtd:argv_wildcards.obj
 0001:00024550       ?size@?$__crt_win32_buffer@DU__crt_win32_buffer_no_resizing@@@@QEAAX_K@Z 0000000140025550 f i libucrtd:getmodulefilenamea.obj
 0001:00024550       ?size@?$__crt_win32_buffer@_WU__crt_win32_buffer_internal_dynamic_resizing@@@@QEAAX_K@Z 0000000140025550 f i libucrtd:argv_wildcards.obj
 0001:00024590       ?strpbrk@@YAPEADQEADQEBD@Z 0000000140025590 f i libucrtd:argv_wildcards.obj
 0001:000245c0       __acrt_expand_narrow_argv_wildcards 00000001400255c0 f   libucrtd:argv_wildcards.obj
 0001:000245f0       ??$__acrt_convert_wcs_mbs_cp@_WDV<lambda_f788ae46380686e8b737efdd8c720d07>@@U__crt_win32_buffer_no_resizing@@@@YAHQEB_WAEAV?$__crt_win32_buffer@DU__crt_win32_buffer_no_resizing@@@@AEBV<lambda_f788ae46380686e8b737efdd8c720d07>@@I@Z 00000001400255f0 f i libucrtd:getmodulefilenamea.obj
 0001:000247a0       ??$__acrt_wcs_to_mbs_cp@U__crt_win32_buffer_no_resizing@@@@YAHQEB_WAEAV?$__crt_win32_buffer@DU__crt_win32_buffer_no_resizing@@@@I@Z 00000001400257a0 f i libucrtd:getmodulefilenamea.obj
 0001:000247f0       ??0?$__crt_win32_buffer@DU__crt_win32_buffer_no_resizing@@@@QEAA@QEAD_K@Z 00000001400257f0 f i libucrtd:getmodulefilenamea.obj
 0001:00024860       ??1?$__crt_win32_buffer@DU__crt_win32_buffer_no_resizing@@@@QEAA@XZ 0000000140025860 f i libucrtd:getmodulefilenamea.obj
 0001:00024890       ?_deallocate@?$__crt_win32_buffer@DU__crt_win32_buffer_no_resizing@@@@AEAAXXZ 0000000140025890 f i libucrtd:getmodulefilenamea.obj
 0001:000248e0       ?allocate@?$__crt_win32_buffer@DU__crt_win32_buffer_no_resizing@@@@QEAAH_K@Z 00000001400258e0 f i libucrtd:getmodulefilenamea.obj
 0001:00024960       ?allocate@__crt_win32_buffer_no_resizing@@SAHQEAPEAX_KAEBV__crt_win32_buffer_empty_debug_info@@@Z 0000000140025960 f i libucrtd:getmodulefilenamea.obj
 0001:00024990       ?deallocate@__crt_win32_buffer_no_resizing@@SAXQEAXAEBV__crt_win32_buffer_empty_debug_info@@@Z 0000000140025990 f i libucrtd:getmodulefilenamea.obj
 0001:000249a0       ?set_to_nullptr@?$__crt_win32_buffer@DU__crt_win32_buffer_no_resizing@@@@QEAAXXZ 00000001400259a0 f i libucrtd:getmodulefilenamea.obj
 0001:000249e0       ?size@?$__crt_win32_buffer@DU__crt_win32_buffer_no_resizing@@@@QEBA_KXZ 00000001400259e0 f i libucrtd:getmodulefilenamea.obj
 0001:000249f0       __acrt_GetModuleFileNameA  00000001400259f0 f   libucrtd:getmodulefilenamea.obj
 0001:00024b70       ??$initialize_from_array@$$BY10BAA@E@?$dual_state_global@PEAE@__crt_state_management@@QEAAXAEAY10BAA@E@Z 0000000140025b70 f i libucrtd:mbctype.obj
 0001:00024be0       ??$initialize_from_array@$$BY10BAB@E@?$dual_state_global@PEAE@__crt_state_management@@QEAAXAEAY10BAB@E@Z 0000000140025be0 f i libucrtd:mbctype.obj
 0001:00025780       __acrt_initialize_multibyte 0000000140026780 f   libucrtd:mbctype.obj
 0001:00025850       __acrt_should_sync_with_global_locale 0000000140026850 f i libucrtd:mbctype.obj
 0001:00025890       __acrt_update_thread_multibyte_data 0000000140026890 f   libucrtd:mbctype.obj
 0001:000258d0       _setmbcp_nolock            00000001400268d0 f   libucrtd:mbctype.obj
 0001:00025fc0       _ismbblead                 0000000140026fc0 f   libucrtd:ismbbyte.obj
 0001:00025ff0       __acrt_initialize_command_line 0000000140026ff0 f   libucrtd:argv_data.obj
 0001:00026130       __acrt_MultiByteToWideChar 0000000140027130 f   libucrtd:multibytetowidechar.obj
 0001:000262a0       __acrt_WideCharToMultiByte 00000001400272a0 f   libucrtd:widechartomultibyte.obj
 0001:000264e0       __dcrt_get_narrow_environment_from_os 00000001400274e0 f   libucrtd:get_environment_from_os.obj
 0001:00026710       __acrt_initialize_locks    0000000140027710 f   libucrtd:locks.obj
 0001:00026780       __acrt_lock                0000000140027780 f   libucrtd:locks.obj
 0001:000267b0       __acrt_uninitialize_locks  00000001400277b0 f   libucrtd:locks.obj
 0001:00026810       __acrt_unlock              0000000140027810 f   libucrtd:locks.obj
 0001:00026840       __acrt_app_verifier_enabled 0000000140027840 f   libucrtd:peb_access.obj
 0001:00026880       __acrt_is_secure_process   0000000140027880 f   libucrtd:peb_access.obj
 0001:00026b70       __acrt_get_developer_information_policy 0000000140027b70 f   libucrtd:win_policies.obj
 0001:00026b90       __acrt_get_process_end_policy 0000000140027b90 f   libucrtd:win_policies.obj
 0001:00026ba0       __acrt_get_windowing_model_policy 0000000140027ba0 f   libucrtd:win_policies.obj
 0001:00026bc0       __acrt_lowio_create_handle_array 0000000140027bc0 f   libucrtd:osfinfo.obj
 0001:00026d80       __acrt_lowio_destroy_handle_array 0000000140027d80 f   libucrtd:osfinfo.obj
 0001:00026e00       __acrt_lowio_ensure_fh_exists 0000000140027e00 f   libucrtd:osfinfo.obj
 0001:00026f60       __acrt_lowio_lock_fh       0000000140027f60 f   libucrtd:osfinfo.obj
 0001:00026fa0       __acrt_lowio_unlock_fh     0000000140027fa0 f   libucrtd:osfinfo.obj
 0001:00026fe0       _free_osfhnd               0000000140027fe0 f   libucrtd:osfinfo.obj
 0001:00027110       _get_osfhandle             0000000140028110 f   libucrtd:osfinfo.obj
 0001:00027310       __acrt_initialize_fmode    0000000140028310 f   libucrtd:txtmode.obj
 0001:00027710       __acrt_initialize_lowio    0000000140028710 f   libucrtd:ioinit.obj
 0001:00027760       __acrt_uninitialize_lowio  0000000140028760 f   libucrtd:ioinit.obj
 0001:000277e0       __acrt_locale_free_monetary 00000001400287e0 f   libucrtd:initmon.obj
 0001:000279f0       __acrt_locale_free_numeric 00000001400289f0 f   libucrtd:initnum.obj
 0001:00027b90       __acrt_locale_free_time    0000000140028b90 f   libucrtd:inittime.obj
 0001:00027d00       _chvalidator_l             0000000140028d00 f   libucrtd:isctype.obj
 0001:00027db0       _isctype_l                 0000000140028db0 f   libucrtd:isctype.obj
 0001:00027fe0       _isleadbyte_fast_internal  0000000140028fe0 f i libucrtd:isctype.obj
 0001:00028010       ??1?$__crt_scoped_stack_ptr@_W@@QEAA@XZ 0000000140029010 f i libucrtd:getstringtypea.obj
 0001:00028030       _MallocaComputeSize        0000000140029030 f i libucrtd:getstringtypea.obj
 0001:00028070       _MarkAllocaS               0000000140029070 f i libucrtd:getstringtypea.obj
 0001:000280a0       __acrt_GetStringTypeA      00000001400290a0 f   libucrtd:getstringtypea.obj
 0001:00028300       _freea_crt                 0000000140029300 f i libucrtd:getstringtypea.obj
 0001:000283a0       __acrt_add_locale_ref      00000001400293a0 f   libucrtd:locale_refcounting.obj
 0001:00028500       __acrt_free_locale         0000000140029500 f   libucrtd:locale_refcounting.obj
 0001:00028880       __acrt_locale_add_lc_time_reference 0000000140029880 f   libucrtd:locale_refcounting.obj
 0001:000288c0       __acrt_locale_free_lc_time_if_unreferenced 00000001400298c0 f   libucrtd:locale_refcounting.obj
 0001:00028920       __acrt_locale_release_lc_time_reference 0000000140029920 f   libucrtd:locale_refcounting.obj
 0001:00028960       __acrt_release_locale_ref  0000000140029960 f   libucrtd:locale_refcounting.obj
 0001:00028ad0       __acrt_update_thread_locale_data 0000000140029ad0 f   libucrtd:locale_refcounting.obj
 0001:00028b70       _updatetlocinfoEx_nolock   0000000140029b70 f   libucrtd:locale_refcounting.obj
 0001:000292c0       GetCurrentThreadEffectiveToken 000000014002a2c0 f i libucrtd:winapi_thunks.obj
 0001:000292d0       __acrt_AppPolicyGetProcessTerminationMethodInternal 000000014002a2d0 f   libucrtd:winapi_thunks.obj
 0001:00029330       __acrt_AppPolicyGetShowDeveloperDiagnosticInternal 000000014002a330 f   libucrtd:winapi_thunks.obj
 0001:00029390       __acrt_AppPolicyGetWindowingModelInternal 000000014002a390 f   libucrtd:winapi_thunks.obj
 0001:000293f0       __acrt_AreFileApisANSI     000000014002a3f0 f   libucrtd:winapi_thunks.obj
 0001:00029440       __acrt_FlsAlloc            000000014002a440 f   libucrtd:winapi_thunks.obj
 0001:00029460       __acrt_FlsFree             000000014002a460 f   libucrtd:winapi_thunks.obj
 0001:00029480       __acrt_FlsGetValue         000000014002a480 f   libucrtd:winapi_thunks.obj
 0001:000294a0       __acrt_FlsSetValue         000000014002a4a0 f   libucrtd:winapi_thunks.obj
 0001:000294d0       __acrt_InitializeCriticalSectionEx 000000014002a4d0 f   libucrtd:winapi_thunks.obj
 0001:00029550       __acrt_LCMapStringEx       000000014002a550 f   libucrtd:winapi_thunks.obj
 0001:00029660       __acrt_LocaleNameToLCID    000000014002a660 f   libucrtd:winapi_thunks.obj
 0001:000296d0       __acrt_MessageBoxW         000000014002a6d0 f   libucrtd:winapi_thunks.obj
 0001:00029750       __acrt_can_show_message_box 000000014002a750 f   libucrtd:winapi_thunks.obj
 0001:00029790       __acrt_get_parent_window   000000014002a790 f   libucrtd:winapi_thunks.obj
 0001:00029830       __acrt_initialize_winapi_thunks 000000014002a830 f   libucrtd:winapi_thunks.obj
 0001:000298b0       __acrt_is_interactive      000000014002a8b0 f   libucrtd:winapi_thunks.obj
 0001:000299c0       __acrt_uninitialize_winapi_thunks 000000014002a9c0 f   libucrtd:winapi_thunks.obj
 0001:00029a60       __acrt_initialize_heap     000000014002aa60 f   libucrtd:heap_handle.obj
 0001:00029a90       __acrt_uninitialize_heap   000000014002aa90 f   libucrtd:heap_handle.obj
 0001:00029ab0       __acrt_execute_initializers 000000014002aab0 f   libucrtd:shared_initialization.obj
 0001:00029bb0       __acrt_execute_uninitializers 000000014002abb0 f   libucrtd:shared_initialization.obj
 0001:00029c40       __acrt_initialize_new_handler 000000014002ac40 f   libucrtd:new_handler.obj
 0001:00029c60       _callnewh                  000000014002ac60 f   libucrtd:new_handler.obj
 0001:00029cc0       _query_new_handler         000000014002acc0 f   libucrtd:new_handler.obj
 0001:00029ed0       __acrt_get_sigabrt_handler 000000014002aed0 f   libucrtd:signal.obj
 0001:00029f00       __acrt_initialize_signal_handlers 000000014002af00 f   libucrtd:signal.obj
 0001:00029f60       __fpecode                  000000014002af60 f   libucrtd:signal.obj
 0001:00029f80       raise                      000000014002af80 f   libucrtd:signal.obj
 0001:0002a490       ?has_any_of@__crt_stdio_stream@@QEBA_NJ@Z 000000014002b490 f i libucrtd:_sftbuf.obj
 0001:0002a4d0       ?set_flags@__crt_stdio_stream@@QEBA_NJ@Z 000000014002b4d0 f i libucrtd:_sftbuf.obj
 0001:0002a540       ?unset_flags@__crt_stdio_stream@@QEBA_NJ@Z 000000014002b540 f i libucrtd:_sftbuf.obj
 0001:0002a5b0       _free_base                 000000014002b5b0 f   libucrtd:free_base.obj
 0001:0002a610       _realloc_base              000000014002b610 f   libucrtd:realloc_base.obj
 0001:0002a730       _expand_base               000000014002b730 f   libucrtd:expand.obj
 0001:0002a8c0       ?value_explicit@?$dual_state_global@PEAU__crt_locale_data@@@__crt_state_management@@QEAAAEAPEAU__crt_locale_data@@_K@Z 000000014002b8c0 f i libucrtd:locale_update.obj
 0001:0002a8c0       ?value_explicit@?$dual_state_global@PEAU__crt_multibyte_data@@@__crt_state_management@@QEAAAEAPEAU__crt_multibyte_data@@_K@Z 000000014002b8c0 f i libucrtd:locale_update.obj
 0001:0002a8e0       __acrt_update_locale_info  000000014002b8e0 f   libucrtd:locale_update.obj
 0001:0002a930       __acrt_update_locale_info_explicit 000000014002b930 f   libucrtd:locale_update.obj
 0001:0002a990       __acrt_update_multibyte_info 000000014002b990 f   libucrtd:locale_update.obj
 0001:0002a9e0       __acrt_update_multibyte_info_explicit 000000014002b9e0 f   libucrtd:locale_update.obj
 0001:0002aa40       _CrtDefaultAllocHook       000000014002ba40 f   libucrtd:debug_heap_hook.obj
 0001:0002aa60       _CrtGetDebugFillThreshold  000000014002ba60 f   libucrtd:debug_fill_threshold.obj
 0001:0002aa70       ?__acrt_fp_classify@@YA?AW4__acrt_fp_class@@AEBN@Z 000000014002ba70 f i libucrtd:cvt.obj
 0001:0002ab70       ?__acrt_fp_is_negative@@YA_NAEBN@Z 000000014002bb70 f i libucrtd:cvt.obj
 0001:0002c490       ?strrchr@@YAPEADQEADH@Z    000000014002d490 f i libucrtd:cvt.obj
 0001:0002c4b0       __acrt_fp_format           000000014002d4b0 f   libucrtd:cvt.obj
 0001:0002cb80       ?value_or@?$cached@H@__crt_cached_ptd_host@@QEBAHH@Z 000000014002db80 f i libucrtd:wctomb.obj
 0001:0002cbb0       _wctomb_internal           000000014002dbb0 f   libucrtd:wctomb.obj
 0001:0002d110       _mbtowc_internal           000000014002e110 f   libucrtd:mbtowc.obj
 0001:0002d4a0       ?lowio_handle@__crt_stdio_stream@@QEBAHXZ 000000014002e4a0 f i libucrtd:fileno.obj
 0001:0002d4d0       _fileno                    000000014002e4d0 f   libucrtd:fileno.obj
 0001:0002d5b0       __acrt_initialize_stdio    000000014002e5b0 f   libucrtd:_file.obj
 0001:0002d7a0       __acrt_uninitialize_stdio  000000014002e7a0 f   libucrtd:_file.obj
 0001:0002d830       _lock_file                 000000014002e830 f   libucrtd:_file.obj
 0001:0002d870       _unlock_file               000000014002e870 f   libucrtd:_file.obj
 0001:0002d8b0       _get_printf_count_output   000000014002e8b0 f   libucrtd:printf_count_output.obj
 0001:0002d8e0       _VCrtDbgReportA            000000014002e8e0 f   libucrtd:dbgrptt.obj
 0001:0002e320       _VCrtDbgReportW            000000014002f320 f   libucrtd:dbgrptt.obj
 0001:0002ef30       _snprintf_s                000000014002ff30 f i libucrtd:dbgrptt.obj
 0001:0002efa0       _vsnprintf_s               000000014002ffa0 f i libucrtd:dbgrptt.obj
 0001:0002eff0       _vsnprintf_s_l             000000014002fff0 f i libucrtd:dbgrptt.obj
 0001:0002f070       __acrt_OutputDebugStringA  0000000140030070 f   libucrtd:outputdebugstringa.obj
 0001:0002f2c0       qsort                      00000001400302c0 f   libucrtd:qsort.obj
 0001:00030130       strncpy_s                  0000000140031130 f   libucrtd:strncpy_s.obj
 0001:000302a0       strpbrk                    00000001400312a0 f   libucrtd:strpbrk.obj
 0001:00030b90       _mbsdec                    0000000140031b90 f   libucrtd:mbsdec.obj
 0001:00030bc0       _mbsdec_l                  0000000140031bc0 f   libucrtd:mbsdec.obj
 0001:00031450       __acrt_LCMapStringA        0000000140032450 f   libucrtd:lcmapstringa.obj
 0001:00032120       _itoa_s                    0000000140033120 f   libucrtd:xtoa.obj
 0001:00032180       _itow_s                    0000000140033180 f   libucrtd:xtoa.obj
 0001:000321e0       __ascii_wcsnicmp           00000001400331e0 f   libucrtd:wcsnicmp.obj
 0001:00032360       __acrt_DownlevelLocaleNameToLCID 0000000140033360 f   libucrtd:lcidtoname_downlevel.obj
 0001:000323c0       _isatty                    00000001400333c0 f   libucrtd:isatty.obj
 0001:00032870       ?__acrt_stdio_reset_buffer@@YAXV__crt_stdio_stream@@@Z 0000000140033870 f i libucrtd:fflush.obj
 0001:00032a40       ?has_all_of@__crt_stdio_stream@@QEBA_NJ@Z 0000000140033a40 f i libucrtd:fflush.obj
 0001:00032b20       __acrt_stdio_flush_nolock  0000000140033b20 f   libucrtd:fflush.obj
 0001:00032c40       _fflush_nolock             0000000140033c40 f   libucrtd:fflush.obj
 0001:00032c80       _flushall                  0000000140033c80 f   libucrtd:fflush.obj
 0001:00032c90       _malloc_base               0000000140033c90 f   libucrtd:malloc_base.obj
 0001:00032ef0       __acrt_fp_strflt_to_string 0000000140033ef0 f   libucrtd:_fptostr.obj
 0001:00033ab0       ??0big_integer@__crt_strtox@@QEAA@AEBU01@@Z 0000000140034ab0 f i libucrtd:cfout.obj
 0001:00033ab0       ??4big_integer@__crt_strtox@@QEAAAEAU01@AEBU01@@Z 0000000140034ab0 f i libucrtd:cfout.obj
 0001:00033b10       ??0big_integer@__crt_strtox@@QEAA@XZ 0000000140034b10 f i libucrtd:cfout.obj
 0001:00033c60       ??8__crt_strtox@@YA_NAEBUbig_integer@0@0@Z 0000000140034c60 f i libucrtd:cfout.obj
 0001:00033cd0       ??9__crt_strtox@@YA_NAEBUbig_integer@0@0@Z 0000000140034cd0 f i libucrtd:cfout.obj
 0001:00033d10       ?add_carry@__crt_strtox@@YAIAEAIII@Z 0000000140034d10 f i libucrtd:cfout.obj
 0001:00033d60       ?add_multiply_carry@__crt_strtox@@YAIAEAIIII@Z 0000000140034d60 f i libucrtd:cfout.obj
 0001:00033dc0       ?bit_scan_reverse@__crt_strtox@@YAII@Z 0000000140034dc0 f i libucrtd:cfout.obj
 0001:00033e00       ?count_sequential_high_zeroes@__crt_strtox@@YAII@Z 0000000140034e00 f i libucrtd:cfout.obj
 0001:00033e40       ?divide@__crt_strtox@@YA_KAEAUbig_integer@1@AEBU21@@Z 0000000140034e40 f i libucrtd:cfout.obj
 0001:00034810       ?is_zero@__crt_strtox@@YA_NAEBUbig_integer@1@@Z 0000000140035810 f i libucrtd:cfout.obj
 0001:00034840       ?make_big_integer@__crt_strtox@@YA?AUbig_integer@1@_K@Z 0000000140035840 f i libucrtd:cfout.obj
 0001:00034910       ?make_big_integer_power_of_two@__crt_strtox@@YA?AUbig_integer@1@I@Z 0000000140035910 f i libucrtd:cfout.obj
 0001:000349e0       ?multiply@__crt_strtox@@YA_NAEAUbig_integer@1@AEBU21@@Z 00000001400359e0 f i libucrtd:cfout.obj
 0001:00034d60       ?multiply@__crt_strtox@@YA_NAEAUbig_integer@1@I@Z 0000000140035d60 f i libucrtd:cfout.obj
 0001:00034e80       ?multiply_64_32@__crt_strtox@@YA_K_KI@Z 0000000140035e80 f i libucrtd:cfout.obj
 0001:00034ea0       ?multiply_by_power_of_ten@__crt_strtox@@YA_NAEAUbig_integer@1@I@Z 0000000140035ea0 f i libucrtd:cfout.obj
 0001:00035050       ?multiply_core@__crt_strtox@@YAIQEAIII@Z 0000000140036050 f i libucrtd:cfout.obj
 0001:000350d0       ?shift_left@__crt_strtox@@YA_NAEAUbig_integer@1@I@Z 00000001400360d0 f i libucrtd:cfout.obj
 0001:000353b0       __acrt_fltout              00000001400363b0 f   libucrtd:cfout.obj
 0001:00035790       fegetround                 0000000140036790 f   libucrtd:fegetround.obj
 0001:000357b0       ?__c32rtomb_utf8@__crt_mbstring@@YA_KPEAD_UPEAU_Mbstatet@@AEAV__crt_cached_ptd_host@@@Z 00000001400367b0 f   libucrtd:c32rtomb.obj
 0001:00035ac0       ?__mbrtowc_utf8@__crt_mbstring@@YA_KPEA_WPEBD_KPEAU_Mbstatet@@AEAV__crt_cached_ptd_host@@@Z 0000000140036ac0 f   libucrtd:mbrtowc.obj
 0001:00035b40       ?__mbsrtowcs_utf8@__crt_mbstring@@YA_KPEA_WPEAPEBD_KPEAU_Mbstatet@@AEAV__crt_cached_ptd_host@@@Z 0000000140036b40 f   libucrtd:mbrtowc.obj
 0001:00035e90       ?is_in_use@__crt_stdio_stream@@QEBA_NXZ 0000000140036e90 f i libucrtd:closeall.obj
 0001:00035ed0       _fcloseall                 0000000140036ed0 f   libucrtd:closeall.obj
 0001:00035fe0       ?has_crt_buffer@__crt_stdio_stream@@QEBA_NXZ 0000000140036fe0 f i libucrtd:_freebuf.obj
 0001:00036000       __acrt_stdio_free_buffer_nolock 0000000140037000 f   libucrtd:_freebuf.obj
 0001:00036bf0       mbstowcs_s                 0000000140037bf0 f   libucrtd:mbstowcs.obj
 0001:00037a60       wcstombs_s                 0000000140038a60 f   libucrtd:wcstombs.obj
 0001:00038150       strcat_s                   0000000140039150 f   libucrtd:strcat_s.obj
 0001:00038180       __strncnt                  0000000140039180 f   libucrtd:strncnt.obj
 0001:000383a0       _commit                    00000001400393a0 f   libucrtd:commit.obj
 0001:00039d90       _utf8_no_of_trailbytes     000000014003ad90 f i libucrtd:write.obj
 0001:00039db0       _write_internal            000000014003adb0 f   libucrtd:write.obj
 0001:0003a150       _write_nolock              000000014003b150 f   libucrtd:write.obj
 0001:0003a820       log10                      000000014003b820 f   libucrtd:log10.obj
 0001:0003add0       ceil                       000000014003bdd0 f   libucrtd:ceil.obj
 0001:0003afa0       _controlfp_s               000000014003bfa0 f   libucrtd:contrlfp.obj
 0001:0003b0d0       fegetenv                   000000014003c0d0 f   libucrtd:fegetenv.obj
 0001:0003b100       fesetenv                   000000014003c100 f   libucrtd:fesetenv.obj
 0001:0003b180       feholdexcept               000000014003c180 f   libucrtd:feholdexcept.obj
 0001:0003b1f0       ??$__acrt_fenv_shift_bits@W4__acrt_fenv_abstract_control@@@@YA?AW4__acrt_fenv_abstract_control@@W40@0I@Z 000000014003c1f0 f i libucrtd:_fenvutils.obj
 0001:0003b1f0       ??$__acrt_fenv_shift_bits@W4__acrt_fenv_abstract_status@@@@YA?AW4__acrt_fenv_abstract_status@@W40@0I@Z 000000014003c1f0 f i libucrtd:_fenvutils.obj
 0001:0003b220       ??$__acrt_fenv_translate_bit@W4__acrt_fenv_abstract_control@@W4__acrt_fenv_machine_sse_control@@@@YA?AW4__acrt_fenv_abstract_control@@W4__acrt_fenv_machine_sse_control@@0W40@1@Z 000000014003c220 f i libucrtd:_fenvutils.obj
 0001:0003b280       ??$__acrt_fenv_translate_bit@W4__acrt_fenv_abstract_status@@W4__acrt_fenv_machine_sse_status@@@@YA?AW4__acrt_fenv_abstract_status@@W4__acrt_fenv_machine_sse_status@@0W40@1@Z 000000014003c280 f i libucrtd:_fenvutils.obj
 0001:0003b280       ??$__acrt_fenv_translate_bit@W4__acrt_fenv_machine_sse_status@@W4__acrt_fenv_abstract_status@@@@YA?AW4__acrt_fenv_machine_sse_status@@W4__acrt_fenv_abstract_status@@0W40@1@Z 000000014003c280 f i libucrtd:_fenvutils.obj
 0001:0003b2d0       ??$__acrt_fenv_translate_bit@W4__acrt_fenv_machine_sse_control@@W4__acrt_fenv_abstract_control@@@@YA?AW4__acrt_fenv_machine_sse_control@@W4__acrt_fenv_abstract_control@@0W40@1@Z 000000014003c2d0 f i libucrtd:_fenvutils.obj
 0001:0003b330       ??$__acrt_fenv_unshift_bits@W4__acrt_fenv_abstract_control@@@@YA?AW4__acrt_fenv_abstract_control@@W40@0I@Z 000000014003c330 f i libucrtd:_fenvutils.obj
 0001:0003b330       ??$__acrt_fenv_unshift_bits@W4__acrt_fenv_abstract_status@@@@YA?AW4__acrt_fenv_abstract_status@@W40@0I@Z 000000014003c330 f i libucrtd:_fenvutils.obj
 0001:0003b820       ??I@YA?AW4__acrt_fenv_abstract_control@@W40@0@Z 000000014003c820 f i libucrtd:_fenvutils.obj
 0001:0003b820       ??I@YA?AW4__acrt_fenv_abstract_status@@W40@0@Z 000000014003c820 f i libucrtd:_fenvutils.obj
 0001:0003b820       ??I@YA?AW4__acrt_fenv_machine_sse_status@@W40@0@Z 000000014003c820 f i libucrtd:_fenvutils.obj
 0001:0003b840       ??I@YA?AW4__acrt_fenv_machine_sse_control@@W40@0@Z 000000014003c840 f i libucrtd:_fenvutils.obj
 0001:0003b860       ??U@YA?AW4__acrt_fenv_abstract_control@@W40@0@Z 000000014003c860 f i libucrtd:_fenvutils.obj
 0001:0003b860       ??U@YA?AW4__acrt_fenv_abstract_status@@W40@0@Z 000000014003c860 f i libucrtd:_fenvutils.obj
 0001:0003b880       ??U@YA?AW4__acrt_fenv_machine_sse_control@@W40@0@Z 000000014003c880 f i libucrtd:_fenvutils.obj
 0001:0003b8a0       ??_5@YAAEAW4__acrt_fenv_abstract_control@@AEAW40@W40@@Z 000000014003c8a0 f i libucrtd:_fenvutils.obj
 0001:0003b8a0       ??_5@YAAEAW4__acrt_fenv_abstract_status@@AEAW40@W40@@Z 000000014003c8a0 f i libucrtd:_fenvutils.obj
 0001:0003b8a0       ??_5@YAAEAW4__acrt_fenv_machine_sse_status@@AEAW40@W40@@Z 000000014003c8a0 f i libucrtd:_fenvutils.obj
 0001:0003b8d0       ??_5@YAAEAW4__acrt_fenv_machine_sse_control@@AEAW40@W40@@Z 000000014003c8d0 f i libucrtd:_fenvutils.obj
 0001:0003b900       ?__acrt_fenv_shift_abstract_sse_control@@YA?AW4__acrt_fenv_abstract_control@@W41@@Z 000000014003c900 f i libucrtd:_fenvutils.obj
 0001:0003b950       ?__acrt_fenv_shift_abstract_sse_status@@YA?AW4__acrt_fenv_abstract_status@@W41@@Z 000000014003c950 f i libucrtd:_fenvutils.obj
 0001:0003b980       ?__acrt_fenv_unshift_abstract_sse_control@@YA?AW4__acrt_fenv_abstract_control@@W41@@Z 000000014003c980 f i libucrtd:_fenvutils.obj
 0001:0003b9d0       ?__acrt_fenv_unshift_abstract_sse_status@@YA?AW4__acrt_fenv_abstract_status@@W41@@Z 000000014003c9d0 f i libucrtd:_fenvutils.obj
 0001:0003bcc0       __acrt_fenv_get_common_round_control 000000014003ccc0 f   libucrtd:_fenvutils.obj
 0001:0003bce0       __acrt_fenv_get_control    000000014003cce0 f   libucrtd:_fenvutils.obj
 0001:0003bd10       __acrt_fenv_get_status     000000014003cd10 f   libucrtd:_fenvutils.obj
 0001:0003bd40       __acrt_fenv_set_control    000000014003cd40 f   libucrtd:_fenvutils.obj
 0001:0003bd60       __acrt_fenv_set_status     000000014003cd60 f   libucrtd:_fenvutils.obj
 0001:0003bd80       ?reset_and_return@__crt_mbstring@@YA_K_KPEAU_Mbstatet@@@Z 000000014003cd80 f   libucrtd:common_utf8.obj
 0001:0003bdc0       ?return_illegal_sequence@__crt_mbstring@@YA_KPEAU_Mbstatet@@AEAV__crt_cached_ptd_host@@@Z 000000014003cdc0 f   libucrtd:common_utf8.obj
 0001:0003be20       ?__mbrtoc32_utf8@__crt_mbstring@@YA_KPEA_UPEBD_KPEAU_Mbstatet@@AEAV__crt_cached_ptd_host@@@Z 000000014003ce20 f   libucrtd:mbrtoc32.obj
 0001:0003c530       fclose                     000000014003d530 f   libucrtd:fclose.obj
 0001:0003c700       _lseeki64_nolock_internal  000000014003d700 f   libucrtd:lseek.obj
 0001:0003c740       ?__wcsrtombs_utf8@__crt_mbstring@@YA_KPEADPEAPEB_W_KPEAU_Mbstatet@@AEAV__crt_cached_ptd_host@@@Z 000000014003d740 f   libucrtd:wcrtomb.obj
 0001:0003c9c0       _putwch_nolock             000000014003d9c0 f   libucrtd:putwch.obj
 0001:0003ca10       __acrt_initialize_fma3     000000014003da10 f   libucrtd:fma3_available.obj
 0001:0003cac0       _log10_special             000000014003dac0 f   libucrtd:log_special.obj
 0001:0003ce00       _handle_error              000000014003de00 f   libucrtd:libm_error.obj
 0001:0003cf90       _handle_nan                000000014003df90 f   libucrtd:libm_error.obj
 0001:0003d1d0       _clearfp                   000000014003e1d0 f   libucrtd:ieee.obj
 0001:0003d1f0       _control87                 000000014003e1f0 f   libucrtd:ieee.obj
 0001:0003d6e0       _close_internal            000000014003e6e0 f   libucrtd:close.obj
 0001:0003d9a0       _close_nolock_internal     000000014003e9a0 f   libucrtd:close.obj
 0001:0003da10       ?__acrt_stdio_free_stream@@YAXV__crt_stdio_stream@@@Z 000000014003ea10 f   libucrtd:stream.obj
 0001:0003dab0       ?deallocate@__crt_stdio_stream@@QEAAXXZ 000000014003eab0 f i libucrtd:stream.obj
 0001:0003dad0       ?__c16rtomb_utf8@__crt_mbstring@@YA_KPEAD_SPEAU_Mbstatet@@AEAV__crt_cached_ptd_host@@@Z 000000014003ead0 f   libucrtd:c16rtomb.obj
 0001:0003de50       __dcrt_lowio_ensure_console_output_initialized 000000014003ee50 f   libucrtd:initcon.obj
 0001:0003de80       __dcrt_terminate_console_output 000000014003ee80 f   libucrtd:initcon.obj
 0001:0003deb0       __dcrt_write_console       000000014003eeb0 f   libucrtd:initcon.obj
 0001:0003def0       _raise_exc                 000000014003eef0 f   libucrtd:fpexcept.obj
 0001:0003df50       _raise_exc_ex              000000014003ef50 f   libucrtd:fpexcept.obj
 0001:0003e5d0       _set_errno_from_matherr    000000014003f5d0 f   libucrtd:fpexcept.obj
 0001:0003e620       _clrfp                     000000014003f620 f   libucrtd:fpctrl.obj
 0001:0003e650       _ctrlfp                    000000014003f650 f   libucrtd:fpctrl.obj
 0001:0003e700       _set_statfp                000000014003f700 f   libucrtd:fpctrl.obj
 0001:0003e740       _statfp                    000000014003f740 f   libucrtd:fpctrl.obj
 0001:0003e780       _get_fpsr                  000000014003f780 f   libucrtd:fpsr.obj
 0001:0003e790       _set_fpsr                  000000014003f790 f   libucrtd:fpsr.obj
 0001:0003e79a       _fclrf                     000000014003f79a f   libucrtd:fpsr.obj
 0001:0003e7ae       _frnd                      000000014003f7ae f   libucrtd:fpsr.obj
 0001:0003e7d0       _FindPESection             000000014003f7d0 f   LIBCMTD:pesect.obj
 0001:0003e880       _IsNonwritableInCurrentImage 000000014003f880 f   LIBCMTD:pesect.obj
 0001:0003e910       _ValidateImageBase         000000014003f910 f   LIBCMTD:pesect.obj
 0001:0003e990       ??1type_info@@UEAA@XZ      000000014003f990 f   LIBCMTD:std_type_info_static.obj
 0001:0003e9b0       ??_Etype_info@@UEAAPEAXI@Z 000000014003f9b0 f i LIBCMTD:std_type_info_static.obj
 0001:0003e9b0       ??_Gtype_info@@UEAAPEAXI@Z 000000014003f9b0 f i LIBCMTD:std_type_info_static.obj
 0001:0003e9f0       ??3@YAXPEAX_K@Z            000000014003f9f0 f   LIBCMTD:delete_scalar_size.obj
 0001:0003ea10       __GSHandlerCheck_SEH       000000014003fa10 f   LIBCMTD:gshandlerseh.obj
 0001:0003ead0       __GSHandlerCheck_EH        000000014003fad0 f   LIBCMTD:gshandlereh.obj
 0001:0003eb80       ??3@YAXPEAX@Z              000000014003fb80 f   LIBCMTD:delete_scalar.obj
 0001:0003eba0       __C_specific_handler_noexcept 000000014003fba0 f   libvcruntimed:chandler_noexcept.obj
 0001:0003ec30       strrchr                    000000014003fc30 f   libvcruntimed:strrchr.obj
 0001:0003f060       _guard_dispatch_icall_nop  0000000140040060 f   LIBCMTD:guard_dispatch.obj
 0001:0003f080       _guard_xfg_dispatch_icall_nop 0000000140040080 f   LIBCMTD:guard_xfg_dispatch.obj
 0001:0003f0b0       memcpy_repmovs             00000001400400b0 f   libvcruntimed:memcpy.obj
 0001:0003f0c0       memcpy                     00000001400400c0 f   libvcruntimed:memcpy.obj
 0001:0003f0c0       memcpy_$fo_default$        00000001400400c0     libvcruntimed:memcpy.obj
 0001:0003f0c0       memmove                    00000001400400c0 f   libvcruntimed:memcpy.obj
 0001:0003f750       memset_repstos             0000000140040750 f   libvcruntimed:memset.obj
 0001:0003f760       memset                     0000000140040760 f   libvcruntimed:memset.obj
 0002:00000000       __imp_PatBlt               0000000140042000     gdi32:GDI32.dll
 0002:00000008       __imp_GetDeviceCaps        0000000140042008     gdi32:GDI32.dll
 0002:00000010       __imp_StretchDIBits        0000000140042010     gdi32:GDI32.dll
 0002:00000018       \177GDI32_NULL_THUNK_DATA  0000000140042018     gdi32:GDI32.dll
 0002:00000020       __imp_GetConsoleOutputCP   0000000140042020     kernel32:KERNEL32.dll
 0002:00000028       __imp_FlushFileBuffers     0000000140042028     kernel32:KERNEL32.dll
 0002:00000030       __imp_SetFilePointerEx     0000000140042030     kernel32:KERNEL32.dll
 0002:00000038       __imp_WriteConsoleW        0000000140042038     kernel32:KERNEL32.dll
 0002:00000040       __imp_HeapQueryInformation 0000000140042040     kernel32:KERNEL32.dll
 0002:00000048       __imp_GetConsoleMode       0000000140042048     kernel32:KERNEL32.dll
 0002:00000050       __imp_HeapFree             0000000140042050     kernel32:KERNEL32.dll
 0002:00000058       __imp_GetProcessHeap       0000000140042058     kernel32:KERNEL32.dll
 0002:00000060       __imp_LCMapStringW         0000000140042060     kernel32:KERNEL32.dll
 0002:00000068       __imp_CreateFileW          0000000140042068     kernel32:KERNEL32.dll
 0002:00000070       __imp_HeapReAlloc          0000000140042070     kernel32:KERNEL32.dll
 0002:00000078       __imp_LeaveCriticalSection 0000000140042078     kernel32:KERNEL32.dll
 0002:00000080       __imp_FlsFree              0000000140042080     kernel32:KERNEL32.dll
 0002:00000088       __imp_CompareFileTime      0000000140042088     kernel32:KERNEL32.dll
 0002:00000090       __imp_CreateFileA          0000000140042090     kernel32:KERNEL32.dll
 0002:00000098       __imp_GetFileAttributesExA 0000000140042098     kernel32:KERNEL32.dll
 0002:000000a0       __imp_GetFileSizeEx        00000001400420a0     kernel32:KERNEL32.dll
 0002:000000a8       __imp_ReadFile             00000001400420a8     kernel32:KERNEL32.dll
 0002:000000b0       __imp_WriteFile            00000001400420b0     kernel32:KERNEL32.dll
 0002:000000b8       __imp_OutputDebugStringA   00000001400420b8     kernel32:KERNEL32.dll
 0002:000000c0       __imp_CloseHandle          00000001400420c0     kernel32:KERNEL32.dll
 0002:000000c8       __imp_QueryPerformanceCounter 00000001400420c8     kernel32:KERNEL32.dll
 0002:000000d0       __imp_QueryPerformanceFrequency 00000001400420d0     kernel32:KERNEL32.dll
 0002:000000d8       __imp_Sleep                00000001400420d8     kernel32:KERNEL32.dll
 0002:000000e0       __imp_VirtualAlloc         00000001400420e0     kernel32:KERNEL32.dll
 0002:000000e8       __imp_VirtualFree          00000001400420e8     kernel32:KERNEL32.dll
 0002:000000f0       __imp_MapViewOfFile        00000001400420f0     kernel32:KERNEL32.dll
 0002:000000f8       __imp_FreeLibrary          00000001400420f8     kernel32:KERNEL32.dll
 0002:00000100       __imp_GetModuleFileNameA   0000000140042100     kernel32:KERNEL32.dll
 0002:00000108       __imp_GetProcAddress       0000000140042108     kernel32:KERNEL32.dll
 0002:00000110       __imp_LoadLibraryA         0000000140042110     kernel32:KERNEL32.dll
 0002:00000118       __imp_CreateFileMappingA   0000000140042118     kernel32:KERNEL32.dll
 0002:00000120       __imp_CopyFileA            0000000140042120     kernel32:KERNEL32.dll
 0002:00000128       __imp_RtlCaptureContext    0000000140042128     kernel32:KERNEL32.dll
 0002:00000130       __imp_RtlLookupFunctionEntry 0000000140042130     kernel32:KERNEL32.dll
 0002:00000138       __imp_RtlVirtualUnwind     0000000140042138     kernel32:KERNEL32.dll
 0002:00000140       __imp_UnhandledExceptionFilter 0000000140042140     kernel32:KERNEL32.dll
 0002:00000148       __imp_SetUnhandledExceptionFilter 0000000140042148     kernel32:KERNEL32.dll
 0002:00000150       __imp_GetCurrentProcess    0000000140042150     kernel32:KERNEL32.dll
 0002:00000158       __imp_TerminateProcess     0000000140042158     kernel32:KERNEL32.dll
 0002:00000160       __imp_IsProcessorFeaturePresent 0000000140042160     kernel32:KERNEL32.dll
 0002:00000168       __imp_GetCurrentProcessId  0000000140042168     kernel32:KERNEL32.dll
 0002:00000170       __imp_GetCurrentThreadId   0000000140042170     kernel32:KERNEL32.dll
 0002:00000178       __imp_GetSystemTimeAsFileTime 0000000140042178     kernel32:KERNEL32.dll
 0002:00000180       __imp_InitializeSListHead  0000000140042180     kernel32:KERNEL32.dll
 0002:00000188       __imp_IsDebuggerPresent    0000000140042188     kernel32:KERNEL32.dll
 0002:00000190       __imp_GetStartupInfoW      0000000140042190     kernel32:KERNEL32.dll
 0002:00000198       __imp_GetModuleHandleW     0000000140042198     kernel32:KERNEL32.dll
 0002:000001a0       __imp_FlsSetValue          00000001400421a0     kernel32:KERNEL32.dll
 0002:000001a8       __imp_RtlUnwindEx          00000001400421a8     kernel32:KERNEL32.dll
 0002:000001b0       __imp_GetLastError         00000001400421b0     kernel32:KERNEL32.dll
 0002:000001b8       __imp_SetLastError         00000001400421b8     kernel32:KERNEL32.dll
 0002:000001c0       __imp_EnterCriticalSection 00000001400421c0     kernel32:KERNEL32.dll
 0002:000001c8       __imp_DeleteCriticalSection 00000001400421c8     kernel32:KERNEL32.dll
 0002:000001d0       __imp_InitializeCriticalSectionAndSpinCount 00000001400421d0     kernel32:KERNEL32.dll
 0002:000001d8       __imp_TlsAlloc             00000001400421d8     kernel32:KERNEL32.dll
 0002:000001e0       __imp_TlsGetValue          00000001400421e0     kernel32:KERNEL32.dll
 0002:000001e8       __imp_TlsSetValue          00000001400421e8     kernel32:KERNEL32.dll
 0002:000001f0       __imp_TlsFree              00000001400421f0     kernel32:KERNEL32.dll
 0002:000001f8       __imp_LoadLibraryExW       00000001400421f8     kernel32:KERNEL32.dll
 0002:00000200       __imp_EncodePointer        0000000140042200     kernel32:KERNEL32.dll
 0002:00000208       __imp_RaiseException       0000000140042208     kernel32:KERNEL32.dll
 0002:00000210       __imp_RtlPcToFileHeader    0000000140042210     kernel32:KERNEL32.dll
 0002:00000218       __imp_GetStdHandle         0000000140042218     kernel32:KERNEL32.dll
 0002:00000220       __imp_GetModuleFileNameW   0000000140042220     kernel32:KERNEL32.dll
 0002:00000228       __imp_ExitProcess          0000000140042228     kernel32:KERNEL32.dll
 0002:00000230       __imp_GetModuleHandleExW   0000000140042230     kernel32:KERNEL32.dll
 0002:00000238       __imp_HeapAlloc            0000000140042238     kernel32:KERNEL32.dll
 0002:00000240       __imp_HeapSize             0000000140042240     kernel32:KERNEL32.dll
 0002:00000248       __imp_HeapValidate         0000000140042248     kernel32:KERNEL32.dll
 0002:00000250       __imp_GetSystemInfo        0000000140042250     kernel32:KERNEL32.dll
 0002:00000258       __imp_OutputDebugStringW   0000000140042258     kernel32:KERNEL32.dll
 0002:00000260       __imp_FindClose            0000000140042260     kernel32:KERNEL32.dll
 0002:00000268       __imp_FindFirstFileExW     0000000140042268     kernel32:KERNEL32.dll
 0002:00000270       __imp_FindNextFileW        0000000140042270     kernel32:KERNEL32.dll
 0002:00000278       __imp_IsValidCodePage      0000000140042278     kernel32:KERNEL32.dll
 0002:00000280       __imp_GetACP               0000000140042280     kernel32:KERNEL32.dll
 0002:00000288       __imp_GetOEMCP             0000000140042288     kernel32:KERNEL32.dll
 0002:00000290       __imp_GetCPInfo            0000000140042290     kernel32:KERNEL32.dll
 0002:00000298       __imp_GetCommandLineA      0000000140042298     kernel32:KERNEL32.dll
 0002:000002a0       __imp_GetCommandLineW      00000001400422a0     kernel32:KERNEL32.dll
 0002:000002a8       __imp_MultiByteToWideChar  00000001400422a8     kernel32:KERNEL32.dll
 0002:000002b0       __imp_WideCharToMultiByte  00000001400422b0     kernel32:KERNEL32.dll
 0002:000002b8       __imp_GetEnvironmentStringsW 00000001400422b8     kernel32:KERNEL32.dll
 0002:000002c0       __imp_FreeEnvironmentStringsW 00000001400422c0     kernel32:KERNEL32.dll
 0002:000002c8       __imp_SetStdHandle         00000001400422c8     kernel32:KERNEL32.dll
 0002:000002d0       __imp_GetFileType          00000001400422d0     kernel32:KERNEL32.dll
 0002:000002d8       __imp_GetStringTypeW       00000001400422d8     kernel32:KERNEL32.dll
 0002:000002e0       __imp_FlsAlloc             00000001400422e0     kernel32:KERNEL32.dll
 0002:000002e8       __imp_FlsGetValue          00000001400422e8     kernel32:KERNEL32.dll
 0002:000002f0       \177KERNEL32_NULL_THUNK_DATA 00000001400422f0     kernel32:KERNEL32.dll
 0002:000002f8       __imp_TranslateMessage     00000001400422f8     user32:USER32.dll
 0002:00000300       __imp_DispatchMessageA     0000000140042300     user32:USER32.dll
 0002:00000308       __imp_PeekMessageA         0000000140042308     user32:USER32.dll
 0002:00000310       __imp_ScreenToClient       0000000140042310     user32:USER32.dll
 0002:00000318       __imp_GetCursorPos         0000000140042318     user32:USER32.dll
 0002:00000320       __imp_GetClientRect        0000000140042320     user32:USER32.dll
 0002:00000328       __imp_EndPaint             0000000140042328     user32:USER32.dll
 0002:00000330       __imp_BeginPaint           0000000140042330     user32:USER32.dll
 0002:00000338       __imp_ReleaseDC            0000000140042338     user32:USER32.dll
 0002:00000340       __imp_GetDC                0000000140042340     user32:USER32.dll
 0002:00000348       __imp_GetKeyState          0000000140042348     user32:USER32.dll
 0002:00000350       __imp_CreateWindowExA      0000000140042350     user32:USER32.dll
 0002:00000358       __imp_RegisterClassA       0000000140042358     user32:USER32.dll
 0002:00000360       __imp_DefWindowProcA       0000000140042360     user32:USER32.dll
 0002:00000368       __imp_wsprintfA            0000000140042368     user32:USER32.dll
 0002:00000370       \177USER32_NULL_THUNK_DATA 0000000140042370     user32:USER32.dll
 0002:00000378       __imp_timeBeginPeriod      0000000140042378     winmm:WINMM.dll
 0002:00000380       \177WINMM_NULL_THUNK_DATA  0000000140042380     winmm:WINMM.dll
 0002:00000388       __guard_check_icall_fptr   0000000140042388     LIBCMTD:guard_support.obj
 0002:00000390       __guard_xfg_check_icall_fptr 0000000140042390     LIBCMTD:guard_support.obj
 0002:00000398       __guard_dispatch_icall_fptr 0000000140042398     LIBCMTD:guard_support.obj
 0002:000003a0       __guard_xfg_dispatch_icall_fptr 00000001400423a0     LIBCMTD:guard_support.obj
 0002:000003a8       __guard_xfg_table_dispatch_icall_fptr 00000001400423a8     LIBCMTD:guard_support.obj
 0002:000003b0       __castguard_check_failure_os_handled_fptr 00000001400423b0     LIBCMTD:guard_support.obj
 0002:000003b8       __guard_memcpy_fptr        00000001400423b8     libvcruntimed:softmemtag.obj
 0002:000003c0       __xc_a                     00000001400423c0     LIBCMTD:initializers.obj
 0002:000003d0       __xc_z                     00000001400423d0     LIBCMTD:initializers.obj
 0002:000003d8       __xi_a                     00000001400423d8     LIBCMTD:initializers.obj
 0002:000003f0       __acrt_multibyte_initializer 00000001400423f0     libucrtd:multibyte_initializer.obj
 0002:000003f8       __acrt_fmode_initializer   00000001400423f8     libucrtd:fmode_initializer.obj
 0002:00000400       __acrt_stdio_initializer   0000000140042400     libucrtd:stdio_initializer.obj
 0002:00000408       __acrt_tran_fma3_initializer 0000000140042408     libucrtd:fma3_initializer.obj
 0002:00000410       __xi_z                     0000000140042410     LIBCMTD:initializers.obj
 0002:00000418       __xp_a                     0000000140042418     LIBCMTD:initializers.obj
 0002:00000420       __acrt_locale_terminator   0000000140042420     libucrtd:locale_initializer.obj
 0002:00000428       __dcrt_console_output_terminator 0000000140042428     libucrtd:console_output_initializer.obj
 0002:00000430       __acrt_stdio_terminator    0000000140042430     libucrtd:stdio_initializer.obj
 0002:00000438       __xp_z                     0000000140042438     LIBCMTD:initializers.obj
 0002:00000440       __xt_a                     0000000140042440     LIBCMTD:initializers.obj
 0002:00000448       __xt_z                     0000000140042448     LIBCMTD:initializers.obj
 0002:00000600       __real@3f000000            0000000140042600     win32_handmade.obj
 0002:00000604       __real@3f800000            0000000140042604     win32_handmade.obj
 0002:00000608       __real@40000000            0000000140042608     win32_handmade.obj
 0002:0000060c       __real@40400000            000000014004260c     win32_handmade.obj
 0002:00000610       __real@447a0000            0000000140042610     win32_handmade.obj
 0002:00000614       __real@46fffe00            0000000140042614     win32_handmade.obj
 0002:00000618       __real@47000000            0000000140042618     win32_handmade.obj
 0002:0000061c       __real@bf800000            000000014004261c     win32_handmade.obj
 0002:00000620       __xmm@80000000800000008000000080000000 0000000140042620     win32_handmade.obj
 0002:00000640       _pDestructExceptionObject  0000000140042640     libvcruntimed:ehhelpers.obj
 0002:00000650       ??_C@_0EK@HNOIOKGA@D?3?2a?2_work?21?2s?2src?2vctools?2crt?2@ 0000000140042650     libvcruntimed:per_thread_data.obj
 0002:00000db0       ??_C@_08EHJDFFNH@__based?$CI@ 0000000140042db0     libvcruntimed:undname.obj
 0002:00000dc0       ??_C@_07KOLFKCDI@__cdecl@  0000000140042dc0     libvcruntimed:undname.obj
 0002:00000dc8       ??_C@_08GHMPAG@__pascal@   0000000140042dc8     libvcruntimed:undname.obj
 0002:00000dd8       ??_C@_09IFJBGAPI@__stdcall@ 0000000140042dd8     libvcruntimed:undname.obj
 0002:00000de8       ??_C@_0L@NPHFGOKO@__thiscall@ 0000000140042de8     libvcruntimed:undname.obj
 0002:00000df8       ??_C@_0L@JMKHOMEK@__fastcall@ 0000000140042df8     libvcruntimed:undname.obj
 0002:00000e08       ??_C@_0N@BCKKPABJ@__vectorcall@ 0000000140042e08     libvcruntimed:undname.obj
 0002:00000e18       ??_C@_09HIJEGCPM@__clrcall@ 0000000140042e18     libvcruntimed:undname.obj
 0002:00000e24       ??_C@_06GHPCKEAG@__eabi@   0000000140042e24     libvcruntimed:undname.obj
 0002:00000e30       ??_C@_09IOPIDJLG@__swift_1@ 0000000140042e30     libvcruntimed:undname.obj
 0002:00000e40       ??_C@_09KFNFGKHF@__swift_2@ 0000000140042e40     libvcruntimed:undname.obj
 0002:00000e50       ??_C@_09LMMOFLDE@__swift_3@ 0000000140042e50     libvcruntimed:undname.obj
 0002:00000e60       ??_C@_07JOMMBBKO@__ptr64@  0000000140042e60     libvcruntimed:undname.obj
 0002:00000e68       ??_C@_0L@PILCLIHE@__restrict@ 0000000140042e68     libvcruntimed:undname.obj
 0002:00000e78       ??_C@_0M@GFIIJFMG@__unaligned@ 0000000140042e78     libvcruntimed:undname.obj
 0002:00000e88       ??_C@_09DHDLOLLB@restrict?$CI@ 0000000140042e88     libvcruntimed:undname.obj
 0002:00000e92       ??_C@_00CNPNBAHC@@         0000000140042e92     libvcruntimed:undname.obj
 0002:00000e94       ??_C@_04NIHEBCM@?5new@     0000000140042e94     libvcruntimed:undname.obj
 0002:00000ea0       ??_C@_07FPCDHGMM@?5delete@ 0000000140042ea0     libvcruntimed:undname.obj
 0002:00000ea8       ??_C@_01NEMOKFLO@?$DN@     0000000140042ea8     libvcruntimed:undname.obj
 0002:00000eac       ??_C@_02GPIOPFAK@?$DO?$DO@ 0000000140042eac     libvcruntimed:undname.obj
 0002:00000eb0       ??_C@_02FODMEDOG@?$DM?$DM@ 0000000140042eb0     libvcruntimed:undname.obj
 0002:00000eb4       ??_C@_01DCLJPIOD@?$CB@     0000000140042eb4     libvcruntimed:undname.obj
 0002:00000eb8       ??_C@_02EGOFBIJA@?$DN?$DN@ 0000000140042eb8     libvcruntimed:undname.obj
 0002:00000ebc       ??_C@_02FDNJECIE@?$CB?$DN@ 0000000140042ebc     libvcruntimed:undname.obj
 0002:00000ec0       ??_C@_02GPECMEKF@?$FL?$FN@ 0000000140042ec0     libvcruntimed:undname.obj
 0002:00000ec8       ??_C@_08LHJFAFGD@operator@ 0000000140042ec8     libvcruntimed:undname.obj
 0002:00000ed4       ??_C@_02HBOOOICD@?9?$DO@   0000000140042ed4     libvcruntimed:undname.obj
 0002:00000ed8       ??_C@_01NBENCBCI@?$CK@     0000000140042ed8     libvcruntimed:undname.obj
 0002:00000edc       ??_C@_02ECNGHCIF@?$CL?$CL@ 0000000140042edc     libvcruntimed:undname.obj
 0002:00000ee0       ??_C@_02BAABKJLB@?9?9@     0000000140042ee0     libvcruntimed:undname.obj
 0002:00000ee4       ??_C@_01JOAMLHOP@?9@       0000000140042ee4     libvcruntimed:undname.obj
 0002:00000ee8       ??_C@_01MIFGBAGJ@?$CL@     0000000140042ee8     libvcruntimed:undname.obj
 0002:00000eec       ??_C@_01HNPIGOCE@?$CG@     0000000140042eec     libvcruntimed:undname.obj
 0002:00000ef0       ??_C@_03MNHNFDLC@?9?$DO?$CK@ 0000000140042ef0     libvcruntimed:undname.obj
 0002:00000ef4       ??_C@_01KMDKNFGN@?1@       0000000140042ef4     libvcruntimed:undname.obj
 0002:00000ef8       ??_C@_01FGNFDNOH@?$CF@     0000000140042ef8     libvcruntimed:undname.obj
 0002:00000efc       ??_C@_01MNNFJEPP@?$DM@     0000000140042efc     libvcruntimed:undname.obj
 0002:00000f00       ??_C@_02EHCHHCKH@?$DM?$DN@ 0000000140042f00     libvcruntimed:undname.obj
 0002:00000f04       ??_C@_01PPODPGHN@?$DO@     0000000140042f04     libvcruntimed:undname.obj
 0002:00000f08       ??_C@_02EEKDKGMJ@?$DO?$DN@ 0000000140042f08     libvcruntimed:undname.obj
 0002:00000f0c       ??_C@_01IHBHIGKO@?0@       0000000140042f0c     libvcruntimed:undname.obj
 0002:00000f10       ??_C@_02HCKGKOFO@?$CI?$CJ@ 0000000140042f10     libvcruntimed:undname.obj
 0002:00000f14       ??_C@_01PJKLJHI@?$HO@      0000000140042f14     libvcruntimed:undname.obj
 0002:00000f18       ??_C@_01JKBOJNNK@?$FO@     0000000140042f18     libvcruntimed:undname.obj
 0002:00000f1c       ??_C@_01DNKMNLPK@?$HM@     0000000140042f1c     libvcruntimed:undname.obj
 0002:00000f20       ??_C@_02PPKAJPJL@?$CG?$CG@ 0000000140042f20     libvcruntimed:undname.obj
 0002:00000f24       ??_C@_02NONPIBCD@?$HM?$HM@ 0000000140042f24     libvcruntimed:undname.obj
 0002:00000f28       ??_C@_02FPIMKNGF@?$CK?$DN@ 0000000140042f28     libvcruntimed:undname.obj
 0002:00000f2c       ??_C@_02FOEOMHFC@?$CL?$DN@ 0000000140042f2c     libvcruntimed:undname.obj
 0002:00000f30       ??_C@_02FKMDLLOA@?9?$DN@   0000000140042f30     libvcruntimed:undname.obj
 0002:00000f34       ??_C@_02FJEHGPIO@?1?$DN@   0000000140042f34     libvcruntimed:undname.obj
 0002:00000f38       ??_C@_02FENAOKFI@?$CF?$DN@ 0000000140042f38     libvcruntimed:undname.obj
 0002:00000f3c       ??_C@_03IKFCCPFF@?$DO?$DO?$DN@ 0000000140042f3c     libvcruntimed:undname.obj
 0002:00000f40       ??_C@_03CDNPDDLA@?$DM?$DM?$DN@ 0000000140042f40     libvcruntimed:undname.obj
 0002:00000f44       ??_C@_02FGJGFEAB@?$CG?$DN@ 0000000140042f44     libvcruntimed:undname.obj
 0002:00000f48       ??_C@_02DHLNPPGH@?$HM?$DN@ 0000000140042f48     libvcruntimed:undname.obj
 0002:00000f4c       ??_C@_02MHEGNOJ@?$FO?$DN@  0000000140042f4c     libvcruntimed:undname.obj
 0002:00000f50       ??_C@_09IFPLHPGF@?$GAvftable?8@ 0000000140042f50     libvcruntimed:undname.obj
 0002:00000f60       ??_C@_09BLBHBJP@?$GAvbtable?8@ 0000000140042f60     libvcruntimed:undname.obj
 0002:00000f70       ??_C@_07FEEIOKP@?$GAvcall?8@ 0000000140042f70     libvcruntimed:undname.obj
 0002:00000f78       ??_C@_08LLFFHHDJ@?$GAtypeof?8@ 0000000140042f78     libvcruntimed:undname.obj
 0002:00000f88       ??_C@_0BF@KDPPACIK@?$GAlocal?5static?5guard?8@ 0000000140042f88     libvcruntimed:undname.obj
 0002:00000fa0       ??_C@_08OBABFOLI@?$GAstring?8@ 0000000140042fa0     libvcruntimed:undname.obj
 0002:00000fb0       ??_C@_0BD@JDLKDPAB@?$GAvbase?5destructor?8@ 0000000140042fb0     libvcruntimed:undname.obj
 0002:00000fc8       ??_C@_0BN@DEGPLNFK@?$GAvector?5deleting?5destructor?8@ 0000000140042fc8     libvcruntimed:undname.obj
 0002:00000fe8       ??_C@_0BO@OBMKPJIG@?$GAdefault?5constructor?5closure?8@ 0000000140042fe8     libvcruntimed:undname.obj
 0002:00001008       ??_C@_0BN@IMDCHIKM@?$GAscalar?5deleting?5destructor?8@ 0000000140043008     libvcruntimed:undname.obj
 0002:00001028       ??_C@_0BO@PFGOCPJJ@?$GAvector?5constructor?5iterator?8@ 0000000140043028     libvcruntimed:undname.obj
 0002:00001048       ??_C@_0BN@LFPFMEDL@?$GAvector?5destructor?5iterator?8@ 0000000140043048     libvcruntimed:undname.obj
 0002:00001068       ??_C@_0CE@IKBNEHA@?$GAvector?5vbase?5constructor?5itera@ 0000000140043068     libvcruntimed:undname.obj
 0002:00001090       ??_C@_0BL@NILFHHPC@?$GAvirtual?5displacement?5map?8@ 0000000140043090     libvcruntimed:undname.obj
 0002:000010b0       ??_C@_0CB@JONCMFFK@?$GAeh?5vector?5constructor?5iterator@ 00000001400430b0     libvcruntimed:undname.obj
 0002:000010d8       ??_C@_0CA@GCEOPDGL@?$GAeh?5vector?5destructor?5iterator?8@ 00000001400430d8     libvcruntimed:undname.obj
 0002:000010f8       ??_C@_0CH@OOJPLCPH@?$GAeh?5vector?5vbase?5constructor?5it@ 00000001400430f8     libvcruntimed:undname.obj
 0002:00001120       ??_C@_0BL@LLKPOHJI@?$GAcopy?5constructor?5closure?8@ 0000000140043120     libvcruntimed:undname.obj
 0002:00001140       ??_C@_0BA@KBCDOMBN@?$GAudt?5returning?8@ 0000000140043140     libvcruntimed:undname.obj
 0002:00001150       ??_C@_03KLGMFNMG@?$GAEH@   0000000140043150     libvcruntimed:undname.obj
 0002:00001154       ??_C@_05KHLCHHI@?$GARTTI@  0000000140043154     libvcruntimed:undname.obj
 0002:00001160       ??_C@_0BA@KKLDJDLB@?$GAlocal?5vftable?8@ 0000000140043160     libvcruntimed:undname.obj
 0002:00001170       ??_C@_0CE@IIHCMGGL@?$GAlocal?5vftable?5constructor?5clos@ 0000000140043170     libvcruntimed:undname.obj
 0002:00001194       ??_C@_06FHBGPFGH@?5new?$FL?$FN@ 0000000140043194     libvcruntimed:undname.obj
 0002:000011a0       ??_C@_09LBNFPBCA@?5delete?$FL?$FN@ 00000001400431a0     libvcruntimed:undname.obj
 0002:000011b0       ??_C@_0P@HJKNJFNN@?$GAomni?5callsig?8@ 00000001400431b0     libvcruntimed:undname.obj
 0002:000011c0       ??_C@_0BL@CNOONJFP@?$GAplacement?5delete?5closure?8@ 00000001400431c0     libvcruntimed:undname.obj
 0002:000011e0       ??_C@_0BN@CKNJLHMB@?$GAplacement?5delete?$FL?$FN?5closure?8@ 00000001400431e0     libvcruntimed:undname.obj
 0002:00001200       ??_C@_0CG@CFDHKGGD@?$GAmanaged?5vector?5constructor?5ite@ 0000000140043200     libvcruntimed:undname.obj
 0002:00001228       ??_C@_0CF@IMGKMJNO@?$GAmanaged?5vector?5destructor?5iter@ 0000000140043228     libvcruntimed:undname.obj
 0002:00001250       ??_C@_0CG@HLDDJMAG@?$GAeh?5vector?5copy?5constructor?5ite@ 0000000140043250     libvcruntimed:undname.obj
 0002:00001278       ??_C@_0CM@FCBBDIGB@?$GAeh?5vector?5vbase?5copy?5construct@ 0000000140043278     libvcruntimed:undname.obj
 0002:000012a8       ??_C@_0BL@CLIPGLGB@?$GAdynamic?5initializer?5for?5?8@ 00000001400432a8     libvcruntimed:undname.obj
 0002:000012c8       ??_C@_0CB@PDBIFEP@?$GAdynamic?5atexit?5destructor?5for?5@ 00000001400432c8     libvcruntimed:undname.obj
 0002:000012f0       ??_C@_0CD@CGAJBKEJ@?$GAvector?5copy?5constructor?5iterat@ 00000001400432f0     libvcruntimed:undname.obj
 0002:00001318       ??_C@_0CJ@GJELGAMM@?$GAvector?5vbase?5copy?5constructor?5@ 0000000140043318     libvcruntimed:undname.obj
 0002:00001348       ??_C@_0CL@FGIJHLCE@?$GAmanaged?5vector?5copy?5constructo@ 0000000140043348     libvcruntimed:undname.obj
 0002:00001378       ??_C@_0BM@PMGGMLDN@?$GAlocal?5static?5thread?5guard?8@ 0000000140043378     libvcruntimed:undname.obj
 0002:00001398       ??_C@_0N@BDNMDMOL@operator?5?$CC?$CC?5@ 0000000140043398     libvcruntimed:undname.obj
 0002:000013a8       ??_C@_0BC@GGEBGALA@operator?5co_await@ 00000001400433a8     libvcruntimed:undname.obj
 0002:000013c0       ??_C@_0M@GAAIMMOH@operator?$DM?$DN?$DO@ 00000001400433c0     libvcruntimed:undname.obj
 0002:000013d0       ??_C@_0BC@DAFEJGAK@?5Type?5Descriptor?8@ 00000001400433d0     libvcruntimed:undname.obj
 0002:000013e8       ??_C@_0BM@LDKODKLH@?5Base?5Class?5Descriptor?5at?5?$CI@ 00000001400433e8     libvcruntimed:undname.obj
 0002:00001408       ??_C@_0BD@LGICGFMM@?5Base?5Class?5Array?8@ 0000000140043408     libvcruntimed:undname.obj
 0002:00001420       ??_C@_0BN@MECKDCOJ@?5Class?5Hierarchy?5Descriptor?8@ 0000000140043420     libvcruntimed:undname.obj
 0002:00001440       ??_C@_0BK@CFCOFLF@?5Complete?5Object?5Locator?8@ 0000000140043440     libvcruntimed:undname.obj
 0002:00001460       ??_C@_0BG@JNJLAMPM@?$GAanonymous?5namespace?8@ 0000000140043460     libvcruntimed:undname.obj
 0002:00001478       ??_C@_02DKCKIIND@?$CFs@    0000000140043478     libvcruntimed:undname.obj
 0002:0000147c       ??_C@_11LOCGONAA@@         000000014004347c     libvcruntimed:undname.obj
 0002:00001498       ??_C@_1DM@KHCHBNEB@?$AAa?$AAp?$AAi?$AA?9?$AAm?$AAs?$AA?9?$AAw?$AAi?$AAn?$AA?9?$AAc?$AAo?$AAr?$AAe@ 0000000140043498     libvcruntimed:winapi_downlevel.obj
 0002:000014d8       ??_C@_1DK@LPPGFMPP@?$AAa?$AAp?$AAi?$AA?9?$AAm?$AAs?$AA?9?$AAw?$AAi?$AAn?$AA?9?$AAc?$AAo?$AAr?$AAe@ 00000001400434d8     libvcruntimed:winapi_downlevel.obj
 0002:00001518       ??_C@_1BC@GDMECMAK@?$AAk?$AAe?$AAr?$AAn?$AAe?$AAl?$AA3?$AA2@ 0000000140043518     libvcruntimed:winapi_downlevel.obj
 0002:00001530       ??_C@_17CNPHIMPH@?$AA?$CF?$AAl?$AAs@ 0000000140043530     libvcruntimed:winapi_downlevel.obj
 0002:00001538       ??_C@_1BA@PFFKHIOG@?$AAa?$AAp?$AAi?$AA?9?$AAm?$AAs?$AA?9@ 0000000140043538     libvcruntimed:winapi_downlevel.obj
 0002:00001550       ??_C@_1EM@LBIFGLGH@?$AAc?$AAa?$AAc?$AAh?$AAe?$AAd?$AA_?$AAh?$AAa?$AAn?$AAd?$AAl?$AAe?$AA?5?$AA?$DN@ 0000000140043550     libvcruntimed:winapi_downlevel.obj
 0002:000015a0       ??_C@_1JG@EAIBPIGC@?$AAD?$AA?3?$AA?2?$AAa?$AA?2?$AA_?$AAw?$AAo?$AAr?$AAk?$AA?2?$AA1?$AA?2?$AAs?$AA?2@ 00000001400435a0     libvcruntimed:winapi_downlevel.obj
 0002:00001638       ??_C@_1DI@MAHEDLDB@?$AAc?$AAa?$AAc?$AAh?$AAe?$AAd?$AA_?$AAh?$AAa?$AAn?$AAd?$AAl?$AAe?$AA?5?$AA?$DN@ 0000000140043638     libvcruntimed:winapi_downlevel.obj
 0002:00001670       ??_C@_1FC@IBNCGNKL@?$AAc?$AAa?$AAc?$AAh?$AAe?$AAd?$AA_?$AAf?$AAp?$AA?5?$AA?$DN?$AA?$DN?$AA?5?$AAi?$AAn@ 0000000140043670     libvcruntimed:winapi_downlevel.obj
 0002:000016c8       ??_C@_1CI@GDJBAGLP@?$AAc?$AAa?$AAc?$AAh?$AAe?$AAd?$AA_?$AAf?$AAp?$AA?5?$AA?$DN?$AA?$DN?$AA?5?$AAn?$AAe@ 00000001400436c8     libvcruntimed:winapi_downlevel.obj
 0002:000016f8       ??_C@_08KNHFBNJ@FlsAlloc@  00000001400436f8     libvcruntimed:winapi_downlevel.obj
 0002:00001710       ??_C@_07PEJMOBNF@FlsFree@  0000000140043710     libvcruntimed:winapi_downlevel.obj
 0002:00001720       ??_C@_0M@GDNOONDI@FlsGetValue@ 0000000140043720     libvcruntimed:winapi_downlevel.obj
 0002:00001738       ??_C@_0M@JCPCPOEF@FlsSetValue@ 0000000140043738     libvcruntimed:winapi_downlevel.obj
 0002:00001750       ??_C@_0BM@HCFOFFN@InitializeCriticalSectionEx@ 0000000140043750     libvcruntimed:winapi_downlevel.obj
 0002:00001810       ??_7exception@std@@6B@     0000000140043810     libvcruntimed:frame.obj
 0002:00001820       ??_C@_0BC@EOODALEL@Unknown?5exception@ 0000000140043820     libvcruntimed:frame.obj
 0002:00001840       ??_7bad_exception@std@@6B@ 0000000140043840     libvcruntimed:frame.obj
 0002:00001850       ??_C@_0O@DPKOEFFH@bad?5exception@ 0000000140043850     libvcruntimed:frame.obj
 0002:00001860       ??_C@_1FK@OACNEHHA@?$AAt?$AAo?$AA?9?$AA?$DO?$AA_?$AAW?$AAh?$AAa?$AAt?$AA?5?$AA?$DN?$AA?$DN?$AA?5?$AAn?$AAu@ 0000000140043860     libvcruntimed:std_exception.obj
 0002:000018c0       ??_C@_1IE@BLOAAGCK@?$AAD?$AA?3?$AA?2?$AAa?$AA?2?$AA_?$AAw?$AAo?$AAr?$AAk?$AA?2?$AA1?$AA?2?$AAs?$AA?2@ 00000001400438c0     libvcruntimed:std_exception.obj
 0002:00001950       __acrt_exception_action_table 0000000140043950     libucrtd:exception_filter.obj
 0002:00001a10       __acrt_signal_action_table_count 0000000140043a10     libucrtd:exception_filter.obj
 0002:00001a18       __acrt_signal_action_first_fpe_index 0000000140043a18     libucrtd:exception_filter.obj
 0002:00001a20       __acrt_signal_action_fpe_count 0000000140043a20     libucrtd:exception_filter.obj
 0002:00001a30       ??_C@_1IC@DCNEKBE@?$AAm?$AAi?$AAn?$AAk?$AAe?$AAr?$AAn?$AAe?$AAl?$AA?2?$AAc?$AAr?$AAt?$AAs?$AA?2@ 0000000140043a30     libucrtd:report_runtime_error.obj
 0002:00001ab8       ??_C@_1DI@BLFJHKKP@?$AA_?$AA_?$AAa?$AAc?$AAr?$AAt?$AA_?$AAr?$AAe?$AAp?$AAo?$AAr?$AAt?$AA_?$AAr@ 0000000140043ab8     libucrtd:report_runtime_error.obj
 0002:00001af0       ??_C@_1LE@MHPGJGKE@?$AAw?$AAc?$AAs?$AAc?$AAp?$AAy?$AA_?$AAs?$AA?$CI?$AAo?$AAu?$AAt?$AAm?$AAs?$AAg@ 0000000140043af0     libucrtd:report_runtime_error.obj
 0002:00001ba8       ??_C@_1DE@JNGNBFGO@?$AAR?$AAu?$AAn?$AAt?$AAi?$AAm?$AAe?$AA?5?$AAE?$AAr?$AAr?$AAo?$AAr?$AA?$CB?$AA?6@ 0000000140043ba8     libucrtd:report_runtime_error.obj
 0002:00001be0       ??_C@_1HK@FJJNAABO@?$AAw?$AAc?$AAs?$AAc?$AAp?$AAy?$AA_?$AAs?$AA?$CI?$AAp?$AAr?$AAo?$AAg?$AAn?$AAa@ 0000000140043be0     libucrtd:report_runtime_error.obj
 0002:00001c60       ??_C@_1CO@EAEJAADC@?$AA?$DM?$AAp?$AAr?$AAo?$AAg?$AAr?$AAa?$AAm?$AA?5?$AAn?$AAa?$AAm?$AAe?$AA?5?$AAu@ 0000000140043c60     libucrtd:report_runtime_error.obj
 0002:00001c90       ??_C@_1HI@FLHKGEBE@?$AAw?$AAc?$AAs?$AAn?$AAc?$AAp?$AAy?$AA_?$AAs?$AA?$CI?$AAp?$AAc?$AAh?$AA?0?$AA?5@ 0000000140043c90     libucrtd:report_runtime_error.obj
 0002:00001d08       ??_C@_17LGKOMLJ@?$AA?4?$AA?4?$AA?4@ 0000000140043d08     libucrtd:report_runtime_error.obj
 0002:00001d10       ??_C@_1IG@MNNKBLBI@?$AAw?$AAc?$AAs?$AAc?$AAa?$AAt?$AA_?$AAs?$AA?$CI?$AAo?$AAu?$AAt?$AAm?$AAs?$AAg@ 0000000140043d10     libucrtd:report_runtime_error.obj
 0002:00001d98       ??_C@_15IABLJNFO@?$AA?6?$AA?6@ 0000000140043d98     libucrtd:report_runtime_error.obj
 0002:00001da0       ??_C@_1IG@DFBBBDAN@?$AAw?$AAc?$AAs?$AAc?$AAa?$AAt?$AA_?$AAs?$AA?$CI?$AAo?$AAu?$AAt?$AAm?$AAs?$AAg@ 0000000140043da0     libucrtd:report_runtime_error.obj
 0002:00001e30       ??_C@_1EK@MBDPDCGA@?$AAM?$AAi?$AAc?$AAr?$AAo?$AAs?$AAo?$AAf?$AAt?$AA?5?$AAV?$AAi?$AAs?$AAu?$AAa@ 0000000140043e30     libucrtd:report_runtime_error.obj
 0002:00001ea8       ??_C@_0DI@KNDIGDEP@minkernel?2crts?2ucrt?2src?2appcrt?2@ 0000000140043ea8     libucrtd:argv_parsing.obj
 0002:00001ee0       ??_C@_1JO@PGBIJBAM@?$AAm?$AAo?$AAd?$AAe?$AA?5?$AA?$DN?$AA?$DN?$AA?5?$AA_?$AAc?$AAr?$AAt?$AA_?$AAa?$AAr@ 0000000140043ee0     libucrtd:argv_parsing.obj
 0002:00001f80       ??_C@_1HA@JMLCANEE@?$AAm?$AAi?$AAn?$AAk?$AAe?$AAr?$AAn?$AAe?$AAl?$AA?2?$AAc?$AAr?$AAt?$AAs?$AA?2@ 0000000140043f80     libucrtd:argv_parsing.obj
 0002:00001ff0       ??_C@_1CM@LHOJELIC@?$AAc?$AAo?$AAm?$AAm?$AAo?$AAn?$AA_?$AAc?$AAo?$AAn?$AAf?$AAi?$AAg?$AAu?$AAr@ 0000000140043ff0     libucrtd:argv_parsing.obj
 0002:00002070       ??_C@_0EG@LEHKHOEH@minkernel?2crts?2ucrt?2src?2desktop@ 0000000140044070     libucrtd:environment_initialization.obj
 0002:000020c0       ??_C@_1IM@IMOFFPLG@?$AAm?$AAi?$AAn?$AAk?$AAe?$AAr?$AAn?$AAe?$AAl?$AA?2?$AAc?$AAr?$AAt?$AAs?$AA?2@ 00000001400440c0     libucrtd:environment_initialization.obj
 0002:00002150       ??_C@_1CG@MNNNBNAK@?$AAc?$AAr?$AAe?$AAa?$AAt?$AAe?$AA_?$AAe?$AAn?$AAv?$AAi?$AAr?$AAo?$AAn?$AAm@ 0000000140044150     libucrtd:environment_initialization.obj
 0002:00002180       ??_C@_1HI@OOPIFFGA@?$AAt?$AAr?$AAa?$AAi?$AAt?$AAs?$AA?3?$AA?3?$AAt?$AAc?$AAs?$AAc?$AAp?$AAy?$AA_@ 0000000140044180     libucrtd:environment_initialization.obj
 0002:00002270       ??_C@_1BI@BGOHAHKC@?$AAm?$AAs?$AAc?$AAo?$AAr?$AAe?$AAe?$AA?4?$AAd?$AAl?$AAl@ 0000000140044270     libucrtd:exit.obj
 0002:00002288       ??_C@_0P@MIGLKIOC@CorExitProcess@ 0000000140044288     libucrtd:exit.obj
 0002:000022a0       ??_C@_1GC@CIJNGKLD@?$AAm?$AAi?$AAn?$AAk?$AAe?$AAr?$AAn?$AAe?$AAl?$AA?2?$AAc?$AAr?$AAt?$AAs?$AA?2@ 00000001400442a0     libucrtd:setmode.obj
 0002:00002310       ??_C@_1FO@LPCLHKGE@?$AA?$CI?$AAf?$AAh?$AA?5?$AA?$DO?$AA?$DN?$AA?5?$AA0?$AA?5?$AA?$CG?$AA?$CG?$AA?5?$AA?$CI?$AAu?$AAn@ 0000000140044310     libucrtd:setmode.obj
 0002:00002370       ??_C@_1CM@OKGMMMDH@?$AA?$CI?$AA_?$AAo?$AAs?$AAf?$AAi?$AAl?$AAe?$AA?$CI?$AAf?$AAh?$AA?$CJ?$AA?5?$AA?$CG?$AA?5@ 0000000140044370     libucrtd:setmode.obj
 0002:000023a0       ??_C@_1JE@ECKHFIFP@?$AA?$CI?$AA?$CC?$AAI?$AAn?$AAv?$AAa?$AAl?$AAi?$AAd?$AA?5?$AAf?$AAi?$AAl?$AAe?$AA?5@ 00000001400443a0     libucrtd:setmode.obj
 0002:00002440       ??_C@_1HC@GNDCDMJL@?$AAm?$AAo?$AAd?$AAe?$AA?5?$AA?$DN?$AA?$DN?$AA?5?$AA_?$AAO?$AA_?$AAT?$AAE?$AAX?$AAT@ 0000000140044440     libucrtd:setmode.obj
 0002:000024b8       ??_C@_1BG@IEEHLOCL@?$AA_?$AAs?$AAe?$AAt?$AA_?$AAf?$AAm?$AAo?$AAd?$AAe@ 00000001400444b8     libucrtd:setmode.obj
 0002:00002520       ??_C@_1GA@LDEGDKD@?$AA?$CI?$AA?$CC?$AAI?$AAn?$AAv?$AAa?$AAl?$AAi?$AAd?$AA?5?$AAp?$AAa?$AAr?$AAa?$AAm@ 0000000140044520     libucrtd:wsetlocale.obj
 0002:00002580       ??_C@_1GK@DPKNLBIE@?$AAm?$AAi?$AAn?$AAk?$AAe?$AAr?$AAn?$AAe?$AAl?$AA?2?$AAc?$AAr?$AAt?$AAs?$AA?2@ 0000000140044580     libucrtd:wsetlocale.obj
 0002:000025f0       ??_C@_1CI@FGIONOJM@?$AA_?$AAc?$AAo?$AAn?$AAf?$AAi?$AAg?$AAt?$AAh?$AAr?$AAe?$AAa?$AAd?$AAl?$AAo@ 00000001400445f0     libucrtd:wsetlocale.obj
 0002:00002618       ??_C@_1CO@JKFLNGDK@?$AAm?$AAo?$AAd?$AAe?$AA?5?$AA?$DN?$AA?$DN?$AA?5?$AA0?$AA?5?$AA?$HM?$AA?$HM?$AA?5?$AAm?$AAo@ 0000000140044618     libucrtd:new_mode.obj
 0002:00002650       ??_C@_1GC@PJMKBHEK@?$AAm?$AAi?$AAn?$AAk?$AAe?$AAr?$AAn?$AAe?$AAl?$AA?2?$AAc?$AAr?$AAt?$AAs?$AA?2@ 0000000140044650     libucrtd:new_mode.obj
 0002:000026b8       ??_C@_1BM@PDPAKJNF@?$AA_?$AAs?$AAe?$AAt?$AA_?$AAn?$AAe?$AAw?$AA_?$AAm?$AAo?$AAd?$AAe@ 00000001400446b8     libucrtd:new_mode.obj
 0002:00002750       ??_C@_0DC@NBHMIIKL@minkernel?2crts?2ucrt?2src?2appcrt?2@ 0000000140044750     libucrtd:onexit.obj
 0002:000028e0       ??_C@_04HJMOFLDF@Free@     00000001400448e0     libucrtd:debug_heap.obj
 0002:000028e8       ??_C@_06EFAGIKOH@Normal@   00000001400448e8     libucrtd:debug_heap.obj
 0002:000028f0       ??_C@_03OGPFLFLO@CRT@      00000001400448f0     libucrtd:debug_heap.obj
 0002:000028f4       ??_C@_06KMEJCCGM@Ignore@   00000001400448f4     libucrtd:debug_heap.obj
 0002:000028fc       ??_C@_06PJIGMIJB@Client@   00000001400448fc     libucrtd:debug_heap.obj
 0002:00002980       ??_C@_1CE@LJFEPPMP@?$AA_?$AAC?$AAr?$AAt?$AAC?$AAh?$AAe?$AAc?$AAk?$AAM?$AAe?$AAm?$AAo?$AAr?$AAy@ 0000000140044980     libucrtd:debug_heap.obj
 0002:000029b0       ??_C@_1GG@OCLHPJPK@?$AAm?$AAi?$AAn?$AAk?$AAe?$AAr?$AAn?$AAe?$AAl?$AA?2?$AAc?$AAr?$AAt?$AAs?$AA?2@ 00000001400449b0     libucrtd:debug_heap.obj
 0002:00002a18       ??_C@_0DF@BBEGIFEK@Client?5hook?5allocation?5failure?5@ 0000000140044a18     libucrtd:debug_heap.obj
 0002:00002a50       ??_C@_0CB@CCLOLAHO@Client?5hook?5allocation?5failure?4@ 0000000140044a50     libucrtd:debug_heap.obj
 0002:00002a78       ??_C@_0DC@JEMAGEKG@Error?3?5memory?5allocation?3?5bad?5m@ 0000000140044a78     libucrtd:debug_heap.obj
 0002:00002ab0       ??_C@_0DI@KKJPDPGM@Client?5hook?5re?9allocation?5failu@ 0000000140044ab0     libucrtd:debug_heap.obj
 0002:00002ae8       ??_C@_0CE@DOFMDOL@Client?5hook?5re?9allocation?5failu@ 0000000140044ae8     libucrtd:debug_heap.obj
 0002:00002b10       ??_C@_0FA@EFEIGJKG@Error?3?5memory?5allocation?3?5bad?5m@ 0000000140044b10     libucrtd:debug_heap.obj
 0002:00002b60       ??_C@_0EM@LGFLMAGJ@The?5Block?5at?50x?$CFp?5was?5allocated@ 0000000140044b60     libucrtd:debug_heap.obj
 0002:00002bb0       ??_C@_1DM@DEDLGNML@?$AA_?$AAC?$AAr?$AAt?$AAI?$AAs?$AAV?$AAa?$AAl?$AAi?$AAd?$AAH?$AAe?$AAa?$AAp@ 0000000140044bb0     libucrtd:debug_heap.obj
 0002:00002bf0       ??_C@_1PC@MCGKJLN@?$AAo?$AAl?$AAd?$AA_?$AAh?$AAe?$AAa?$AAd?$AA?9?$AA?$DO?$AA_?$AAl?$AAi?$AAn?$AAe@ 0000000140044bf0     libucrtd:debug_heap.obj
 0002:00002ce8       ??_C@_0DA@HFBKENN@Error?3?5possible?5heap?5corruption@ 0000000140044ce8     libucrtd:debug_heap.obj
 0002:00002d20       ??_C@_1JM@MCMEPJEP@?$AAr?$AAe?$AAa?$AAl?$AAl?$AAo?$AAc?$AAa?$AAt?$AAi?$AAo?$AAn?$AA_?$AAi?$AAs@ 0000000140044d20     libucrtd:debug_heap.obj
 0002:00002dc0       ??_C@_1DM@LNOPKAIJ@?$AA_?$AA_?$AAa?$AAc?$AAr?$AAt?$AA_?$AAl?$AAa?$AAs?$AAt?$AA_?$AAb?$AAl?$AAo@ 0000000140044dc0     libucrtd:debug_heap.obj
 0002:00002e00       ??_C@_1DO@HABCJBHO@?$AA_?$AA_?$AAa?$AAc?$AAr?$AAt?$AA_?$AAf?$AAi?$AAr?$AAs?$AAt?$AA_?$AAb?$AAl@ 0000000140044e00     libucrtd:debug_heap.obj
 0002:00002e40       ??_C@_1CC@CKEAHJPH@?$AAb?$AAl?$AAo?$AAc?$AAk?$AA?5?$AA?$CB?$AA?$DN?$AA?5?$AAn?$AAu?$AAl?$AAl?$AAp?$AAt@ 0000000140044e40     libucrtd:debug_heap.obj
 0002:00002e70       ??_C@_0EJ@HEIBCIMJ@The?5Block?5at?50x?$CFp?5was?5allocated@ 0000000140044e70     libucrtd:debug_heap.obj
 0002:00002ec0       ??_C@_0BL@KEIPLFAC@Client?5hook?5free?5failure?4?6@ 0000000140044ec0     libucrtd:debug_heap.obj
 0002:00002ee0       ??_C@_1FA@KDNEBILF@?$AAi?$AAs?$AA_?$AAb?$AAl?$AAo?$AAc?$AAk?$AA_?$AAt?$AAy?$AAp?$AAe?$AA_?$AAv@ 0000000140044ee0     libucrtd:debug_heap.obj
 0002:00002f30       ??_C@_0KI@JGFOHMEB@HEAP?5CORRUPTION?5DETECTED?3?5befor@ 0000000140044f30     libucrtd:debug_heap.obj
 0002:00002fe0       ??_C@_0IK@PJCGLBOB@HEAP?5CORRUPTION?5DETECTED?3?5befor@ 0000000140044fe0     libucrtd:debug_heap.obj
 0002:00003070       ??_C@_0KE@MBMNHHHN@HEAP?5CORRUPTION?5DETECTED?3?5after@ 0000000140045070     libucrtd:debug_heap.obj
 0002:00003120       ??_C@_0IG@LEMBDCJK@HEAP?5CORRUPTION?5DETECTED?3?5after@ 0000000140045120     libucrtd:debug_heap.obj
 0002:000031b0       ??_C@_1OK@GFEOEJAF@?$AAh?$AAe?$AAa?$AAd?$AAe?$AAr?$AA?9?$AA?$DO?$AA_?$AAl?$AAi?$AAn?$AAe?$AA_?$AAn@ 00000001400451b0     libucrtd:debug_heap.obj
 0002:000032a0       ??_C@_1ME@GFALMLNA@?$AAh?$AAe?$AAa?$AAd?$AAe?$AAr?$AA?9?$AA?$DO?$AA_?$AAb?$AAl?$AAo?$AAc?$AAk?$AA_@ 00000001400452a0     libucrtd:debug_heap.obj
 0002:00003368       ??_C@_1DI@ILNOPEPI@?$AA_?$AA_?$AAa?$AAc?$AAr?$AAt?$AA_?$AAl?$AAa?$AAs?$AAt?$AA_?$AAb?$AAl?$AAo@ 0000000140045368     libucrtd:debug_heap.obj
 0002:000033a0       ??_C@_1DK@KEHFGDIJ@?$AA_?$AA_?$AAa?$AAc?$AAr?$AAt?$AA_?$AAf?$AAi?$AAr?$AAs?$AAt?$AA_?$AAb?$AAl@ 00000001400453a0     libucrtd:debug_heap.obj
 0002:000033e0       ??_C@_1BG@MBKOGDLD@?$AA_?$AAm?$AAs?$AAi?$AAz?$AAe?$AA_?$AAd?$AAb?$AAg@ 00000001400453e0     libucrtd:debug_heap.obj
 0002:000033f8       ??_C@_07OHKEFPKJ@DAMAGED@  00000001400453f8     libucrtd:debug_heap.obj
 0002:00003400       ??_C@_0KA@IHNJJKPL@HEAP?5CORRUPTION?5DETECTED?3?5on?5to@ 0000000140045400     libucrtd:debug_heap.obj
 0002:000034a0       ??_C@_0IC@BBJIOOJH@HEAP?5CORRUPTION?5DETECTED?3?5on?5to@ 00000001400454a0     libucrtd:debug_heap.obj
 0002:00003530       ??_C@_0EG@DGJMPDBH@?$CFhs?5located?5at?50x?$CFp?5is?5?$CFIu?5byte@ 0000000140045530     libucrtd:debug_heap.obj
 0002:00003578       ??_C@_0CI@JMLBEDHJ@?$CFhs?5located?5at?50x?$CFp?5is?5?$CFIu?5byte@ 0000000140045578     libucrtd:debug_heap.obj
 0002:000035a0       ??_C@_0EG@GPFHANHO@Cycle?5in?5block?5list?5detected?5wh@ 00000001400455a0     libucrtd:debug_heap.obj
 0002:000035e8       ??_C@_0BJ@ELMAOCAJ@Heap?5validation?5failed?4?6@ 00000001400455e8     libucrtd:debug_heap.obj
 0002:00003610       ??_C@_1IE@BBIFDGEB@?$AAn?$AAe?$AAw?$AA_?$AAb?$AAi?$AAt?$AAs?$AA?5?$AA?$DN?$AA?$DN?$AA?5?$AA_?$AAC?$AAR@ 0000000140045610     libucrtd:debug_heap.obj
 0002:00003698       ??_C@_1BO@GJFDNMNF@?$AA_?$AAC?$AAr?$AAt?$AAS?$AAe?$AAt?$AAD?$AAb?$AAg?$AAF?$AAl?$AAa?$AAg@ 0000000140045698     libucrtd:debug_heap.obj
 0002:000036b8       ??_C@_1CC@BBKMONGA@?$AAs?$AAt?$AAa?$AAt?$AAe?$AA?5?$AA?$CB?$AA?$DN?$AA?5?$AAn?$AAu?$AAl?$AAl?$AAp?$AAt@ 00000001400456b8     libucrtd:debug_heap.obj
 0002:000036e0       ??_C@_1CE@NJJKELF@?$AA_?$AAC?$AAr?$AAt?$AAM?$AAe?$AAm?$AAC?$AAh?$AAe?$AAc?$AAk?$AAp?$AAo?$AAi@ 00000001400456e0     libucrtd:debug_heap.obj
 0002:00003708       ??_C@_0DP@LEFMFBOD@Bad?5memory?5block?5found?5at?50x?$CFp?4@ 0000000140045708     libucrtd:debug_heap.obj
 0002:00003748       ??_C@_0CB@EAAIGELO@Bad?5memory?5block?5found?5at?50x?$CFp?4@ 0000000140045748     libucrtd:debug_heap.obj
 0002:0000376c       ??_C@_05MKKEDADM@?$CF?42X?5@ 000000014004576c     libucrtd:debug_heap.obj
 0002:00003778       ??_C@_1CC@DIJAHFFJ@?$AAp?$AAr?$AAi?$AAn?$AAt?$AA_?$AAb?$AAl?$AAo?$AAc?$AAk?$AA_?$AAd?$AAa?$AAt@ 0000000140045778     libucrtd:debug_heap.obj
 0002:000037a0       ??_C@_1BI@KALLJECN@?$AA?$CI?$AA?$CK?$AA_?$AAe?$AAr?$AAr?$AAn?$AAo?$AA?$CI?$AA?$CJ?$AA?$CJ@ 00000001400457a0     libucrtd:debug_heap.obj
 0002:000037b8       ??_C@_0BA@HJBKCELP@?5Data?3?5?$DM?$CFs?$DO?5?$CFs?6@ 00000001400457b8     libucrtd:debug_heap.obj
 0002:000037c8       ??_C@_0BE@KCIPKCIA@Dumping?5objects?5?9?$DO?6@ 00000001400457c8     libucrtd:debug_heap.obj
 0002:000037e0       ??_C@_0BE@OIEFNFL@?$CDFile?5Error?$CD?$CI?$CFd?$CJ?5?3?5@ 00000001400457e0     libucrtd:debug_heap.obj
 0002:000037f8       ??_C@_0L@JMEFFCCJ@?$CFhs?$CI?$CFd?$CJ?5?3?5@ 00000001400457f8     libucrtd:debug_heap.obj
 0002:00003804       ??_C@_06PKLGBFGM@?$HL?$CFld?$HN?5@ 0000000140045804     libucrtd:debug_heap.obj
 0002:00003810       ??_C@_0DD@GHNAAKBB@client?5block?5at?50x?$CFp?0?5subtype?5?$CF@ 0000000140045810     libucrtd:debug_heap.obj
 0002:00003848       ??_C@_0CH@FAGDDGPN@normal?5block?5at?50x?$CFp?0?5?$CFIu?5bytes@ 0000000140045848     libucrtd:debug_heap.obj
 0002:00003870       ??_C@_0DA@MDLBNIBM@crt?5block?5at?50x?$CFp?0?5subtype?5?$CFx?0?5@ 0000000140045870     libucrtd:debug_heap.obj
 0002:000038a0       ??_C@_0BH@GFGKJDCO@Object?5dump?5complete?4?6@ 00000001400458a0     libucrtd:debug_heap.obj
 0002:000038b8       ??_C@_0BI@JBFPOEJA@Detected?5memory?5leaks?$CB?6@ 00000001400458b8     libucrtd:debug_heap.obj
 0002:000038d0       ??_C@_1GI@BBAEIKL@?$AA?$CI?$AA?$CI?$AAd?$AAe?$AAs?$AAt?$AAi?$AAn?$AAa?$AAt?$AAi?$AAo?$AAn?$AA?$CJ?$AA?$CJ@ 00000001400458d0     libucrtd:strcpy_s.obj
 0002:00003940       ??_C@_1HI@PBJPCEBC@?$AAm?$AAi?$AAn?$AAk?$AAe?$AAr?$AAn?$AAe?$AAl?$AA?2?$AAc?$AAr?$AAt?$AAs?$AA?2@ 0000000140045940     libucrtd:strcpy_s.obj
 0002:000039b8       ??_C@_1CA@FHIAGDFH@?$AAc?$AAo?$AAm?$AAm?$AAo?$AAn?$AA_?$AAt?$AAc?$AAs?$AAc?$AAp?$AAy?$AA_?$AAs@ 00000001400459b8     libucrtd:strcpy_s.obj
 0002:000039d8       ??_C@_1CK@EIOKGPJL@?$AA?$CI?$AA?$CI?$AA?$CI?$AAs?$AAo?$AAu?$AAr?$AAc?$AAe?$AA?$CJ?$AA?$CJ?$AA?$CJ?$AA?5?$AA?$CB?$AA?$DN@ 00000001400459d8     libucrtd:strcpy_s.obj
 0002:00003a08       ??_C@_1CI@HCPHDDLE@?$AAB?$AAu?$AAf?$AAf?$AAe?$AAr?$AA?5?$AAi?$AAs?$AA?5?$AAt?$AAo?$AAo?$AA?5?$AAs@ 0000000140045a08     libucrtd:strcpy_s.obj
 0002:00003a30       ??_C@_1DM@MADKGDLO@?$AA?$CI?$AAL?$AA?$CC?$AAB?$AAu?$AAf?$AAf?$AAe?$AAr?$AA?5?$AAi?$AAs?$AA?5?$AAt?$AAo@ 0000000140045a30     libucrtd:strcpy_s.obj
 0002:00003a70       ??_C@_1DA@LLLMNMKI@?$AAa?$AAb?$AAo?$AAr?$AAt?$AA?$CI?$AA?$CJ?$AA?5?$AAh?$AAa?$AAs?$AA?5?$AAb?$AAe?$AAe@ 0000000140045a70     libucrtd:abort.obj
 0002:00003aa0       ?format_validation_lookup_table_spectre@__crt_stdio_output@@3V?$spectre_mitigated_lookup_table@Ustate_transition_pair@__crt_stdio_output@@$0IA@@1@B 0000000140045aa0     libucrtd:output.obj
 0002:00003c40       ??_C@_1GE@DPGDJKLM@?$AAm?$AAi?$AAn?$AAk?$AAe?$AAr?$AAn?$AAe?$AAl?$AA?2?$AAc?$AAr?$AAt?$AAs?$AA?2@ 0000000140045c40     libucrtd:output.obj
 0002:00003cb0       ??_C@_1GA@MOBAPGIO@?$AAm?$AAi?$AAn?$AAk?$AAe?$AAr?$AAn?$AAe?$AAl?$AA?2?$AAc?$AAr?$AAt?$AAs?$AA?2@ 0000000140045cb0     libucrtd:output.obj
 0002:00003d10       ??_C@_1CE@EAKLPBKK@?$AAf?$AAo?$AAr?$AAm?$AAa?$AAt?$AA?5?$AA?$CB?$AA?$DN?$AA?5?$AAn?$AAu?$AAl?$AAl?$AAp@ 0000000140045d10     libucrtd:output.obj
 0002:00003d38       ??_C@_1CA@PIMGHCEK@?$AAc?$AAo?$AAm?$AAm?$AAo?$AAn?$AA_?$AAv?$AAs?$AAp?$AAr?$AAi?$AAn?$AAt?$AAf@ 0000000140045d38     libucrtd:output.obj
 0002:00003d60       ??_C@_1EO@EGEEFEFM@?$AAb?$AAu?$AAf?$AAf?$AAe?$AAr?$AA_?$AAc?$AAo?$AAu?$AAn?$AAt?$AA?5?$AA?$DN?$AA?$DN@ 0000000140045d60     libucrtd:output.obj
 0002:00003db0       ??_C@_1CE@JEILLNB@?$AAc?$AAo?$AAm?$AAm?$AAo?$AAn?$AA_?$AAv?$AAs?$AAp?$AAr?$AAi?$AAn?$AAt?$AAf@ 0000000140045db0     libucrtd:output.obj
 0002:00003de0       ??_C@_1EM@OAFHAOLH@?$AAb?$AAu?$AAf?$AAf?$AAe?$AAr?$AA?5?$AA?$CB?$AA?$DN?$AA?5?$AAn?$AAu?$AAl?$AAl?$AAp@ 0000000140045de0     libucrtd:output.obj
 0002:00003e30       ??_C@_1DA@HPBFKMEB@?$AA?$CI?$AA?$CC?$AAB?$AAu?$AAf?$AAf?$AAe?$AAr?$AA?5?$AAt?$AAo?$AAo?$AA?5?$AAs?$AAm@ 0000000140045e30     libucrtd:output.obj
 0002:00003e60       ??_C@_1CG@LHFJHFBB@?$AAc?$AAo?$AAm?$AAm?$AAo?$AAn?$AA_?$AAv?$AAs?$AAn?$AAp?$AAr?$AAi?$AAn?$AAt@ 0000000140045e60     libucrtd:output.obj
 0002:00003e88       ??_C@_1CM@JOIJBMEM@?$AA_?$AAf?$AAo?$AAr?$AAm?$AAa?$AAt?$AA_?$AAi?$AAt?$AA?5?$AA?$CB?$AA?$DN?$AA?5?$AAn@ 0000000140045e88     libucrtd:output.obj
 0002:00003ec0       ??_C@_1HA@DMAAKIJP@?$AAm?$AAi?$AAn?$AAk?$AAe?$AAr?$AAn?$AAe?$AAl?$AA?2?$AAc?$AAr?$AAt?$AAs?$AA?2@ 0000000140045ec0     libucrtd:output.obj
 0002:00003f30       ??_C@_1EE@DMAIGNBG@?$AA?$CI?$AA?$CC?$AAI?$AAn?$AAc?$AAo?$AAr?$AAr?$AAe?$AAc?$AAt?$AA?5?$AAf?$AAo?$AAr@ 0000000140045f30     libucrtd:output.obj
 0002:00003f80       ??_C@_1FG@OBJBDPAC@?$AA?$CI?$AA?$CC?$AAN?$AA?5?$AAl?$AAe?$AAn?$AAg?$AAt?$AAh?$AA?5?$AAm?$AAo?$AAd?$AAi@ 0000000140045f80     libucrtd:output.obj
 0002:00003fe0       ??_C@_1EC@GJPNJDCN@?$AA_?$AAl?$AAe?$AAn?$AAg?$AAt?$AAh?$AA?5?$AA?$DN?$AA?$DN?$AA?5?$AAl?$AAe?$AAn?$AAg@ 0000000140045fe0     libucrtd:output.obj
 0002:00004028       ??_C@_1DG@CEJKFDMO@?$AAs?$AAt?$AAa?$AAt?$AAe?$AA_?$AAc?$AAa?$AAs?$AAe?$AA_?$AAn?$AAo?$AAr?$AAm@ 0000000140046028     libucrtd:output.obj
 0002:00004060       ??_C@_1CI@DDKMNCPP@?$AA_?$AAc?$AAo?$AAn?$AAt?$AAe?$AAx?$AAt?$AA?5?$AA?$CB?$AA?$DN?$AA?5?$AAn?$AAu?$AAl@ 0000000140046060     libucrtd:output.obj
 0002:00004090       ??_C@_1HK@IIPGOADH@?$AA_?$AA_?$AAc?$AAr?$AAt?$AA_?$AAs?$AAt?$AAd?$AAi?$AAo?$AA_?$AAo?$AAu?$AAt@ 0000000140046090     libucrtd:output.obj
 0002:00004110       ??_C@_1HE@IACOMEJF@?$AA_?$AA_?$AAc?$AAr?$AAt?$AA_?$AAs?$AAt?$AAd?$AAi?$AAo?$AA_?$AAo?$AAu?$AAt@ 0000000140046110     libucrtd:output.obj
 0002:00004190       ??_C@_1GC@BNMHNGKM@?$AA_?$AAs?$AAt?$AAa?$AAt?$AAe?$AA?5?$AA?$DN?$AA?$DN?$AA?5?$AAs?$AAt?$AAa?$AAt?$AAe@ 0000000140046190     libucrtd:output.obj
 0002:00004200       ??_C@_1EK@PNGFDECN@?$AA?$CI?$AA?$CC?$AA?8?$AAn?$AA?8?$AA?5?$AAf?$AAo?$AAr?$AAm?$AAa?$AAt?$AA?5?$AAs?$AAp@ 0000000140046200     libucrtd:output.obj
 0002:00004250       ??_C@_1EO@GHKFGFKL@?$AA?$CI?$AA?$CC?$AAI?$AAn?$AAv?$AAa?$AAl?$AAi?$AAd?$AA?5?$AAi?$AAn?$AAt?$AAe?$AAg@ 0000000140046250     libucrtd:output.obj
 0002:000042a0       ??_C@_1BEC@NDOOKIMC@?$AA_?$AA_?$AAc?$AAr?$AAt?$AA_?$AAs?$AAt?$AAd?$AAi?$AAo?$AA_?$AAo?$AAu?$AAt@ 00000001400462a0     libucrtd:output.obj
 0002:000043f0       ??_C@_1BDG@KOLEFKPF@?$AA_?$AA_?$AAc?$AAr?$AAt?$AA_?$AAs?$AAt?$AAd?$AAi?$AAo?$AA_?$AAo?$AAu?$AAt@ 00000001400463f0     libucrtd:output.obj
 0002:00004528       ??_C@_1O@CEDCILHN@?$AA?$CI?$AAn?$AAu?$AAl?$AAl?$AA?$CJ@ 0000000140046528     libucrtd:output.obj
 0002:00004538       ??_C@_06OJHGLDPL@?$CInull?$CJ@ 0000000140046538     libucrtd:output.obj
 0002:00004540       ??_C@_1CK@LGDCECDH@?$AA_?$AAf?$AAo?$AAr?$AAm?$AAa?$AAt?$AA_?$AAc?$AAh?$AAa?$AAr?$AA?5?$AA?$CB?$AA?$DN@ 0000000140046540     libucrtd:output.obj
 0002:00004570       ??_C@_0DI@KIFBHMNO@minkernel?2crts?2ucrt?2inc?2corecrt@ 0000000140046570     libucrtd:output.obj
 0002:000045b0       ??_C@_1BMK@JGIBNIA@?$AA_?$AA_?$AAc?$AAr?$AAt?$AA_?$AAs?$AAt?$AAd?$AAi?$AAo?$AA_?$AAo?$AAu?$AAt@ 00000001400465b0     libucrtd:output.obj
 0002:00004780       ??_C@_1BLC@INKIGOCN@?$AA_?$AA_?$AAc?$AAr?$AAt?$AA_?$AAs?$AAt?$AAd?$AAi?$AAo?$AA_?$AAo?$AAu?$AAt@ 0000000140046780     libucrtd:output.obj
 0002:00004940       ??_C@_1BNK@KHNJGCCP@?$AA_?$AA_?$AAc?$AAr?$AAt?$AA_?$AAs?$AAt?$AAd?$AAi?$AAo?$AA_?$AAo?$AAu?$AAt@ 0000000140046940     libucrtd:output.obj
 0002:00004b20       ??_C@_1BNO@OHFFMOOJ@?$AA_?$AA_?$AAc?$AAr?$AAt?$AA_?$AAs?$AAt?$AAd?$AAi?$AAo?$AA_?$AAo?$AAu?$AAt@ 0000000140046b20     libucrtd:output.obj
 0002:00004d00       ??_C@_1BMC@FAGJFBLI@?$AA_?$AA_?$AAc?$AAr?$AAt?$AA_?$AAs?$AAt?$AAd?$AAi?$AAo?$AA_?$AAo?$AAu?$AAt@ 0000000140046d00     libucrtd:output.obj
 0002:00004ed0       ??_C@_1BMG@CGPDIFDK@?$AA_?$AA_?$AAc?$AAr?$AAt?$AA_?$AAs?$AAt?$AAd?$AAi?$AAo?$AA_?$AAo?$AAu?$AAt@ 0000000140046ed0     libucrtd:output.obj
 0002:000050a0       ??_C@_1BNC@OHPDPPJK@?$AA_?$AA_?$AAc?$AAr?$AAt?$AA_?$AAs?$AAt?$AAd?$AAi?$AAo?$AA_?$AAo?$AAu?$AAt@ 00000001400470a0     libucrtd:output.obj
 0002:00005280       ??_C@_1BLK@FOLFMPJH@?$AA_?$AA_?$AAc?$AAr?$AAt?$AA_?$AAs?$AAt?$AAd?$AAi?$AAo?$AA_?$AAo?$AAu?$AAt@ 0000000140047280     libucrtd:output.obj
 0002:00005440       ??_C@_1BNC@JPKLPOHO@?$AA_?$AA_?$AAc?$AAr?$AAt?$AA_?$AAs?$AAt?$AAd?$AAi?$AAo?$AA_?$AAo?$AAu?$AAt@ 0000000140047440     libucrtd:output.obj
 0002:00005620       ??_C@_1EO@MLJCKPIB@?$AAb?$AAa?$AAs?$AAe?$AA?5?$AA?$DN?$AA?$DN?$AA?5?$AA0?$AA?5?$AA?$HM?$AA?$HM?$AA?5?$AA?$CI?$AA2@ 0000000140047620     libucrtd:output.obj
 0002:00005670       ??_C@_1DI@BANODKFL@?$AA_?$AA_?$AAc?$AAr?$AAt?$AA_?$AAs?$AAt?$AAr?$AAt?$AAo?$AAx?$AA?3?$AA?3?$AAp@ 0000000140047670     libucrtd:output.obj
 0002:000056b0       ??_C@_1BNO@NAODCKFA@?$AA_?$AA_?$AAc?$AAr?$AAt?$AA_?$AAs?$AAt?$AAd?$AAi?$AAo?$AA_?$AAo?$AAu?$AAt@ 00000001400476b0     libucrtd:output.obj
 0002:00005890       ??_C@_1BMG@BBEFGBID@?$AA_?$AA_?$AAc?$AAr?$AAt?$AA_?$AAs?$AAt?$AAd?$AAi?$AAo?$AA_?$AAo?$AAu?$AAt@ 0000000140047890     libucrtd:output.obj
 0002:00005a58       ??_C@_1CM@GJENOOEJ@?$AAc?$AA?5?$AA?$DN?$AA?$DN?$AA?5?$AA?8?$AA?2?$AA0?$AA?8?$AA?5?$AA?$HM?$AA?$HM?$AA?5?$AA?$CK?$AA_@ 0000000140047a58     libucrtd:output.obj
 0002:00005a90       ??_C@_1GK@MNHIDABG@?$AA_?$AA_?$AAc?$AAr?$AAt?$AA_?$AAs?$AAt?$AAr?$AAt?$AAo?$AAx?$AA?3?$AA?3?$AAc@ 0000000140047a90     libucrtd:output.obj
 0002:00005b00       ??_C@_1BM@PNEBBBDO@?$AA_?$AAp?$AA?5?$AA?$CB?$AA?$DN?$AA?5?$AAn?$AAu?$AAl?$AAl?$AAp?$AAt?$AAr@ 0000000140047b00     libucrtd:output.obj
 0002:00005b20       ??_C@_1HA@MKKIHBHP@?$AA_?$AA_?$AAc?$AAr?$AAt?$AA_?$AAs?$AAt?$AAr?$AAt?$AAo?$AAx?$AA?3?$AA?3?$AAc@ 0000000140047b20     libucrtd:output.obj
 0002:00005b90       ??_C@_1HA@CONLANFI@?$AA_?$AA_?$AAc?$AAr?$AAt?$AA_?$AAs?$AAt?$AAr?$AAt?$AAo?$AAx?$AA?3?$AA?3?$AAc@ 0000000140047b90     libucrtd:output.obj
 0002:00005c00       ??_C@_1HG@FCDBLOEG@?$AA_?$AA_?$AAc?$AAr?$AAt?$AA_?$AAs?$AAt?$AAr?$AAt?$AAo?$AAx?$AA?3?$AA?3?$AAc@ 0000000140047c00     libucrtd:output.obj
 0002:00005c90       ??_C@_1BA@GLMCNLEM@?$AAW?$AAa?$AAr?$AAn?$AAi?$AAn?$AAg@ 0000000140047c90     libucrtd:dbgrpt.obj
 0002:00005ca0       ??_C@_1M@ILHOPKA@?$AAE?$AAr?$AAr?$AAo?$AAr@ 0000000140047ca0     libucrtd:dbgrpt.obj
 0002:00005cb0       ??_C@_1CC@CGHMNGDG@?$AAA?$AAs?$AAs?$AAe?$AAr?$AAt?$AAi?$AAo?$AAn?$AA?5?$AAF?$AAa?$AAi?$AAl?$AAe@ 0000000140047cb0     libucrtd:dbgrpt.obj
 0002:00005ce0       ??_C@_1OG@PMPPFHAF@?$AA?6?$AA?6?$AAF?$AAo?$AAr?$AA?5?$AAi?$AAn?$AAf?$AAo?$AAr?$AAm?$AAa?$AAt?$AAi@ 0000000140047ce0     libucrtd:dbgrpt.obj
 0002:00005dd0       ??_C@_1MG@LJLILFFD@?$AAD?$AAe?$AAb?$AAu?$AAg?$AA?5?$AA?$CF?$AAl?$AAs?$AA?$CB?$AA?6?$AA?6?$AAP?$AAr?$AAo@ 0000000140047dd0     libucrtd:dbgrpt.obj
 0002:00005ea0       ??_C@_1MG@OODCADGL@?$AAD?$AAe?$AAb?$AAu?$AAg?$AA?5?$AA?$CF?$AAl?$AAs?$AA?$CB?$AA?6?$AA?6?$AAP?$AAr?$AAo@ 0000000140047ea0     libucrtd:dbgrpt.obj
 0002:00005f68       ??_C@_0BH@DNAGHKFM@?$DMprogram?5name?5unknown?$DO@ 0000000140047f68     libucrtd:dbgrpt.obj
 0002:00005f80       ??_C@_1FO@GMJDLAJD@?$AAm?$AAi?$AAn?$AAk?$AAe?$AAr?$AAn?$AAe?$AAl?$AA?2?$AAc?$AAr?$AAt?$AAs?$AA?2@ 0000000140047f80     libucrtd:dbgrpt.obj
 0002:00005fe0       ??_C@_1CM@EHMOGBJJ@?$AAc?$AAo?$AAm?$AAm?$AAo?$AAn?$AA_?$AAm?$AAe?$AAs?$AAs?$AAa?$AAg?$AAe?$AA_@ 0000000140047fe0     libucrtd:dbgrpt.obj
 0002:00006010       ??_C@_1PE@ECNALGCA@?$AAt?$AAr?$AAa?$AAi?$AAt?$AAs?$AA?3?$AA?3?$AAt?$AAc?$AAs?$AAc?$AAp?$AAy?$AA_@ 0000000140048010     libucrtd:dbgrpt.obj
 0002:00006108       ??_C@_1BK@PEDCIPMA@?$AAE?$AAx?$AAp?$AAr?$AAe?$AAs?$AAs?$AAi?$AAo?$AAn?$AA?3?$AA?5@ 0000000140048108     libucrtd:dbgrpt.obj
 0002:00006128       ??_C@_1BA@GLLGCPCK@?$AA?6?$AAL?$AAi?$AAn?$AAe?$AA?3?$AA?5@ 0000000140048128     libucrtd:dbgrpt.obj
 0002:00006138       ??_C@_1BA@LNHECFIM@?$AA?6?$AAF?$AAi?$AAl?$AAe?$AA?3?$AA?5@ 0000000140048138     libucrtd:dbgrpt.obj
 0002:00006148       ??_C@_1BE@CGCJKGHI@?$AA?6?$AAM?$AAo?$AAd?$AAu?$AAl?$AAe?$AA?3?$AA?5@ 0000000140048148     libucrtd:dbgrpt.obj
 0002:00006160       ??_C@_1JM@IBOIJEOO@?$AAw?$AAc?$AAs?$AAc?$AAp?$AAy?$AA_?$AAs?$AA?$CI?$AAm?$AAe?$AAs?$AAs?$AAa?$AAg@ 0000000140048160     libucrtd:dbgrpt.obj
 0002:00006200       ??_C@_1FG@BBOLDHGF@?$AA_?$AAC?$AAr?$AAt?$AAD?$AAb?$AAg?$AAR?$AAe?$AAp?$AAo?$AAr?$AAt?$AA?3?$AA?5@ 0000000140048200     libucrtd:dbgrpt.obj
 0002:00006350       ??_C@_0DM@DKIFNNOL@minkernel?2crts?2ucrt?2src?2appcrt?2@ 0000000140048350     libucrtd:per_thread_data.obj
 0002:00006390       ??_C@_1DE@BCNCAIK@?$AA?$CI?$AA?$CC?$AAI?$AAn?$AAv?$AAa?$AAl?$AAi?$AAd?$AA?5?$AAe?$AAr?$AAr?$AAo?$AAr@ 0000000140048390     libucrtd:set_error_mode.obj
 0002:000063d0       ??_C@_1GO@EBFPMMIJ@?$AAm?$AAi?$AAn?$AAk?$AAe?$AAr?$AAn?$AAe?$AAl?$AA?2?$AAc?$AAr?$AAt?$AAs?$AA?2@ 00000001400483d0     libucrtd:set_error_mode.obj
 0002:00006440       ??_C@_1CA@LFDHAMEM@?$AA_?$AAs?$AAe?$AAt?$AA_?$AAe?$AAr?$AAr?$AAo?$AAr?$AA_?$AAm?$AAo?$AAd?$AAe@ 0000000140048440     libucrtd:set_error_mode.obj
 0002:00006460       ??_C@_1CA@EOJJMFA@?$AAc?$AAo?$AAm?$AAm?$AAo?$AAn?$AA_?$AAt?$AAc?$AAs?$AAc?$AAa?$AAt?$AA_?$AAs@ 0000000140048460     libucrtd:wcscat_s.obj
 0002:00006480       ??_C@_1DM@FHLMIEG@?$AAS?$AAt?$AAr?$AAi?$AAn?$AAg?$AA?5?$AAi?$AAs?$AA?5?$AAn?$AAo?$AAt?$AA?5?$AAn@ 0000000140048480     libucrtd:wcscat_s.obj
 0002:000064c0       ??_C@_1FA@MJKDNFFB@?$AA?$CI?$AAL?$AA?$CC?$AAS?$AAt?$AAr?$AAi?$AAn?$AAg?$AA?5?$AAi?$AAs?$AA?5?$AAn?$AAo@ 00000001400484c0     libucrtd:wcscat_s.obj
 0002:00006510       ??_C@_1CC@CHNFGJIC@?$AAc?$AAo?$AAm?$AAm?$AAo?$AAn?$AA_?$AAt?$AAc?$AAs?$AAn?$AAc?$AAp?$AAy?$AA_@ 0000000140048510     libucrtd:wcsncpy_s.obj
 0002:000066a8       ??_C@_1CE@JMFACANE@?$AAr?$AAe?$AAs?$AAu?$AAl?$AAt?$AA?5?$AA?$CB?$AA?$DN?$AA?5?$AAn?$AAu?$AAl?$AAl?$AAp@ 00000001400486a8     libucrtd:errno.obj
 0002:00006748       ??_C@_0DI@DNFGFCIK@minkernel?2crts?2ucrt?2inc?2corecrt@ 0000000140048748     libucrtd:argv_wildcards.obj
 0002:00006780       ??_C@_1HE@CEMHPOHH@?$AAm?$AAi?$AAn?$AAk?$AAe?$AAr?$AAn?$AAe?$AAl?$AA?2?$AAc?$AAr?$AAt?$AAs?$AA?2@ 0000000140048780     libucrtd:argv_wildcards.obj
 0002:000067f8       ??_C@_1DK@IBFFOJGB@?$AAc?$AAo?$AAm?$AAm?$AAo?$AAn?$AA_?$AAe?$AAx?$AAp?$AAa?$AAn?$AAd?$AA_?$AAa@ 00000001400487f8     libucrtd:argv_wildcards.obj
 0002:00006840       ??_C@_1MC@FLPKOFON@?$AAt?$AAr?$AAa?$AAi?$AAt?$AAs?$AA?3?$AA?3?$AAt?$AAc?$AAs?$AAn?$AAc?$AAp?$AAy@ 0000000140048840     libucrtd:argv_wildcards.obj
 0002:00006908       ??_C@_0DK@FPFMIIJB@minkernel?2crts?2ucrt?2src?2appcrt?2@ 0000000140048908     libucrtd:argv_wildcards.obj
 0002:00006950       ??_C@_1EA@KOCCBLAD@?$AAc?$AAo?$AAp?$AAy?$AA_?$AAa?$AAn?$AAd?$AA_?$AAa?$AAd?$AAd?$AA_?$AAa?$AAr@ 0000000140048950     libucrtd:argv_wildcards.obj
 0002:00006990       ??_C@_1KM@GDJIGAGL@?$AAt?$AAr?$AAa?$AAi?$AAt?$AAs?$AA?3?$AA?3?$AAt?$AAc?$AAs?$AAn?$AAc?$AAp?$AAy@ 0000000140048990     libucrtd:argv_wildcards.obj
 0002:00006a40       ??_C@_1PI@FGFLAGCC@?$AAt?$AAr?$AAa?$AAi?$AAt?$AAs?$AA?3?$AA?3?$AAt?$AAc?$AAs?$AAn?$AAc?$AAp?$AAy@ 0000000140048a40     libucrtd:argv_wildcards.obj
 0002:00006b80       ??_C@_1M@HPNHIDJI@?$AAj?$AAa?$AA?9?$AAJ?$AAP@ 0000000140048b80     libucrtd:mbctype.obj
 0002:00006b90       ??_C@_1M@BIBDDEMK@?$AAz?$AAh?$AA?9?$AAC?$AAN@ 0000000140048b90     libucrtd:mbctype.obj
 0002:00006ba0       ??_C@_1M@JLOOOEGK@?$AAk?$AAo?$AA?9?$AAK?$AAR@ 0000000140048ba0     libucrtd:mbctype.obj
 0002:00006bb0       ??_C@_1M@CLNBBOPM@?$AAz?$AAh?$AA?9?$AAT?$AAW@ 0000000140048bb0     libucrtd:mbctype.obj
 0002:00006c10       ??_C@_0DE@HGDKNBFD@minkernel?2crts?2ucrt?2src?2appcrt?2@ 0000000140048c10     libucrtd:mbctype.obj
 0002:00006c50       ??_C@_0ED@BLPEHJAI@minkernel?2crts?2ucrt?2src?2desktop@ 0000000140048c50     libucrtd:get_environment_from_os.obj
 0002:00006ca0       ??_C@_1FO@NMANMHOD@?$AAc?$AAa?$AAc?$AAh?$AAe?$AAd?$AA_?$AAs?$AAt?$AAa?$AAt?$AAe?$AA?5?$AA?$DN?$AA?$DN@ 0000000140048ca0     libucrtd:win_policies.obj
 0002:00006d00       ??_C@_1HC@GHLNKBJK@?$AAm?$AAi?$AAn?$AAk?$AAe?$AAr?$AAn?$AAe?$AAl?$AA?2?$AAc?$AAr?$AAt?$AAs?$AA?2@ 0000000140048d00     libucrtd:win_policies.obj
 0002:00006d78       ??_C@_0DB@JFFPGLDM@minkernel?2crts?2ucrt?2src?2appcrt?2@ 0000000140048d78     libucrtd:osfinfo.obj
 0002:00006db0       ??_C@_1EM@BPODPNEJ@?$AAs?$AAt?$AAa?$AAt?$AAi?$AAc?$AA_?$AAc?$AAa?$AAs?$AAt?$AA?$DM?$AAu?$AAn?$AAs@ 0000000140048db0     libucrtd:osfinfo.obj
 0002:00006e00       ??_C@_1GC@LDGKBAFM@?$AAm?$AAi?$AAn?$AAk?$AAe?$AAr?$AAn?$AAe?$AAl?$AA?2?$AAc?$AAr?$AAt?$AAs?$AA?2@ 0000000140048e00     libucrtd:osfinfo.obj
 0002:00006e68       ??_C@_1DM@JELNOMLN@?$AA_?$AA_?$AAa?$AAc?$AAr?$AAt?$AA_?$AAl?$AAo?$AAw?$AAi?$AAo?$AA_?$AAe?$AAn@ 0000000140048e68     libucrtd:osfinfo.obj
 0002:00006eb0       ??_C@_1FK@MGHFJLAL@?$AAf?$AAh?$AA?5?$AA?$DO?$AA?$DN?$AA?5?$AA0?$AA?5?$AA?$CG?$AA?$CG?$AA?5?$AA?$CI?$AAu?$AAn?$AAs@ 0000000140048eb0     libucrtd:osfinfo.obj
 0002:00006f10       ??_C@_1BO@EMBOBGKE@?$AA_?$AAg?$AAe?$AAt?$AA_?$AAo?$AAs?$AAf?$AAh?$AAa?$AAn?$AAd?$AAl?$AAe@ 0000000140048f10     libucrtd:osfinfo.obj
 0002:00006f30       ??_C@_1CI@ILOIOBLM@?$AA_?$AAo?$AAs?$AAf?$AAi?$AAl?$AAe?$AA?$CI?$AAf?$AAh?$AA?$CJ?$AA?5?$AA?$CG?$AA?5?$AAF@ 0000000140048f30     libucrtd:osfinfo.obj
 0002:00006f60       __lc_time_c                0000000140048f60     libucrtd:nlsdata.obj
 0002:00007220       ??_C@_03KOEHGMDN@Sun@      0000000140049220     libucrtd:nlsdata.obj
 0002:00007224       ??_C@_03PDAGKDH@Mon@       0000000140049224     libucrtd:nlsdata.obj
 0002:00007228       ??_C@_03NAGEINEP@Tue@      0000000140049228     libucrtd:nlsdata.obj
 0002:0000722c       ??_C@_03MHOMLAJA@Wed@      000000014004922c     libucrtd:nlsdata.obj
 0002:00007230       ??_C@_03IOFIKPDN@Thu@      0000000140049230     libucrtd:nlsdata.obj
 0002:00007234       ??_C@_03IDIOELNC@Fri@      0000000140049234     libucrtd:nlsdata.obj
 0002:00007238       ??_C@_03FEFJNEK@Sat@       0000000140049238     libucrtd:nlsdata.obj
 0002:0000723c       ??_C@_06OOPIFAJ@Sunday@    000000014004923c     libucrtd:nlsdata.obj
 0002:00007244       ??_C@_06JLEDEDGH@Monday@   0000000140049244     libucrtd:nlsdata.obj
 0002:00007250       ??_C@_07BAAGCFCM@Tuesday@  0000000140049250     libucrtd:nlsdata.obj
 0002:00007258       ??_C@_09DLIGFAKA@Wednesday@ 0000000140049258     libucrtd:nlsdata.obj
 0002:00007268       ??_C@_08HACCIKIA@Thursday@ 0000000140049268     libucrtd:nlsdata.obj
 0002:00007274       ??_C@_06JECMNKMI@Friday@   0000000140049274     libucrtd:nlsdata.obj
 0002:00007280       ??_C@_08INBOOONO@Saturday@ 0000000140049280     libucrtd:nlsdata.obj
 0002:0000728c       ??_C@_03JIHJHPIE@Jan@      000000014004928c     libucrtd:nlsdata.obj
 0002:00007290       ??_C@_03HJBDCHOM@Feb@      0000000140049290     libucrtd:nlsdata.obj
 0002:00007294       ??_C@_03ODNJBKGA@Mar@      0000000140049294     libucrtd:nlsdata.obj
 0002:00007298       ??_C@_03LEOLGMJP@Apr@      0000000140049298     libucrtd:nlsdata.obj
 0002:0000729c       ??_C@_03CNMDKL@May@        000000014004929c     libucrtd:nlsdata.obj
 0002:000072a0       ??_C@_03IDFGHECI@Jun@      00000001400492a0     libucrtd:nlsdata.obj
 0002:000072a4       ??_C@_03LBGABGKK@Jul@      00000001400492a4     libucrtd:nlsdata.obj
 0002:000072a8       ??_C@_03IFJFEIGA@Aug@      00000001400492a8     libucrtd:nlsdata.obj
 0002:000072ac       ??_C@_03GGCAPAJC@Sep@      00000001400492ac     libucrtd:nlsdata.obj
 0002:000072b0       ??_C@_03BMAOKBAD@Oct@      00000001400492b0     libucrtd:nlsdata.obj
 0002:000072b4       ??_C@_03JPJOFNIA@Nov@      00000001400492b4     libucrtd:nlsdata.obj
 0002:000072b8       ??_C@_03MKABNOCG@Dec@      00000001400492b8     libucrtd:nlsdata.obj
 0002:000072c0       ??_C@_07CGJPFGJA@January@  00000001400492c0     libucrtd:nlsdata.obj
 0002:000072c8       ??_C@_08GNJGEPFN@February@ 00000001400492c8     libucrtd:nlsdata.obj
 0002:000072d4       ??_C@_05HPCKOFNC@March@    00000001400492d4     libucrtd:nlsdata.obj
 0002:000072dc       ??_C@_05DMJDNLEJ@April@    00000001400492dc     libucrtd:nlsdata.obj
 0002:000072e4       ??_C@_04CNLMGBGM@June@     00000001400492e4     libucrtd:nlsdata.obj
 0002:000072ec       ??_C@_04MIEPOIFP@July@     00000001400492ec     libucrtd:nlsdata.obj
 0002:000072f4       ??_C@_06LBBHFDDG@August@   00000001400492f4     libucrtd:nlsdata.obj
 0002:00007300       ??_C@_09BHHEALKD@September@ 0000000140049300     libucrtd:nlsdata.obj
 0002:00007310       ??_C@_07JJNFCEND@October@  0000000140049310     libucrtd:nlsdata.obj
 0002:00007318       ??_C@_08HCHEGEOA@November@ 0000000140049318     libucrtd:nlsdata.obj
 0002:00007328       ??_C@_08EDHMEBNP@December@ 0000000140049328     libucrtd:nlsdata.obj
 0002:00007334       ??_C@_02DEDBPAFC@AM@       0000000140049334     libucrtd:nlsdata.obj
 0002:00007338       ??_C@_02CJNFDJBF@PM@       0000000140049338     libucrtd:nlsdata.obj
 0002:00007340       ??_C@_08BPBNCDIB@MM?1dd?1yy@ 0000000140049340     libucrtd:nlsdata.obj
 0002:00007350       ??_C@_0BE@CKGJFCPC@dddd?0?5MMMM?5dd?0?5yyyy@ 0000000140049350     libucrtd:nlsdata.obj
 0002:00007368       ??_C@_08JCCMCCIL@HH?3mm?3ss@ 0000000140049368     libucrtd:nlsdata.obj
 0002:00007378       ??_C@_17MBGCMIPB@?$AAS?$AAu?$AAn@ 0000000140049378     libucrtd:nlsdata.obj
 0002:00007380       ??_C@_17KBOMKBF@?$AAM?$AAo?$AAn@ 0000000140049380     libucrtd:nlsdata.obj
 0002:00007388       ??_C@_17BMKGEGOJ@?$AAT?$AAu?$AAe@ 0000000140049388     libucrtd:nlsdata.obj
 0002:00007390       ??_C@_17CJEDCEPE@?$AAW?$AAe?$AAd@ 0000000140049390     libucrtd:nlsdata.obj
 0002:00007398       ??_C@_17PDPHAADD@?$AAT?$AAh?$AAu@ 0000000140049398     libucrtd:nlsdata.obj
 0002:000073a0       ??_C@_17HFOLPPLP@?$AAF?$AAr?$AAi@ 00000001400493a0     libucrtd:nlsdata.obj
 0002:000073a8       ??_C@_17GGIBDPIH@?$AAS?$AAa?$AAt@ 00000001400493a8     libucrtd:nlsdata.obj
 0002:000073b0       ??_C@_1O@IHNHDHPB@?$AAS?$AAu?$AAn?$AAd?$AAa?$AAy@ 00000001400493b0     libucrtd:nlsdata.obj
 0002:000073c0       ??_C@_1O@MMNBFLIA@?$AAM?$AAo?$AAn?$AAd?$AAa?$AAy@ 00000001400493c0     libucrtd:nlsdata.obj
 0002:000073d0       ??_C@_1BA@ENFBFFEK@?$AAT?$AAu?$AAe?$AAs?$AAd?$AAa?$AAy@ 00000001400493d0     libucrtd:nlsdata.obj
 0002:000073e0       ??_C@_1BE@EBOGMDOH@?$AAW?$AAe?$AAd?$AAn?$AAe?$AAs?$AAd?$AAa?$AAy@ 00000001400493e0     libucrtd:nlsdata.obj
 0002:000073f8       ??_C@_1BC@HHMNLIHE@?$AAT?$AAh?$AAu?$AAr?$AAs?$AAd?$AAa?$AAy@ 00000001400493f8     libucrtd:nlsdata.obj
 0002:00007410       ??_C@_1O@PDICJHAG@?$AAF?$AAr?$AAi?$AAd?$AAa?$AAy@ 0000000140049410     libucrtd:nlsdata.obj
 0002:00007420       ??_C@_1BC@ENMNNPAJ@?$AAS?$AAa?$AAt?$AAu?$AAr?$AAd?$AAa?$AAy@ 0000000140049420     libucrtd:nlsdata.obj
 0002:00007438       ??_C@_17DKNBKCHM@?$AAJ?$AAa?$AAn@ 0000000140049438     libucrtd:nlsdata.obj
 0002:00007440       ??_C@_17LMDJEKJN@?$AAF?$AAe?$AAb@ 0000000140049440     libucrtd:nlsdata.obj
 0002:00007448       ??_C@_17CKNLEDEC@?$AAM?$AAa?$AAr@ 0000000140049448     libucrtd:nlsdata.obj
 0002:00007450       ??_C@_17LFPOIHDD@?$AAA?$AAp?$AAr@ 0000000140049450     libucrtd:nlsdata.obj
 0002:00007458       ??_C@_17PNNKMEED@?$AAM?$AAa?$AAy@ 0000000140049458     libucrtd:nlsdata.obj
 0002:00007460       ??_C@_17KCJGOCPB@?$AAJ?$AAu?$AAn@ 0000000140049460     libucrtd:nlsdata.obj
 0002:00007468       ??_C@_17IJPCKHK@?$AAJ?$AAu?$AAl@ 0000000140049468     libucrtd:nlsdata.obj
 0002:00007470       ??_C@_17ICPELBCN@?$AAA?$AAu?$AAg@ 0000000140049470     libucrtd:nlsdata.obj
 0002:00007478       ??_C@_17HCHCOKMG@?$AAS?$AAe?$AAp@ 0000000140049478     libucrtd:nlsdata.obj
 0002:00007480       ??_C@_17FNLKOI@?$AAO?$AAc?$AAt@ 0000000140049480     libucrtd:nlsdata.obj
 0002:00007488       ??_C@_17BBDMLCIG@?$AAN?$AAo?$AAv@ 0000000140049488     libucrtd:nlsdata.obj
 0002:00007490       ??_C@_17EGKACKIF@?$AAD?$AAe?$AAc@ 0000000140049490     libucrtd:nlsdata.obj
 0002:00007498       ??_C@_1BA@EFMEIEBA@?$AAJ?$AAa?$AAn?$AAu?$AAa?$AAr?$AAy@ 0000000140049498     libucrtd:nlsdata.obj
 0002:000074a8       ??_C@_1BC@JGDDFFAM@?$AAF?$AAe?$AAb?$AAr?$AAu?$AAa?$AAr?$AAy@ 00000001400494a8     libucrtd:nlsdata.obj
 0002:000074c0       ??_C@_1M@IKEENEDF@?$AAM?$AAa?$AAr?$AAc?$AAh@ 00000001400494c0     libucrtd:nlsdata.obj
 0002:000074d0       ??_C@_1M@GJNLMHFD@?$AAA?$AAp?$AAr?$AAi?$AAl@ 00000001400494d0     libucrtd:nlsdata.obj
 0002:000074e0       ??_C@_19EPFLPGAP@?$AAJ?$AAu?$AAn?$AAe@ 00000001400494e0     libucrtd:nlsdata.obj
 0002:000074f0       ??_C@_19BIFMLPCD@?$AAJ?$AAu?$AAl?$AAy@ 00000001400494f0     libucrtd:nlsdata.obj
 0002:00007500       ??_C@_1O@PAHLKOAC@?$AAA?$AAu?$AAg?$AAu?$AAs?$AAt@ 0000000140049500     libucrtd:nlsdata.obj
 0002:00007510       ??_C@_1BE@DKAAMBJL@?$AAS?$AAe?$AAp?$AAt?$AAe?$AAm?$AAb?$AAe?$AAr@ 0000000140049510     libucrtd:nlsdata.obj
 0002:00007528       ??_C@_1BA@EPANDLNG@?$AAO?$AAc?$AAt?$AAo?$AAb?$AAe?$AAr@ 0000000140049528     libucrtd:nlsdata.obj
 0002:00007538       ??_C@_1BC@BGLIFPF@?$AAN?$AAo?$AAv?$AAe?$AAm?$AAb?$AAe?$AAr@ 0000000140049538     libucrtd:nlsdata.obj
 0002:00007550       ??_C@_1BC@FEMKIFH@?$AAD?$AAe?$AAc?$AAe?$AAm?$AAb?$AAe?$AAr@ 0000000140049550     libucrtd:nlsdata.obj
 0002:00007564       ??_C@_15ODEHAHHF@?$AAA?$AAM@ 0000000140049564     libucrtd:nlsdata.obj
 0002:0000756c       ??_C@_15CLMNNGEL@?$AAP?$AAM@ 000000014004956c     libucrtd:nlsdata.obj
 0002:00007578       ??_C@_1BC@IEBCMHCM@?$AAM?$AAM?$AA?1?$AAd?$AAd?$AA?1?$AAy?$AAy@ 0000000140049578     libucrtd:nlsdata.obj
 0002:00007590       ??_C@_1CI@KNAKOEBC@?$AAd?$AAd?$AAd?$AAd?$AA?0?$AA?5?$AAM?$AAM?$AAM?$AAM?$AA?5?$AAd?$AAd?$AA?0?$AA?5@ 0000000140049590     libucrtd:nlsdata.obj
 0002:000075b8       ??_C@_1BC@GDGBMEMK@?$AAH?$AAH?$AA?3?$AAm?$AAm?$AA?3?$AAs?$AAs@ 00000001400495b8     libucrtd:nlsdata.obj
 0002:000075d0       ??_C@_1M@BMHNFIME@?$AAe?$AAn?$AA?9?$AAU?$AAS@ 00000001400495d0     libucrtd:nlsdata.obj
 0002:000075e0       __newctype                 00000001400495e0     libucrtd:ctype.obj
 0002:000078e0       __newclmap                 00000001400498e0     libucrtd:ctype.obj
 0002:00007a60       __newcumap                 0000000140049a60     libucrtd:ctype.obj
 0002:00007be0       ??_C@_1CI@JELMFMDH@?$AAc?$AA?5?$AA?$DO?$AA?$DN?$AA?5?$AA?9?$AA1?$AA?5?$AA?$CG?$AA?$CG?$AA?5?$AAc?$AA?5?$AA?$DM?$AA?$DN@ 0000000140049be0     libucrtd:isctype.obj
 0002:00007c10       ??_C@_1GG@KPBGDFHJ@?$AAm?$AAi?$AAn?$AAk?$AAe?$AAr?$AAn?$AAe?$AAl?$AA?2?$AAc?$AAr?$AAt?$AAs?$AA?2@ 0000000140049c10     libucrtd:isctype.obj
 0002:00007c80       ??_C@_1FE@KNPCCODH@?$AA?$CI?$AA?$CC?$AAC?$AAo?$AAr?$AAr?$AAu?$AAp?$AAt?$AAe?$AAd?$AA?5?$AAp?$AAo?$AAi@ 0000000140049c80     libucrtd:getstringtypea.obj
 0002:00007ce0       ??_C@_1EM@GPJLADAA@?$AAV?$AAC?$AAC?$AAR?$AAT?$AA?2?$AAv?$AAc?$AAr?$AAu?$AAn?$AAt?$AAi?$AAm?$AAe@ 0000000140049ce0     libucrtd:getstringtypea.obj
 0002:00007d30       ??_C@_0DJ@HCPJODDK@minkernel?2crts?2ucrt?2src?2appcrt?2@ 0000000140049d30     libucrtd:getstringtypea.obj
 0002:00007d70       ??_C@_1BKC@NBNHJIDM@?$AA?$CI?$AAp?$AAt?$AAl?$AAo?$AAc?$AAi?$AA?9?$AA?$DO?$AAl?$AAc?$AA_?$AAc?$AAa?$AAt@ 0000000140049d70     libucrtd:locale_refcounting.obj
 0002:00007f20       ??_C@_1HK@HCNMEOLA@?$AAm?$AAi?$AAn?$AAk?$AAe?$AAr?$AAn?$AAe?$AAl?$AA?2?$AAc?$AAr?$AAt?$AAs?$AA?2@ 0000000140049f20     libucrtd:locale_refcounting.obj
 0002:00007f9c       ??_C@_15PJPFLCCM@?$AAu?$AAk@ 0000000140049f9c     libucrtd:get_qualified_locale.obj
 0002:00008060       ??_C@_1EA@JGEFHKEI@?$AAa?$AAp?$AAi?$AA?9?$AAm?$AAs?$AA?9?$AAw?$AAi?$AAn?$AA?9?$AAc?$AAo?$AAr?$AAe@ 000000014004a060     libucrtd:winapi_thunks.obj
 0002:000080a0       ??_C@_1DI@KMEPCBPN@?$AAa?$AAp?$AAi?$AA?9?$AAm?$AAs?$AA?9?$AAw?$AAi?$AAn?$AA?9?$AAc?$AAo?$AAr?$AAe@ 000000014004a0a0     libucrtd:winapi_thunks.obj
 0002:000080d8       ??_C@_1DI@IJCEHOCB@?$AAa?$AAp?$AAi?$AA?9?$AAm?$AAs?$AA?9?$AAw?$AAi?$AAn?$AA?9?$AAc?$AAo?$AAr?$AAe@ 000000014004a0d8     libucrtd:winapi_thunks.obj
 0002:00008110       ??_C@_1EI@MPIAOHOC@?$AAa?$AAp?$AAi?$AA?9?$AAm?$AAs?$AA?9?$AAw?$AAi?$AAn?$AA?9?$AAc?$AAo?$AAr?$AAe@ 000000014004a110     libucrtd:winapi_thunks.obj
 0002:00008160       ??_C@_1FK@FPHCKFIE@?$AAa?$AAp?$AAi?$AA?9?$AAm?$AAs?$AA?9?$AAw?$AAi?$AAn?$AA?9?$AAc?$AAo?$AAr?$AAe@ 000000014004a160     libucrtd:winapi_thunks.obj
 0002:000081c0       ??_C@_1EM@DILCGIIO@?$AAa?$AAp?$AAi?$AA?9?$AAm?$AAs?$AA?9?$AAw?$AAi?$AAn?$AA?9?$AAc?$AAo?$AAr?$AAe@ 000000014004a1c0     libucrtd:winapi_thunks.obj
 0002:00008210       ??_C@_1DM@LNCGDDPN@?$AAa?$AAp?$AAi?$AA?9?$AAm?$AAs?$AA?9?$AAw?$AAi?$AAn?$AA?9?$AAc?$AAo?$AAr?$AAe@ 000000014004a210     libucrtd:winapi_thunks.obj
 0002:00008250       ??_C@_1DO@FPAPJEMD@?$AAa?$AAp?$AAi?$AA?9?$AAm?$AAs?$AA?9?$AAw?$AAi?$AAn?$AA?9?$AAc?$AAo?$AAr?$AAe@ 000000014004a250     libucrtd:winapi_thunks.obj
 0002:00008290       ??_C@_1DK@NDHNAHIO@?$AAa?$AAp?$AAi?$AA?9?$AAm?$AAs?$AA?9?$AAw?$AAi?$AAn?$AA?9?$AAc?$AAo?$AAr?$AAe@ 000000014004a290     libucrtd:winapi_thunks.obj
 0002:000082d0       ??_C@_1DM@KGHDGBCM@?$AAa?$AAp?$AAi?$AA?9?$AAm?$AAs?$AA?9?$AAw?$AAi?$AAn?$AA?9?$AAc?$AAo?$AAr?$AAe@ 000000014004a2d0     libucrtd:winapi_thunks.obj
 0002:00008310       ??_C@_1EO@IJIOEFOH@?$AAa?$AAp?$AAi?$AA?9?$AAm?$AAs?$AA?9?$AAw?$AAi?$AAn?$AA?9?$AAr?$AAt?$AAc?$AAo@ 000000014004a310     libucrtd:winapi_thunks.obj
 0002:00008360       ??_C@_1FG@HHGEKANL@?$AAa?$AAp?$AAi?$AA?9?$AAm?$AAs?$AA?9?$AAw?$AAi?$AAn?$AA?9?$AAs?$AAe?$AAc?$AAu@ 000000014004a360     libucrtd:winapi_thunks.obj
 0002:000083c0       ??_C@_1EG@DBIOJECG@?$AAe?$AAx?$AAt?$AA?9?$AAm?$AAs?$AA?9?$AAw?$AAi?$AAn?$AA?9?$AAn?$AAt?$AAu?$AAs@ 000000014004a3c0     libucrtd:winapi_thunks.obj
 0002:00008410       ??_C@_1EO@FIHMJCLF@?$AAe?$AAx?$AAt?$AA?9?$AAm?$AAs?$AA?9?$AAw?$AAi?$AAn?$AA?9?$AAn?$AAt?$AAu?$AAs@ 000000014004a410     libucrtd:winapi_thunks.obj
 0002:00008460       ??_C@_1BC@DNHGCMLG@?$AAa?$AAd?$AAv?$AAa?$AAp?$AAi?$AA3?$AA2@ 000000014004a460     libucrtd:winapi_thunks.obj
 0002:00008478       ??_C@_1BG@CJPGBMEF@?$AAk?$AAe?$AAr?$AAn?$AAe?$AAl?$AAb?$AAa?$AAs?$AAe@ 000000014004a478     libucrtd:winapi_thunks.obj
 0002:00008490       ??_C@_1M@OAIMIKLP@?$AAn?$AAt?$AAd?$AAl?$AAl@ 000000014004a490     libucrtd:winapi_thunks.obj
 0002:000084a0       ??_C@_1EG@DPGNFKGC@?$AAa?$AAp?$AAi?$AA?9?$AAm?$AAs?$AA?9?$AAw?$AAi?$AAn?$AA?9?$AAa?$AAp?$AAp?$AAm@ 000000014004a4a0     libucrtd:winapi_thunks.obj
 0002:000084e8       ??_C@_1O@BCCLBEOE@?$AAu?$AAs?$AAe?$AAr?$AA3?$AA2@ 000000014004a4e8     libucrtd:winapi_thunks.obj
 0002:000084f8       ??_C@_1BA@IAIFMGEF@?$AAe?$AAx?$AAt?$AA?9?$AAm?$AAs?$AA?9@ 000000014004a4f8     libucrtd:winapi_thunks.obj
 0002:00008510       ??_C@_1HE@OILMBOBA@?$AAm?$AAi?$AAn?$AAk?$AAe?$AAr?$AAn?$AAe?$AAl?$AA?2?$AAc?$AAr?$AAt?$AAs?$AA?2@ 000000014004a510     libucrtd:winapi_thunks.obj
 0002:00008588       ??_C@_0BA@FHFNEAED@AreFileApisANSI@ 000000014004a588     libucrtd:winapi_thunks.obj
 0002:000085a0       ??_C@_0BA@HNOPNCHB@GetActiveWindow@ 000000014004a5a0     libucrtd:winapi_thunks.obj
 0002:000085b8       ??_C@_0BD@HHGDFDBJ@GetLastActivePopup@ 000000014004a5b8     libucrtd:winapi_thunks.obj
 0002:000085d8       ??_C@_0BI@DFKBFLJE@GetProcessWindowStation@ 000000014004a5d8     libucrtd:winapi_thunks.obj
 0002:000085f8       ??_C@_0BK@DEKFELLI@GetUserObjectInformationW@ 000000014004a5f8     libucrtd:winapi_thunks.obj
 0002:00008628       ??_C@_0O@KKBNKAPF@LCMapStringEx@ 000000014004a628     libucrtd:winapi_thunks.obj
 0002:00008640       ??_C@_0BB@HBDEELFH@LocaleNameToLCID@ 000000014004a640     libucrtd:winapi_thunks.obj
 0002:00008660       ??_C@_0M@CHKKJDAI@MessageBoxA@ 000000014004a660     libucrtd:winapi_thunks.obj
 0002:00008678       ??_C@_0M@DLDCCGNP@MessageBoxW@ 000000014004a678     libucrtd:winapi_thunks.obj
 0002:00008688       ??_C@_0CF@OJOFEIGO@AppPolicyGetProcessTerminationM@ 000000014004a688     libucrtd:winapi_thunks.obj
 0002:000086b8       ??_C@_0CE@OICFMIKE@AppPolicyGetShowDeveloperDiagno@ 000000014004a6b8     libucrtd:winapi_thunks.obj
 0002:000086e0       ??_C@_0BL@ODDJNEDA@AppPolicyGetWindowingModel@ 000000014004a6e0     libucrtd:winapi_thunks.obj
 0002:00008728       ??_C@_1DA@NBILLKNO@?$AAl?$AAo?$AAc?$AAa?$AAl?$AA_?$AAa?$AAc?$AAt?$AAi?$AAo?$AAn?$AA?5?$AA?$CB?$AA?$DN@ 000000014004a728     libucrtd:signal.obj
 0002:00008760       ??_C@_1FO@CCGDPEKE@?$AAm?$AAi?$AAn?$AAk?$AAe?$AAr?$AAn?$AAe?$AAl?$AA?2?$AAc?$AAr?$AAt?$AAs?$AA?2@ 000000014004a760     libucrtd:signal.obj
 0002:000087c0       ??_C@_1M@DMJEIKHL@?$AAr?$AAa?$AAi?$AAs?$AAe@ 000000014004a7c0     libucrtd:signal.obj
 0002:000087d0       ??_C@_1DO@MLNEDKGB@?$AA?$CI?$AA?$CC?$AAI?$AAn?$AAv?$AAa?$AAl?$AAi?$AAd?$AA?5?$AAs?$AAi?$AAg?$AAn?$AAa@ 000000014004a7d0     libucrtd:signal.obj
 0002:00008810       ??_C@_1DC@OGOLMDEL@?$AAp?$AAu?$AAb?$AAl?$AAi?$AAc?$AA_?$AAs?$AAt?$AAr?$AAe?$AAa?$AAm?$AA?5?$AA?$CB@ 000000014004a810     libucrtd:_sftbuf.obj
 0002:00008850       ??_C@_1FO@GEKPJHID@?$AAm?$AAi?$AAn?$AAk?$AAe?$AAr?$AAn?$AAe?$AAl?$AA?2?$AAc?$AAr?$AAt?$AAs?$AA?2@ 000000014004a850     libucrtd:expand.obj
 0002:000088b0       ??_C@_1BK@JMCGJOCC@?$AA_?$AAe?$AAx?$AAp?$AAa?$AAn?$AAd?$AA_?$AAb?$AAa?$AAs?$AAe@ 000000014004a8b0     libucrtd:expand.obj
 0002:00008950       ??_C@_03OEIAHPBN@INF@      000000014004a950     libucrtd:cvt.obj
 0002:00008954       ??_C@_03OJHLLCGB@inf@      000000014004a954     libucrtd:cvt.obj
 0002:00008958       ??_C@_03LKNCIKJB@NAN@      000000014004a958     libucrtd:cvt.obj
 0002:0000895c       ??_C@_03LHCJEHON@nan@      000000014004a95c     libucrtd:cvt.obj
 0002:00008960       ??_C@_09OFJJIMPC@NAN?$CISNAN?$CJ@ 000000014004a960     libucrtd:cvt.obj
 0002:00008970       ??_C@_09IPFBKMDL@nan?$CIsnan?$CJ@ 000000014004a970     libucrtd:cvt.obj
 0002:00008980       ??_C@_08IKHNHAJ@NAN?$CIIND?$CJ@ 000000014004a980     libucrtd:cvt.obj
 0002:00008990       ??_C@_08OFCDMILK@nan?$CIind?$CJ@ 000000014004a990     libucrtd:cvt.obj
 0002:000089a0       ??_C@_1FO@GKAKAPLI@?$AAm?$AAi?$AAn?$AAk?$AAe?$AAr?$AAn?$AAe?$AAl?$AA?2?$AAc?$AAr?$AAt?$AAs?$AA?2@ 000000014004a9a0     libucrtd:cvt.obj
 0002:00008a00       ??_C@_1DE@EHGIGIDK@?$AAf?$AAp?$AA_?$AAf?$AAo?$AAr?$AAm?$AAa?$AAt?$AA_?$AAn?$AAa?$AAn?$AA_?$AAo@ 000000014004aa00     libucrtd:cvt.obj
 0002:00008a40       ??_C@_1LI@PCMLJPCO@?$AAs?$AAt?$AAr?$AAc?$AAp?$AAy?$AA_?$AAs?$AA?$CI?$AA?5?$AAr?$AAe?$AAs?$AAu?$AAl@ 000000014004aa40     libucrtd:cvt.obj
 0002:00008b00       ??_C@_1KO@LJHOFBCD@?$AAr?$AAe?$AAs?$AAu?$AAl?$AAt?$AA_?$AAb?$AAu?$AAf?$AAf?$AAe?$AAr?$AA_?$AAc@ 000000014004ab00     libucrtd:cvt.obj
 0002:00008bb0       ??_C@_1CK@BOLHOMFO@?$AAf?$AAp?$AA_?$AAf?$AAo?$AAr?$AAm?$AAa?$AAt?$AA_?$AAe?$AA_?$AAi?$AAn?$AAt@ 000000014004abb0     libucrtd:cvt.obj
 0002:00008be0       ??_C@_1BBE@LHDOMEDC@?$AAs?$AAt?$AAr?$AAc?$AAp?$AAy?$AA_?$AAs?$AA?$CI?$AA?5?$AAp?$AA?0?$AA?5?$AAr?$AAe@ 000000014004abe0     libucrtd:cvt.obj
 0002:00008cf4       ??_C@_05KLBDPFGC@e?$CL000@ 000000014004acf4     libucrtd:cvt.obj
 0002:00008d00       ??_C@_1IC@FILKPBAB@?$AAr?$AAe?$AAs?$AAu?$AAl?$AAt?$AA_?$AAb?$AAu?$AAf?$AAf?$AAe?$AAr?$AA_?$AAc@ 000000014004ad00     libucrtd:cvt.obj
 0002:00008d88       ??_C@_1BI@PNBDLNBB@?$AAf?$AAp?$AA_?$AAf?$AAo?$AAr?$AAm?$AAa?$AAt?$AA_?$AAa@ 000000014004ad88     libucrtd:cvt.obj
 0002:00008da0       ??_C@_1DC@MGKAFPFD@?$AAr?$AAe?$AAs?$AAu?$AAl?$AAt?$AA_?$AAb?$AAu?$AAf?$AAf?$AAe?$AAr?$AA?5?$AA?$CB@ 000000014004ada0     libucrtd:cvt.obj
 0002:00008dd8       ??_C@_1CC@LDAHJAKK@?$AA_?$AA_?$AAa?$AAc?$AAr?$AAt?$AA_?$AAf?$AAp?$AA_?$AAf?$AAo?$AAr?$AAm?$AAa@ 000000014004add8     libucrtd:cvt.obj
 0002:00008e00       ??_C@_1DA@NMLJJOCO@?$AAr?$AAe?$AAs?$AAu?$AAl?$AAt?$AA_?$AAb?$AAu?$AAf?$AAf?$AAe?$AAr?$AA_?$AAc@ 000000014004ae00     libucrtd:cvt.obj
 0002:00008e30       ??_C@_1DE@MNOPBCOK@?$AAs?$AAc?$AAr?$AAa?$AAt?$AAc?$AAh?$AA_?$AAb?$AAu?$AAf?$AAf?$AAe?$AAr?$AA?5@ 000000014004ae30     libucrtd:cvt.obj
 0002:00008e68       ??_C@_1DC@CKBKNFKH@?$AAs?$AAc?$AAr?$AAa?$AAt?$AAc?$AAh?$AA_?$AAb?$AAu?$AAf?$AAf?$AAe?$AAr?$AA_@ 000000014004ae68     libucrtd:cvt.obj
 0002:00008ea0       ??_C@_1EI@JAHBOGIM@?$AA?$CI?$AA?$CC?$AAU?$AAn?$AAs?$AAu?$AAp?$AAp?$AAo?$AAr?$AAt?$AAe?$AAd?$AA?5?$AAf@ 000000014004aea0     libucrtd:cvt.obj
 0002:00008ee8       ??_C@_1DK@NBNOAGKB@?$AAd?$AAe?$AAs?$AAt?$AAi?$AAn?$AAa?$AAt?$AAi?$AAo?$AAn?$AA_?$AAc?$AAo?$AAu@ 000000014004aee8     libucrtd:wctomb.obj
 0002:00008f30       ??_C@_1GE@FCCEPHFG@?$AAm?$AAi?$AAn?$AAk?$AAe?$AAr?$AAn?$AAe?$AAl?$AA?2?$AAc?$AAr?$AAt?$AAs?$AA?2@ 000000014004af30     libucrtd:wctomb.obj
 0002:00008f98       ??_C@_1CC@DNLKBKLK@?$AA_?$AAw?$AAc?$AAt?$AAo?$AAm?$AAb?$AA_?$AAi?$AAn?$AAt?$AAe?$AAr?$AAn?$AAa@ 000000014004af98     libucrtd:wctomb.obj
 0002:00008fc0       ??_C@_1CM@ENFEGCNE@?$AAd?$AAe?$AAs?$AAt?$AAi?$AAn?$AAa?$AAt?$AAi?$AAo?$AAn?$AA_?$AAc?$AAo?$AAu@ 000000014004afc0     libucrtd:wctomb.obj
 0002:00008ff0       ??_C@_1MK@HFAFPEDL@?$AAl?$AAo?$AAc?$AAa?$AAl?$AAe?$AA?9?$AA?$DO?$AAl?$AAo?$AAc?$AAi?$AAn?$AAf?$AAo@ 000000014004aff0     libucrtd:mbtowc.obj
 0002:000090c0       ??_C@_1GE@CGIHMDEJ@?$AAm?$AAi?$AAn?$AAk?$AAe?$AAr?$AAn?$AAe?$AAl?$AA?2?$AAc?$AAr?$AAt?$AAs?$AA?2@ 000000014004b0c0     libucrtd:mbtowc.obj
 0002:00009130       ??_C@_1HA@KNBGJAIN@?$AAU?$AAT?$AAF?$AA?9?$AA8?$AA?5?$AAi?$AAs?$AAn?$AA?8?$AAt?$AA?5?$AAs?$AAu?$AAp@ 000000014004b130     libucrtd:mbtowc.obj
 0002:000091a0       ??_C@_1OM@FCINAOPP@?$AAl?$AAo?$AAc?$AAa?$AAl?$AAe?$AA?9?$AA?$DO?$AAl?$AAo?$AAc?$AAi?$AAn?$AAf?$AAo@ 000000014004b1a0     libucrtd:mbtowc.obj
 0002:00009290       ??_C@_1GA@CPNOFAH@?$AAl?$AAo?$AAc?$AAa?$AAl?$AAe?$AA?9?$AA?$DO?$AAl?$AAo?$AAc?$AAi?$AAn?$AAf?$AAo@ 000000014004b290     libucrtd:mbtowc.obj
 0002:000092f0       ??_C@_1BO@MHPFFFJJ@?$AAs?$AAt?$AAr?$AAe?$AAa?$AAm?$AA?4?$AAv?$AAa?$AAl?$AAi?$AAd?$AA?$CI?$AA?$CJ@ 000000014004b2f0     libucrtd:fileno.obj
 0002:00009310       ??_C@_1GA@KCAHHNGP@?$AAm?$AAi?$AAn?$AAk?$AAe?$AAr?$AAn?$AAe?$AAl?$AA?2?$AAc?$AAr?$AAt?$AAs?$AA?2@ 000000014004b310     libucrtd:fileno.obj
 0002:00009370       ??_C@_1BA@JGHIEKKM@?$AA_?$AAf?$AAi?$AAl?$AAe?$AAn?$AAo@ 000000014004b370     libucrtd:fileno.obj
 0002:00009380       ??_C@_0CP@GDJHIDC@minkernel?2crts?2ucrt?2src?2appcrt?2@ 000000014004b380     libucrtd:_file.obj
 0002:000093b0       ??_C@_1GA@LFAOKOOP@?$AAm?$AAi?$AAn?$AAk?$AAe?$AAr?$AAn?$AAe?$AAl?$AA?2?$AAc?$AAr?$AAt?$AAs?$AA?2@ 000000014004b3b0     libucrtd:dbgrptt.obj
 0002:00009410       ??_C@_1CA@KHJHLKA@?$AA_?$AAV?$AAC?$AAr?$AAt?$AAD?$AAb?$AAg?$AAR?$AAe?$AAp?$AAo?$AAr?$AAt?$AAA@ 000000014004b410     libucrtd:dbgrptt.obj
 0002:00009430       ??_C@_1FA@JPHJBHEM@?$AA_?$AAi?$AAt?$AAo?$AAa?$AA_?$AAs?$AA?$CI?$AAn?$AAL?$AAi?$AAn?$AAe?$AA?0?$AA?5@ 000000014004b430     libucrtd:dbgrptt.obj
 0002:00009480       ??_C@_0CG@BNGLOCEO@Second?5Chance?5Assertion?5Failed?3@ 000000014004b480     libucrtd:dbgrptt.obj
 0002:000094a8       ??_C@_0P@DFJNDPOP@?$DMfile?5unknown?$DO@ 000000014004b4a8     libucrtd:dbgrptt.obj
 0002:000094b8       ??_C@_07BHGABMGB@?0?5Line?5@ 000000014004b4b8     libucrtd:dbgrptt.obj
 0002:000094c0       ??_C@_01EEMJAFIK@?6@       000000014004b4c0     libucrtd:dbgrptt.obj
 0002:000094d0       ??_C@_1JI@GAALPGBM@?$AAs?$AAt?$AAr?$AAc?$AAp?$AAy?$AA_?$AAs?$AA?$CI?$AAs?$AAz?$AAU?$AAs?$AAe?$AAr@ 000000014004b4d0     libucrtd:dbgrptt.obj
 0002:00009568       ??_C@_0CL@EACFGMNB@_CrtDbgReport?3?5String?5too?5long?5@ 000000014004b568     libucrtd:dbgrptt.obj
 0002:000095a0       ??_C@_1KK@GIGAEDMO@?$AAs?$AAt?$AAr?$AAc?$AAp?$AAy?$AA_?$AAs?$AA?$CI?$AAs?$AAz?$AAL?$AAi?$AAn?$AAe@ 000000014004b5a0     libucrtd:dbgrptt.obj
 0002:00009650       ??_C@_0BD@CAENFOHP@Assertion?5failed?3?5@ 000000014004b650     libucrtd:dbgrptt.obj
 0002:00009668       ??_C@_0BC@LAIDCHCH@Assertion?5failed?$CB@ 000000014004b668     libucrtd:dbgrptt.obj
 0002:00009680       ??_C@_1FK@NPGBPOFO@?$AAs?$AAt?$AAr?$AAc?$AAa?$AAt?$AA_?$AAs?$AA?$CI?$AAs?$AAz?$AAL?$AAi?$AAn?$AAe@ 000000014004b680     libucrtd:dbgrptt.obj
 0002:000096e0       ??_C@_1EI@CACDLAFK@?$AAs?$AAt?$AAr?$AAc?$AAa?$AAt?$AA_?$AAs?$AA?$CI?$AAs?$AAz?$AAL?$AAi?$AAn?$AAe@ 000000014004b6e0     libucrtd:dbgrptt.obj
 0002:00009728       ??_C@_01LIIJDEN@?$AN@      000000014004b728     libucrtd:dbgrptt.obj
 0002:00009730       ??_C@_1EI@LDHJEDO@?$AAs?$AAt?$AAr?$AAc?$AAa?$AAt?$AA_?$AAs?$AA?$CI?$AAs?$AAz?$AAL?$AAi?$AAn?$AAe@ 000000014004b730     libucrtd:dbgrptt.obj
 0002:00009778       ??_C@_0M@IPILFDFN@?$CFs?$CI?$CFd?$CJ?5?3?5?$CFs@ 000000014004b778     libucrtd:dbgrptt.obj
 0002:00009790       ??_C@_1JG@CPKCIOEE@?$AAs?$AAt?$AAr?$AAc?$AAp?$AAy?$AA_?$AAs?$AA?$CI?$AAs?$AAz?$AAO?$AAu?$AAt?$AAM@ 000000014004b790     libucrtd:dbgrptt.obj
 0002:00009830       ??_C@_1FI@IBIOIHEG@?$AAs?$AAt?$AAr?$AAc?$AAp?$AAy?$AA_?$AAs?$AA?$CI?$AAs?$AAz?$AAO?$AAu?$AAt?$AAM@ 000000014004b830     libucrtd:dbgrptt.obj
 0002:00009890       ??_C@_1IM@OOKIFKOH@?$AAe?$AA?5?$AA?$DN?$AA?5?$AAm?$AAb?$AAs?$AAt?$AAo?$AAw?$AAc?$AAs?$AA_?$AAs?$AA?$CI@ 000000014004b890     libucrtd:dbgrptt.obj
 0002:00009920       ??_C@_1MC@IGEECMDB@?$AAw?$AAc?$AAs?$AAc?$AAp?$AAy?$AA_?$AAs?$AA?$CI?$AAs?$AAz?$AAO?$AAu?$AAt?$AAM@ 000000014004b920     libucrtd:dbgrptt.obj
 0002:000099f0       ??_C@_1HO@PJOFIKFE@?$AA_?$AAC?$AAr?$AAt?$AAD?$AAb?$AAg?$AAR?$AAe?$AAp?$AAo?$AAr?$AAt?$AA?3?$AA?5@ 000000014004b9f0     libucrtd:dbgrptt.obj
 0002:00009a70       ??_C@_1CA@HPALHDOD@?$AA_?$AAV?$AAC?$AAr?$AAt?$AAD?$AAb?$AAg?$AAR?$AAe?$AAp?$AAo?$AAr?$AAt?$AAW@ 000000014004ba70     libucrtd:dbgrptt.obj
 0002:00009a90       ??_C@_1FA@CNLLOMHI@?$AA_?$AAi?$AAt?$AAo?$AAw?$AA_?$AAs?$AA?$CI?$AAn?$AAL?$AAi?$AAn?$AAe?$AA?0?$AA?5@ 000000014004ba90     libucrtd:dbgrptt.obj
 0002:00009ae0       ??_C@_1EM@MJFLEDMB@?$AAS?$AAe?$AAc?$AAo?$AAn?$AAd?$AA?5?$AAC?$AAh?$AAa?$AAn?$AAc?$AAe?$AA?5?$AAA@ 000000014004bae0     libucrtd:dbgrptt.obj
 0002:00009b30       ??_C@_1BO@OCHMLCAG@?$AA?$DM?$AAf?$AAi?$AAl?$AAe?$AA?5?$AAu?$AAn?$AAk?$AAn?$AAo?$AAw?$AAn?$AA?$DO@ 000000014004bb30     libucrtd:dbgrptt.obj
 0002:00009b50       ??_C@_1BA@ELMMDCFC@?$AA?0?$AA?5?$AAL?$AAi?$AAn?$AAe?$AA?5@ 000000014004bb50     libucrtd:dbgrptt.obj
 0002:00009b60       ??_C@_13LBAGMAIH@?$AA?6@   000000014004bb60     libucrtd:dbgrptt.obj
 0002:00009b70       ??_C@_1JK@KHFABAEO@?$AAw?$AAc?$AAs?$AAc?$AAp?$AAy?$AA_?$AAs?$AA?$CI?$AAs?$AAz?$AAU?$AAs?$AAe?$AAr@ 000000014004bb70     libucrtd:dbgrptt.obj
 0002:00009c10       ??_C@_1KO@DGAHENCH@?$AAw?$AAc?$AAs?$AAc?$AAp?$AAy?$AA_?$AAs?$AA?$CI?$AAs?$AAz?$AAL?$AAi?$AAn?$AAe@ 000000014004bc10     libucrtd:dbgrptt.obj
 0002:00009cc0       ??_C@_1CG@FFFGGODN@?$AAA?$AAs?$AAs?$AAe?$AAr?$AAt?$AAi?$AAo?$AAn?$AA?5?$AAf?$AAa?$AAi?$AAl?$AAe@ 000000014004bcc0     libucrtd:dbgrptt.obj
 0002:00009ce8       ??_C@_1CE@OJBNHDMO@?$AAA?$AAs?$AAs?$AAe?$AAr?$AAt?$AAi?$AAo?$AAn?$AA?5?$AAf?$AAa?$AAi?$AAl?$AAe@ 000000014004bce8     libucrtd:dbgrptt.obj
 0002:00009d10       ??_C@_1FK@HPADHBBD@?$AAw?$AAc?$AAs?$AAc?$AAa?$AAt?$AA_?$AAs?$AA?$CI?$AAs?$AAz?$AAL?$AAi?$AAn?$AAe@ 000000014004bd10     libucrtd:dbgrptt.obj
 0002:00009d70       ??_C@_1EK@NMDFGHMF@?$AAw?$AAc?$AAs?$AAc?$AAa?$AAt?$AA_?$AAs?$AA?$CI?$AAs?$AAz?$AAL?$AAi?$AAn?$AAe@ 000000014004bd70     libucrtd:dbgrptt.obj
 0002:00009dbc       ??_C@_13CMNBPIDO@?$AA?$AN@ 000000014004bdbc     libucrtd:dbgrptt.obj
 0002:00009dc0       ??_C@_1EK@PHCBEDKB@?$AAw?$AAc?$AAs?$AAc?$AAa?$AAt?$AA_?$AAs?$AA?$CI?$AAs?$AAz?$AAL?$AAi?$AAn?$AAe@ 000000014004bdc0     libucrtd:dbgrptt.obj
 0002:00009e10       ??_C@_1BM@GIBPMLNL@?$AA?$CF?$AAl?$AAs?$AA?$CI?$AA?$CF?$AAd?$AA?$CJ?$AA?5?$AA?3?$AA?5?$AA?$CF?$AAl?$AAs@ 000000014004be10     libucrtd:dbgrptt.obj
 0002:00009e30       ??_C@_1JI@EACPGHID@?$AAw?$AAc?$AAs?$AAc?$AAp?$AAy?$AA_?$AAs?$AA?$CI?$AAs?$AAz?$AAO?$AAu?$AAt?$AAM@ 000000014004be30     libucrtd:dbgrptt.obj
 0002:00009ed0       ??_C@_1FI@DBAIJPJE@?$AAw?$AAc?$AAs?$AAc?$AAp?$AAy?$AA_?$AAs?$AA?$CI?$AAs?$AAz?$AAO?$AAu?$AAt?$AAM@ 000000014004bed0     libucrtd:dbgrptt.obj
 0002:00009f30       ??_C@_1IK@LEBMBAP@?$AAw?$AAc?$AAs?$AAt?$AAo?$AAm?$AAb?$AAs?$AA_?$AAs?$AA?$CI?$AAn?$AAu?$AAl?$AAl@ 000000014004bf30     libucrtd:dbgrptt.obj
 0002:00009fc0       ??_C@_1MA@LBAMNNOB@?$AAs?$AAt?$AAr?$AAc?$AAp?$AAy?$AA_?$AAs?$AA?$CI?$AAs?$AAz?$AAO?$AAu?$AAt?$AAM@ 000000014004bfc0     libucrtd:dbgrptt.obj
 0002:0000a080       ??_C@_0DP@GNPEPHJD@_CrtDbgReport?3?5String?5too?5long?5@ 000000014004c080     libucrtd:dbgrptt.obj
 0002:0000a0c0       ??_C@_1IE@CPGKIAGP@?$AAw?$AAc?$AAs?$AAt?$AAo?$AAm?$AAb?$AAs?$AA_?$AAs?$AA?$CI?$AA?$CG?$AAr?$AAe?$AAt@ 000000014004c0c0     libucrtd:dbgrptt.obj
 0002:0000a170       ??_C@_1DI@OOEEHOBJ@?$AAb?$AAa?$AAs?$AAe?$AA?5?$AA?$CB?$AA?$DN?$AA?5?$AAn?$AAu?$AAl?$AAl?$AAp?$AAt?$AAr@ 000000014004c170     libucrtd:qsort.obj
 0002:0000a1b0       ??_C@_1GA@KPPCKKGE@?$AAm?$AAi?$AAn?$AAk?$AAe?$AAr?$AAn?$AAe?$AAl?$AA?2?$AAc?$AAr?$AAt?$AAs?$AA?2@ 000000014004c1b0     libucrtd:qsort.obj
 0002:0000a210       ??_C@_1M@INMHODIG@?$AAq?$AAs?$AAo?$AAr?$AAt@ 000000014004c210     libucrtd:qsort.obj
 0002:0000a220       ??_C@_1BE@NJBEBBME@?$AAw?$AAi?$AAd?$AAt?$AAh?$AA?5?$AA?$DO?$AA?5?$AA0@ 000000014004c220     libucrtd:qsort.obj
 0002:0000a238       ??_C@_1CA@LIDFOMIN@?$AAc?$AAo?$AAm?$AAp?$AA?5?$AA?$CB?$AA?$DN?$AA?5?$AAn?$AAu?$AAl?$AAl?$AAp?$AAt?$AAr@ 000000014004c238     libucrtd:qsort.obj
 0002:0000a258       ??_C@_1CE@BLLJFLOH@?$AAs?$AAt?$AAr?$AAi?$AAn?$AAg?$AA?5?$AA?$CB?$AA?$DN?$AA?5?$AAn?$AAu?$AAl?$AAl?$AAp@ 000000014004c258     libucrtd:mbsdec.obj
 0002:0000a280       ??_C@_1GO@DDOMFNGF@?$AAm?$AAi?$AAn?$AAk?$AAe?$AAr?$AAn?$AAe?$AAl?$AA?2?$AAc?$AAr?$AAt?$AAs?$AA?2@ 000000014004c280     libucrtd:mbsdec.obj
 0002:0000a2f0       ??_C@_1BE@KLNCOLCD@?$AA_?$AAm?$AAb?$AAs?$AAd?$AAe?$AAc?$AA_?$AAl@ 000000014004c2f0     libucrtd:mbsdec.obj
 0002:0000a308       ??_C@_1CG@CMGPGAOD@?$AAc?$AAu?$AAr?$AAr?$AAe?$AAn?$AAt?$AA?5?$AA?$CB?$AA?$DN?$AA?5?$AAn?$AAu?$AAl?$AAl@ 000000014004c308     libucrtd:mbsdec.obj
 0002:0000a330       ??_C@_0DH@IKPCBLP@minkernel?2crts?2ucrt?2src?2appcrt?2@ 000000014004c330     libucrtd:lcmapstringa.obj
 0002:0000a368       ??_C@_1CE@MCCHPLBM@?$AAb?$AAu?$AAf?$AAf?$AAe?$AAr?$AA?5?$AA?$CB?$AA?$DN?$AA?5?$AAn?$AAu?$AAl?$AAl?$AAp@ 000000014004c368     libucrtd:xtoa.obj
 0002:0000a390       ??_C@_1GA@HBEFGMHK@?$AAm?$AAi?$AAn?$AAk?$AAe?$AAr?$AAn?$AAe?$AAl?$AA?2?$AAc?$AAr?$AAt?$AAs?$AA?2@ 000000014004c390     libucrtd:xtoa.obj
 0002:0000a3f0       ??_C@_1BM@HMPEMLNP@?$AAc?$AAo?$AAm?$AAm?$AAo?$AAn?$AA_?$AAx?$AAt?$AAo?$AAx?$AA_?$AAs@ 000000014004c3f0     libucrtd:xtoa.obj
 0002:0000a410       ??_C@_1CC@ONIJBMJF@?$AAb?$AAu?$AAf?$AAf?$AAe?$AAr?$AA_?$AAc?$AAo?$AAu?$AAn?$AAt?$AA?5?$AA?$DO?$AA?5@ 000000014004c410     libucrtd:xtoa.obj
 0002:0000a440       ??_C@_1HA@JFIOFNKD@?$AAb?$AAu?$AAf?$AAf?$AAe?$AAr?$AA_?$AAc?$AAo?$AAu?$AAn?$AAt?$AA?5?$AA?$DO?$AA?5@ 000000014004c440     libucrtd:xtoa.obj
 0002:0000a4b0       ??_C@_1DE@PCJGDBBD@?$AA2?$AA?5?$AA?$DM?$AA?$DN?$AA?5?$AAr?$AAa?$AAd?$AAi?$AAx?$AA?5?$AA?$CG?$AA?$CG?$AA?5?$AAr@ 000000014004c4b0     libucrtd:xtoa.obj
 0002:0000a4e8       ??_C@_1CM@LONILNIJ@?$AAl?$AAe?$AAn?$AAg?$AAt?$AAh?$AA?5?$AA?$DM?$AA?5?$AAb?$AAu?$AAf?$AAf?$AAe?$AAr@ 000000014004c4e8     libucrtd:xtoa.obj
 0002:0000a518       ??_C@_1BI@OLPLFKOE@?$AAc?$AAo?$AAm?$AAm?$AAo?$AAn?$AA_?$AAx?$AAt?$AAo?$AAx@ 000000014004c518     libucrtd:xtoa.obj
 0002:0000b370       ??_C@_15EMKDOKLE@?$AAa?$AAr@ 000000014004d370     libucrtd:lcidtoname_downlevel.obj
 0002:0000b378       ??_C@_15KNPADPLH@?$AAb?$AAg@ 000000014004d378     libucrtd:lcidtoname_downlevel.obj
 0002:0000b380       ??_C@_15EDMHLDMO@?$AAc?$AAa@ 000000014004d380     libucrtd:lcidtoname_downlevel.obj
 0002:0000b388       ??_C@_1O@BPEAJADD@?$AAz?$AAh?$AA?9?$AAC?$AAH?$AAS@ 000000014004d388     libucrtd:lcidtoname_downlevel.obj
 0002:0000b398       ??_C@_15LJNHCMNK@?$AAc?$AAs@ 000000014004d398     libucrtd:lcidtoname_downlevel.obj
 0002:0000b3a0       ??_C@_15FOMCIDHG@?$AAd?$AAa@ 000000014004d3a0     libucrtd:lcidtoname_downlevel.obj
 0002:0000b3a8       ??_C@_15NBKABECB@?$AAd?$AAe@ 000000014004d3a8     libucrtd:lcidtoname_downlevel.obj
 0002:0000b3b0       ??_C@_15GHPEIIAO@?$AAe?$AAl@ 000000014004d3b0     libucrtd:lcidtoname_downlevel.obj
 0002:0000b3b8       ??_C@_15MNPNEAIF@?$AAe?$AAn@ 000000014004d3b8     libucrtd:lcidtoname_downlevel.obj
 0002:0000b3c0       ??_C@_15GPIOMPMH@?$AAe?$AAs@ 000000014004d3c0     libucrtd:lcidtoname_downlevel.obj
 0002:0000b3c8       ??_C@_15NGLOAKJC@?$AAf?$AAi@ 000000014004d3c8     libucrtd:lcidtoname_downlevel.obj
 0002:0000b3d0       ??_C@_15FBKGNKAM@?$AAf?$AAr@ 000000014004d3d0     libucrtd:lcidtoname_downlevel.obj
 0002:0000b3d8       ??_C@_15KGGCNEFK@?$AAh?$AAe@ 000000014004d3d8     libucrtd:lcidtoname_downlevel.obj
 0002:0000b3e0       ??_C@_15PGHLIDMF@?$AAh?$AAu@ 000000014004d3e0     libucrtd:lcidtoname_downlevel.obj
 0002:0000b3e8       ??_C@_15BIEMAPLM@?$AAi?$AAs@ 000000014004d3e8     libucrtd:lcidtoname_downlevel.obj
 0002:0000b3f0       ??_C@_15IFJLDHAF@?$AAi?$AAt@ 000000014004d3f0     libucrtd:lcidtoname_downlevel.obj
 0002:0000b3f8       ??_C@_15GEMIOCAG@?$AAj?$AAa@ 000000014004d3f8     libucrtd:lcidtoname_downlevel.obj
 0002:0000b400       ??_C@_15EPELEGJA@?$AAk?$AAo@ 000000014004d400     libucrtd:lcidtoname_downlevel.obj
 0002:0000b408       ??_C@_15NDDHIMN@?$AAn?$AAl@ 000000014004d408     libucrtd:lcidtoname_downlevel.obj
 0002:0000b410       ??_C@_15BPIGNHCD@?$AAn?$AAo@ 000000014004d410     libucrtd:lcidtoname_downlevel.obj
 0002:0000b418       ??_C@_15DEOPBLCG@?$AAp?$AAl@ 000000014004d418     libucrtd:lcidtoname_downlevel.obj
 0002:0000b420       ??_C@_15KBECGEFG@?$AAp?$AAt@ 000000014004d420     libucrtd:lcidtoname_downlevel.obj
 0002:0000b428       ??_C@_15GLJCBFMD@?$AAr?$AAo@ 000000014004d428     libucrtd:lcidtoname_downlevel.obj
 0002:0000b430       ??_C@_15FEDGKCDI@?$AAr?$AAu@ 000000014004d430     libucrtd:lcidtoname_downlevel.obj
 0002:0000b438       ??_C@_15GLKMLLHM@?$AAh?$AAr@ 000000014004d438     libucrtd:lcidtoname_downlevel.obj
 0002:0000b440       ??_C@_15CPKMFBDB@?$AAs?$AAk@ 000000014004d440     libucrtd:lcidtoname_downlevel.obj
 0002:0000b448       ??_C@_15BAAIOGMK@?$AAs?$AAq@ 000000014004d448     libucrtd:lcidtoname_downlevel.obj
 0002:0000b450       ??_C@_15INNPNOHD@?$AAs?$AAv@ 000000014004d450     libucrtd:lcidtoname_downlevel.obj
 0002:0000b458       ??_C@_15CABMMOGH@?$AAt?$AAh@ 000000014004d458     libucrtd:lcidtoname_downlevel.obj
 0002:0000b460       ??_C@_15BPLIHJJM@?$AAt?$AAr@ 000000014004d460     libucrtd:lcidtoname_downlevel.obj
 0002:0000b468       ??_C@_15NEOEKKDJ@?$AAu?$AAr@ 000000014004d468     libucrtd:lcidtoname_downlevel.obj
 0002:0000b470       ??_C@_15NFICGAJK@?$AAi?$AAd@ 000000014004d470     libucrtd:lcidtoname_downlevel.obj
 0002:0000b478       ??_C@_15HPJPHDM@?$AAb?$AAe@ 000000014004d478     libucrtd:lcidtoname_downlevel.obj
 0002:0000b480       ??_C@_15LCHLGJII@?$AAs?$AAl@ 000000014004d480     libucrtd:lcidtoname_downlevel.obj
 0002:0000b488       ??_C@_15PCFJPHHO@?$AAe?$AAt@ 000000014004d488     libucrtd:lcidtoname_downlevel.obj
 0002:0000b490       ??_C@_15HPFPGODN@?$AAl?$AAv@ 000000014004d490     libucrtd:lcidtoname_downlevel.obj
 0002:0000b498       ??_C@_15NFFGKGLG@?$AAl?$AAt@ 000000014004d498     libucrtd:lcidtoname_downlevel.obj
 0002:0000b4a0       ??_C@_15BDAKCCHN@?$AAf?$AAa@ 000000014004d4a0     libucrtd:lcidtoname_downlevel.obj
 0002:0000b4a8       ??_C@_15NFGIAIAJ@?$AAv?$AAi@ 000000014004d4a8     libucrtd:lcidtoname_downlevel.obj
 0002:0000b4b0       ??_C@_15LMKNDMHN@?$AAh?$AAy@ 000000014004d4b0     libucrtd:lcidtoname_downlevel.obj
 0002:0000b4b8       ??_C@_15IJBHMCFL@?$AAa?$AAz@ 000000014004d4b8     libucrtd:lcidtoname_downlevel.obj
 0002:0000b4c0       ??_C@_15EKOFJABL@?$AAe?$AAu@ 000000014004d4c0     libucrtd:lcidtoname_downlevel.obj
 0002:0000b4c8       ??_C@_15BGHADCNK@?$AAm?$AAk@ 000000014004d4c8     libucrtd:lcidtoname_downlevel.obj
 0002:0000b4d0       ??_C@_15JDNICKHM@?$AAa?$AAf@ 000000014004d4d0     libucrtd:lcidtoname_downlevel.obj
 0002:0000b4d8       ??_C@_15KPJEDBKD@?$AAk?$AAa@ 000000014004d4d8     libucrtd:lcidtoname_downlevel.obj
 0002:0000b4e0       ??_C@_15PDNFFFEO@?$AAf?$AAo@ 000000014004d4e0     libucrtd:lcidtoname_downlevel.obj
 0002:0000b4e8       ??_C@_15OMLEGLOC@?$AAh?$AAi@ 000000014004d4e8     libucrtd:lcidtoname_downlevel.obj
 0002:0000b4f0       ??_C@_15IDNNENKK@?$AAm?$AAs@ 000000014004d4f0     libucrtd:lcidtoname_downlevel.obj
 0002:0000b4f8       ??_C@_15MACJNBMH@?$AAk?$AAk@ 000000014004d4f8     libucrtd:lcidtoname_downlevel.obj
 0002:0000b500       ??_C@_15DKDJEOND@?$AAk?$AAy@ 000000014004d500     libucrtd:lcidtoname_downlevel.obj
 0002:0000b508       ??_C@_15DFGDLJBG@?$AAs?$AAw@ 000000014004d508     libucrtd:lcidtoname_downlevel.obj
 0002:0000b510       ??_C@_15BBFAICNG@?$AAu?$AAz@ 000000014004d510     libucrtd:lcidtoname_downlevel.obj
 0002:0000b518       ??_C@_15DKNDCGEA@?$AAt?$AAt@ 000000014004d518     libucrtd:lcidtoname_downlevel.obj
 0002:0000b520       ??_C@_15MGIFMDPL@?$AAp?$AAa@ 000000014004d520     libucrtd:lcidtoname_downlevel.obj
 0002:0000b528       ??_C@_15HCNDBBA@?$AAg?$AAu@ 000000014004d528     libucrtd:lcidtoname_downlevel.obj
 0002:0000b530       ??_C@_15FNBEIBON@?$AAt?$AAa@ 000000014004d530     libucrtd:lcidtoname_downlevel.obj
 0002:0000b538       ??_C@_15NCHGBGLK@?$AAt?$AAe@ 000000014004d538     libucrtd:lcidtoname_downlevel.obj
 0002:0000b540       ??_C@_15PHPHCBPF@?$AAk?$AAn@ 000000014004d540     libucrtd:lcidtoname_downlevel.obj
 0002:0000b548       ??_C@_15DLGBCKMP@?$AAm?$AAr@ 000000014004d548     libucrtd:lcidtoname_downlevel.obj
 0002:0000b550       ??_C@_15EABBLBFF@?$AAs?$AAa@ 000000014004d550     libucrtd:lcidtoname_downlevel.obj
 0002:0000b558       ??_C@_15CBKOMCOI@?$AAm?$AAn@ 000000014004d558     libucrtd:lcidtoname_downlevel.obj
 0002:0000b560       ??_C@_15CKDMCJAF@?$AAg?$AAl@ 000000014004d560     libucrtd:lcidtoname_downlevel.obj
 0002:0000b568       ??_C@_17CNJFBPG@?$AAk?$AAo?$AAk@ 000000014004d568     libucrtd:lcidtoname_downlevel.obj
 0002:0000b570       ??_C@_17FFBJICPL@?$AAs?$AAy?$AAr@ 000000014004d570     libucrtd:lcidtoname_downlevel.obj
 0002:0000b578       ??_C@_17KPNDCPAF@?$AAd?$AAi?$AAv@ 000000014004d578     libucrtd:lcidtoname_downlevel.obj
 0002:0000b580       ??_C@_1M@OKAHONE@?$AAa?$AAr?$AA?9?$AAS?$AAA@ 000000014004d580     libucrtd:lcidtoname_downlevel.obj
 0002:0000b590       ??_C@_1M@FFFIGIGK@?$AAb?$AAg?$AA?9?$AAB?$AAG@ 000000014004d590     libucrtd:lcidtoname_downlevel.obj
 0002:0000b5a0       ??_C@_1M@BJNKEDC@?$AAc?$AAa?$AA?9?$AAE?$AAS@ 000000014004d5a0     libucrtd:lcidtoname_downlevel.obj
 0002:0000b5b0       ??_C@_1M@IJJHFJHA@?$AAc?$AAs?$AA?9?$AAC?$AAZ@ 000000014004d5b0     libucrtd:lcidtoname_downlevel.obj
 0002:0000b5c0       ??_C@_1M@CLPEOBGI@?$AAd?$AAa?$AA?9?$AAD?$AAK@ 000000014004d5c0     libucrtd:lcidtoname_downlevel.obj
 0002:0000b5d0       ??_C@_1M@MCMADGCB@?$AAd?$AAe?$AA?9?$AAD?$AAE@ 000000014004d5d0     libucrtd:lcidtoname_downlevel.obj
 0002:0000b5e0       ??_C@_1M@OOCKEMAM@?$AAe?$AAl?$AA?9?$AAG?$AAR@ 000000014004d5e0     libucrtd:lcidtoname_downlevel.obj
 0002:0000b5f0       ??_C@_1M@DDNJFGID@?$AAf?$AAi?$AA?9?$AAF?$AAI@ 000000014004d5f0     libucrtd:lcidtoname_downlevel.obj
 0002:0000b600       ??_C@_1M@GLIPPMAC@?$AAf?$AAr?$AA?9?$AAF?$AAR@ 000000014004d600     libucrtd:lcidtoname_downlevel.obj
 0002:0000b610       ??_C@_1M@GFMCHPE@?$AAh?$AAe?$AA?9?$AAI?$AAL@ 000000014004d610     libucrtd:lcidtoname_downlevel.obj
 0002:0000b620       ??_C@_1M@MHLPGNKM@?$AAh?$AAu?$AA?9?$AAH?$AAU@ 000000014004d620     libucrtd:lcidtoname_downlevel.obj
 0002:0000b630       ??_C@_1M@LPDDNNPN@?$AAi?$AAs?$AA?9?$AAI?$AAS@ 000000014004d630     libucrtd:lcidtoname_downlevel.obj
 0002:0000b640       ??_C@_1M@MADIPODN@?$AAi?$AAt?$AA?9?$AAI?$AAT@ 000000014004d640     libucrtd:lcidtoname_downlevel.obj
 0002:0000b650       ??_C@_1M@IHBJJGG@?$AAn?$AAl?$AA?9?$AAN?$AAL@ 000000014004d650     libucrtd:lcidtoname_downlevel.obj
 0002:0000b660       ??_C@_1M@EANAGDL@?$AAn?$AAb?$AA?9?$AAN?$AAO@ 000000014004d660     libucrtd:lcidtoname_downlevel.obj
 0002:0000b670       ??_C@_1M@NEIEMEGP@?$AAp?$AAl?$AA?9?$AAP?$AAL@ 000000014004d670     libucrtd:lcidtoname_downlevel.obj
 0002:0000b680       ??_C@_1M@BOCFIGEP@?$AAp?$AAt?$AA?9?$AAB?$AAR@ 000000014004d680     libucrtd:lcidtoname_downlevel.obj
 0002:0000b690       ??_C@_1M@IMPFOPBG@?$AAr?$AAo?$AA?9?$AAR?$AAO@ 000000014004d690     libucrtd:lcidtoname_downlevel.obj
 0002:0000b6a0       ??_C@_1M@IDNNEJMM@?$AAr?$AAu?$AA?9?$AAR?$AAU@ 000000014004d6a0     libucrtd:lcidtoname_downlevel.obj
 0002:0000b6b0       ??_C@_1M@LILEEOGM@?$AAh?$AAr?$AA?9?$AAH?$AAR@ 000000014004d6b0     libucrtd:lcidtoname_downlevel.obj
 0002:0000b6c0       ??_C@_1M@FKIFEHPB@?$AAs?$AAk?$AA?9?$AAS?$AAK@ 000000014004d6c0     libucrtd:lcidtoname_downlevel.obj
 0002:0000b6d0       ??_C@_1M@LJMAMNPJ@?$AAs?$AAq?$AA?9?$AAA?$AAL@ 000000014004d6d0     libucrtd:lcidtoname_downlevel.obj
 0002:0000b6e0       ??_C@_1M@GIAKDKJK@?$AAs?$AAv?$AA?9?$AAS?$AAE@ 000000014004d6e0     libucrtd:lcidtoname_downlevel.obj
 0002:0000b6f0       ??_C@_1M@MKJKIKCL@?$AAt?$AAh?$AA?9?$AAT?$AAH@ 000000014004d6f0     libucrtd:lcidtoname_downlevel.obj
 0002:0000b700       ??_C@_1M@MFLCCMPB@?$AAt?$AAr?$AA?9?$AAT?$AAR@ 000000014004d700     libucrtd:lcidtoname_downlevel.obj
 0002:0000b710       ??_C@_1M@OIJHDKJN@?$AAu?$AAr?$AA?9?$AAP?$AAK@ 000000014004d710     libucrtd:lcidtoname_downlevel.obj
 0002:0000b720       ??_C@_1M@LHIPCIEK@?$AAi?$AAd?$AA?9?$AAI?$AAD@ 000000014004d720     libucrtd:lcidtoname_downlevel.obj
 0002:0000b730       ??_C@_1M@MFMOBGI@?$AAu?$AAk?$AA?9?$AAU?$AAA@ 000000014004d730     libucrtd:lcidtoname_downlevel.obj
 0002:0000b740       ??_C@_1M@OBGLJIPL@?$AAb?$AAe?$AA?9?$AAB?$AAY@ 000000014004d740     libucrtd:lcidtoname_downlevel.obj
 0002:0000b750       ??_C@_1M@BCFAJEAD@?$AAs?$AAl?$AA?9?$AAS?$AAI@ 000000014004d750     libucrtd:lcidtoname_downlevel.obj
 0002:0000b760       ??_C@_1M@FKFFEDDN@?$AAe?$AAt?$AA?9?$AAE?$AAE@ 000000014004d760     libucrtd:lcidtoname_downlevel.obj
 0002:0000b770       ??_C@_1M@KGKKAACI@?$AAl?$AAv?$AA?9?$AAL?$AAV@ 000000014004d770     libucrtd:lcidtoname_downlevel.obj
 0002:0000b780       ??_C@_1M@IFGBIJO@?$AAl?$AAt?$AA?9?$AAL?$AAT@ 000000014004d780     libucrtd:lcidtoname_downlevel.obj
 0002:0000b790       ??_C@_1M@FGEAHEDM@?$AAf?$AAa?$AA?9?$AAI?$AAR@ 000000014004d790     libucrtd:lcidtoname_downlevel.obj
 0002:0000b7a0       ??_C@_1M@KBMAIBFN@?$AAv?$AAi?$AA?9?$AAV?$AAN@ 000000014004d7a0     libucrtd:lcidtoname_downlevel.obj
 0002:0000b7b0       ??_C@_1M@GPCBKDJK@?$AAh?$AAy?$AA?9?$AAA?$AAM@ 000000014004d7b0     libucrtd:lcidtoname_downlevel.obj
 0002:0000b7c0       ??_C@_1BG@BECMDDJB@?$AAa?$AAz?$AA?9?$AAA?$AAZ?$AA?9?$AAL?$AAa?$AAt?$AAn@ 000000014004d7c0     libucrtd:lcidtoname_downlevel.obj
 0002:0000b7d8       ??_C@_1M@MAOFCAEA@?$AAe?$AAu?$AA?9?$AAE?$AAS@ 000000014004d7d8     libucrtd:lcidtoname_downlevel.obj
 0002:0000b7e8       ??_C@_1M@IGHABKPI@?$AAm?$AAk?$AA?9?$AAM?$AAK@ 000000014004d7e8     libucrtd:lcidtoname_downlevel.obj
 0002:0000b7f8       ??_C@_1M@IAIGNEJG@?$AAt?$AAn?$AA?9?$AAZ?$AAA@ 000000014004d7f8     libucrtd:lcidtoname_downlevel.obj
 0002:0000b808       ??_C@_1M@IIJCOJFA@?$AAx?$AAh?$AA?9?$AAZ?$AAA@ 000000014004d808     libucrtd:lcidtoname_downlevel.obj
 0002:0000b818       ??_C@_1M@LGPJHNJH@?$AAz?$AAu?$AA?9?$AAZ?$AAA@ 000000014004d818     libucrtd:lcidtoname_downlevel.obj
 0002:0000b828       ??_C@_1M@HOKAOIO@?$AAa?$AAf?$AA?9?$AAZ?$AAA@ 000000014004d828     libucrtd:lcidtoname_downlevel.obj
 0002:0000b838       ??_C@_1M@DPCLHLIE@?$AAk?$AAa?$AA?9?$AAG?$AAE@ 000000014004d838     libucrtd:lcidtoname_downlevel.obj
 0002:0000b848       ??_C@_1M@BLKMHJBI@?$AAf?$AAo?$AA?9?$AAF?$AAO@ 000000014004d848     libucrtd:lcidtoname_downlevel.obj
 0002:0000b858       ??_C@_1M@LGGJAPPB@?$AAh?$AAi?$AA?9?$AAI?$AAN@ 000000014004d858     libucrtd:lcidtoname_downlevel.obj
 0002:0000b868       ??_C@_1M@FIKPIHFE@?$AAm?$AAt?$AA?9?$AAM?$AAT@ 000000014004d868     libucrtd:lcidtoname_downlevel.obj
 0002:0000b878       ??_C@_1M@HEGGPBFA@?$AAs?$AAe?$AA?9?$AAN?$AAO@ 000000014004d878     libucrtd:lcidtoname_downlevel.obj
 0002:0000b888       ??_C@_1M@EIBJEEPA@?$AAm?$AAs?$AA?9?$AAM?$AAY@ 000000014004d888     libucrtd:lcidtoname_downlevel.obj
 0002:0000b898       ??_C@_1M@FHLBGMPP@?$AAk?$AAk?$AA?9?$AAK?$AAZ@ 000000014004d898     libucrtd:lcidtoname_downlevel.obj
 0002:0000b8a8       ??_C@_1M@NGJJLCGI@?$AAk?$AAy?$AA?9?$AAK?$AAG@ 000000014004d8a8     libucrtd:lcidtoname_downlevel.obj
 0002:0000b8b8       ??_C@_1M@GIENNBFC@?$AAs?$AAw?$AA?9?$AAK?$AAE@ 000000014004d8b8     libucrtd:lcidtoname_downlevel.obj
 0002:0000b8c8       ??_C@_1BG@NDGMJIMJ@?$AAu?$AAz?$AA?9?$AAU?$AAZ?$AA?9?$AAL?$AAa?$AAt?$AAn@ 000000014004d8c8     libucrtd:lcidtoname_downlevel.obj
 0002:0000b8e0       ??_C@_1M@IDCCIHBC@?$AAt?$AAt?$AA?9?$AAR?$AAU@ 000000014004d8e0     libucrtd:lcidtoname_downlevel.obj
 0002:0000b8f0       ??_C@_1M@LOICPMOJ@?$AAb?$AAn?$AA?9?$AAI?$AAN@ 000000014004d8f0     libucrtd:lcidtoname_downlevel.obj
 0002:0000b900       ??_C@_1M@KPKKNEAH@?$AAp?$AAa?$AA?9?$AAI?$AAN@ 000000014004d900     libucrtd:lcidtoname_downlevel.obj
 0002:0000b910       ??_C@_1M@PJGPPBOG@?$AAg?$AAu?$AA?9?$AAI?$AAN@ 000000014004d910     libucrtd:lcidtoname_downlevel.obj
 0002:0000b920       ??_C@_1M@KMKMOPHI@?$AAt?$AAa?$AA?9?$AAI?$AAN@ 000000014004d920     libucrtd:lcidtoname_downlevel.obj
 0002:0000b930       ??_C@_1M@KFEHEPAC@?$AAt?$AAe?$AA?9?$AAI?$AAN@ 000000014004d930     libucrtd:lcidtoname_downlevel.obj
 0002:0000b940       ??_C@_1M@CDCLMGHI@?$AAk?$AAn?$AA?9?$AAI?$AAN@ 000000014004d940     libucrtd:lcidtoname_downlevel.obj
 0002:0000b950       ??_C@_1M@MIODLDKF@?$AAm?$AAl?$AA?9?$AAI?$AAN@ 000000014004d950     libucrtd:lcidtoname_downlevel.obj
 0002:0000b960       ??_C@_1M@PBIEACPO@?$AAm?$AAr?$AA?9?$AAI?$AAN@ 000000014004d960     libucrtd:lcidtoname_downlevel.obj
 0002:0000b970       ??_C@_1M@NIDEAGPH@?$AAs?$AAa?$AA?9?$AAI?$AAN@ 000000014004d970     libucrtd:lcidtoname_downlevel.obj
 0002:0000b980       ??_C@_1M@FHIHCBIO@?$AAm?$AAn?$AA?9?$AAM?$AAN@ 000000014004d980     libucrtd:lcidtoname_downlevel.obj
 0002:0000b990       ??_C@_1M@JAIJPENP@?$AAc?$AAy?$AA?9?$AAG?$AAB@ 000000014004d990     libucrtd:lcidtoname_downlevel.obj
 0002:0000b9a0       ??_C@_1M@PHGFBEPN@?$AAg?$AAl?$AA?9?$AAE?$AAS@ 000000014004d9a0     libucrtd:lcidtoname_downlevel.obj
 0002:0000b9b0       ??_C@_1O@KPIPDNCP@?$AAk?$AAo?$AAk?$AA?9?$AAI?$AAN@ 000000014004d9b0     libucrtd:lcidtoname_downlevel.obj
 0002:0000b9c0       ??_C@_1O@KNHJLDJA@?$AAs?$AAy?$AAr?$AA?9?$AAS?$AAY@ 000000014004d9c0     libucrtd:lcidtoname_downlevel.obj
 0002:0000b9d0       ??_C@_1O@MKEKBLAH@?$AAd?$AAi?$AAv?$AA?9?$AAM?$AAV@ 000000014004d9d0     libucrtd:lcidtoname_downlevel.obj
 0002:0000b9e0       ??_C@_1O@OHDCKDDF@?$AAq?$AAu?$AAz?$AA?9?$AAB?$AAO@ 000000014004d9e0     libucrtd:lcidtoname_downlevel.obj
 0002:0000b9f0       ??_C@_1M@LEPJNLFD@?$AAn?$AAs?$AA?9?$AAZ?$AAA@ 000000014004d9f0     libucrtd:lcidtoname_downlevel.obj
 0002:0000ba00       ??_C@_1M@OMLEIIJB@?$AAm?$AAi?$AA?9?$AAN?$AAZ@ 000000014004da00     libucrtd:lcidtoname_downlevel.obj
 0002:0000ba10       ??_C@_1M@PMPEAILG@?$AAa?$AAr?$AA?9?$AAI?$AAQ@ 000000014004da10     libucrtd:lcidtoname_downlevel.obj
 0002:0000ba20       ??_C@_1M@CNKPNOEE@?$AAd?$AAe?$AA?9?$AAC?$AAH@ 000000014004da20     libucrtd:lcidtoname_downlevel.obj
 0002:0000ba30       ??_C@_1M@LKMGMLKO@?$AAe?$AAn?$AA?9?$AAG?$AAB@ 000000014004da30     libucrtd:lcidtoname_downlevel.obj
 0002:0000ba40       ??_C@_1M@PGKJFFGL@?$AAe?$AAs?$AA?9?$AAM?$AAX@ 000000014004da40     libucrtd:lcidtoname_downlevel.obj
 0002:0000ba50       ??_C@_1M@DNNANBDC@?$AAf?$AAr?$AA?9?$AAB?$AAE@ 000000014004da50     libucrtd:lcidtoname_downlevel.obj
 0002:0000ba60       ??_C@_1M@HLGMDFHM@?$AAi?$AAt?$AA?9?$AAC?$AAH@ 000000014004da60     libucrtd:lcidtoname_downlevel.obj
 0002:0000ba70       ??_C@_1M@CLLBGJH@?$AAn?$AAl?$AA?9?$AAB?$AAE@ 000000014004da70     libucrtd:lcidtoname_downlevel.obj
 0002:0000ba80       ??_C@_1M@BODBOGLF@?$AAn?$AAn?$AA?9?$AAN?$AAO@ 000000014004da80     libucrtd:lcidtoname_downlevel.obj
 0002:0000ba90       ??_C@_1M@HFFAHKAD@?$AAp?$AAt?$AA?9?$AAP?$AAT@ 000000014004da90     libucrtd:lcidtoname_downlevel.obj
 0002:0000baa0       ??_C@_1BG@LNOAKHIE@?$AAs?$AAr?$AA?9?$AAS?$AAP?$AA?9?$AAL?$AAa?$AAt?$AAn@ 000000014004daa0     libucrtd:lcidtoname_downlevel.obj
 0002:0000bab8       ??_C@_1M@HBMHBGAK@?$AAs?$AAv?$AA?9?$AAF?$AAI@ 000000014004dab8     libucrtd:lcidtoname_downlevel.obj
 0002:0000bac8       ??_C@_1BG@DGCJGJBE@?$AAa?$AAz?$AA?9?$AAA?$AAZ?$AA?9?$AAC?$AAy?$AAr?$AAl@ 000000014004dac8     libucrtd:lcidtoname_downlevel.obj
 0002:0000bae0       ??_C@_1M@KEJDAAHB@?$AAs?$AAe?$AA?9?$AAS?$AAE@ 000000014004dae0     libucrtd:lcidtoname_downlevel.obj
 0002:0000baf0       ??_C@_1M@HEIBJJAD@?$AAm?$AAs?$AA?9?$AAB?$AAN@ 000000014004daf0     libucrtd:lcidtoname_downlevel.obj
 0002:0000bb00       ??_C@_1BG@PBGJMCEM@?$AAu?$AAz?$AA?9?$AAU?$AAZ?$AA?9?$AAC?$AAy?$AAr?$AAl@ 000000014004db00     libucrtd:lcidtoname_downlevel.obj
 0002:0000bb18       ??_C@_1O@LAOBCMDF@?$AAq?$AAu?$AAz?$AA?9?$AAE?$AAC@ 000000014004db18     libucrtd:lcidtoname_downlevel.obj
 0002:0000bb28       ??_C@_1M@POEEMAIO@?$AAa?$AAr?$AA?9?$AAE?$AAG@ 000000014004db28     libucrtd:lcidtoname_downlevel.obj
 0002:0000bb38       ??_C@_1M@EFAKDEDL@?$AAz?$AAh?$AA?9?$AAH?$AAK@ 000000014004db38     libucrtd:lcidtoname_downlevel.obj
 0002:0000bb48       ??_C@_1M@HKKIJHGI@?$AAd?$AAe?$AA?9?$AAA?$AAT@ 000000014004db48     libucrtd:lcidtoname_downlevel.obj
 0002:0000bb58       ??_C@_1M@KBFBEHJF@?$AAe?$AAn?$AA?9?$AAA?$AAU@ 000000014004db58     libucrtd:lcidtoname_downlevel.obj
 0002:0000bb68       ??_C@_1M@MNPLFAAH@?$AAe?$AAs?$AA?9?$AAE?$AAS@ 000000014004db68     libucrtd:lcidtoname_downlevel.obj
 0002:0000bb78       ??_C@_1M@HJOOJFMA@?$AAf?$AAr?$AA?9?$AAC?$AAA@ 000000014004db78     libucrtd:lcidtoname_downlevel.obj
 0002:0000bb88       ??_C@_1BG@JPOFPNAB@?$AAs?$AAr?$AA?9?$AAS?$AAP?$AA?9?$AAC?$AAy?$AAr?$AAl@ 000000014004db88     libucrtd:lcidtoname_downlevel.obj
 0002:0000bba0       ??_C@_1M@LNFOCMOB@?$AAs?$AAe?$AA?9?$AAF?$AAI@ 000000014004dba0     libucrtd:lcidtoname_downlevel.obj
 0002:0000bbb0       ??_C@_1O@MGJBOAMB@?$AAq?$AAu?$AAz?$AA?9?$AAP?$AAE@ 000000014004dbb0     libucrtd:lcidtoname_downlevel.obj
 0002:0000bbc0       ??_C@_1M@GJINLBOK@?$AAa?$AAr?$AA?9?$AAL?$AAY@ 000000014004dbc0     libucrtd:lcidtoname_downlevel.obj
 0002:0000bbd0       ??_C@_1M@GGMNHJNL@?$AAz?$AAh?$AA?9?$AAS?$AAG@ 000000014004dbd0     libucrtd:lcidtoname_downlevel.obj
 0002:0000bbe0       ??_C@_1M@HOIKODND@?$AAd?$AAe?$AA?9?$AAL?$AAU@ 000000014004dbe0     libucrtd:lcidtoname_downlevel.obj
 0002:0000bbf0       ??_C@_1M@DDOCCGFG@?$AAe?$AAn?$AA?9?$AAC?$AAA@ 000000014004dbf0     libucrtd:lcidtoname_downlevel.obj
 0002:0000bc00       ??_C@_1M@BNOEMJLF@?$AAe?$AAs?$AA?9?$AAG?$AAT@ 000000014004dc00     libucrtd:lcidtoname_downlevel.obj
 0002:0000bc10       ??_C@_1M@EOGNKEK@?$AAf?$AAr?$AA?9?$AAC?$AAH@ 000000014004dc10     libucrtd:lcidtoname_downlevel.obj
 0002:0000bc20       ??_C@_1M@FLIDJFHL@?$AAh?$AAr?$AA?9?$AAB?$AAA@ 000000014004dc20     libucrtd:lcidtoname_downlevel.obj
 0002:0000bc30       ??_C@_1O@FMCELNAJ@?$AAs?$AAm?$AAj?$AA?9?$AAN?$AAO@ 000000014004dc30     libucrtd:lcidtoname_downlevel.obj
 0002:0000bc40       ??_C@_1M@JHGLJMGJ@?$AAa?$AAr?$AA?9?$AAD?$AAZ@ 000000014004dc40     libucrtd:lcidtoname_downlevel.obj
 0002:0000bc50       ??_C@_1M@JKKFDCNP@?$AAz?$AAh?$AA?9?$AAM?$AAO@ 000000014004dc50     libucrtd:lcidtoname_downlevel.obj
 0002:0000bc60       ??_C@_1M@GEEFALPE@?$AAd?$AAe?$AA?9?$AAL?$AAI@ 000000014004dc60     libucrtd:lcidtoname_downlevel.obj
 0002:0000bc70       ??_C@_1M@IGEOFBG@?$AAe?$AAn?$AA?9?$AAN?$AAZ@ 000000014004dc70     libucrtd:lcidtoname_downlevel.obj
 0002:0000bc80       ??_C@_1M@KDBONEHP@?$AAe?$AAs?$AA?9?$AAC?$AAR@ 000000014004dc80     libucrtd:lcidtoname_downlevel.obj
 0002:0000bc90       ??_C@_1M@FHMDOHNN@?$AAf?$AAr?$AA?9?$AAL?$AAU@ 000000014004dc90     libucrtd:lcidtoname_downlevel.obj
 0002:0000bca0       ??_C@_1BG@NFKKMAFG@?$AAb?$AAs?$AA?9?$AAB?$AAA?$AA?9?$AAL?$AAa?$AAt?$AAn@ 000000014004dca0     libucrtd:lcidtoname_downlevel.obj
 0002:0000bcb8       ??_C@_1O@IMNBEMCI@?$AAs?$AAm?$AAj?$AA?9?$AAS?$AAE@ 000000014004dcb8     libucrtd:lcidtoname_downlevel.obj
 0002:0000bcc8       ??_C@_1M@DHHMBNDP@?$AAa?$AAr?$AA?9?$AAM?$AAA@ 000000014004dcc8     libucrtd:lcidtoname_downlevel.obj
 0002:0000bcd8       ??_C@_1M@BNBLJCGH@?$AAe?$AAn?$AA?9?$AAI?$AAE@ 000000014004dcd8     libucrtd:lcidtoname_downlevel.obj
 0002:0000bce8       ??_C@_1M@GEPAFMDL@?$AAe?$AAs?$AA?9?$AAP?$AAA@ 000000014004dce8     libucrtd:lcidtoname_downlevel.obj
 0002:0000bcf8       ??_C@_1M@OJONDMDL@?$AAf?$AAr?$AA?9?$AAM?$AAC@ 000000014004dcf8     libucrtd:lcidtoname_downlevel.obj
 0002:0000bd08       ??_C@_1BG@OBCNFJB@?$AAs?$AAr?$AA?9?$AAB?$AAA?$AA?9?$AAL?$AAa?$AAt?$AAn@ 000000014004dd08     libucrtd:lcidtoname_downlevel.obj
 0002:0000bd20       ??_C@_1O@KEMEEGPO@?$AAs?$AAm?$AAa?$AA?9?$AAN?$AAO@ 000000014004dd20     libucrtd:lcidtoname_downlevel.obj
 0002:0000bd30       ??_C@_1M@ELMGFODK@?$AAa?$AAr?$AA?9?$AAT?$AAN@ 000000014004dd30     libucrtd:lcidtoname_downlevel.obj
 0002:0000bd40       ??_C@_1M@BHDLHFAF@?$AAe?$AAn?$AA?9?$AAZ?$AAA@ 000000014004dd40     libucrtd:lcidtoname_downlevel.obj
 0002:0000bd50       ??_C@_1M@BMGIGLIF@?$AAe?$AAs?$AA?9?$AAD?$AAO@ 000000014004dd50     libucrtd:lcidtoname_downlevel.obj
 0002:0000bd60       ??_C@_1BG@CMBHIPBE@?$AAs?$AAr?$AA?9?$AAB?$AAA?$AA?9?$AAC?$AAy?$AAr?$AAl@ 000000014004dd60     libucrtd:lcidtoname_downlevel.obj
 0002:0000bd78       ??_C@_1O@HEDBLHNP@?$AAs?$AAm?$AAa?$AA?9?$AAS?$AAE@ 000000014004dd78     libucrtd:lcidtoname_downlevel.obj
 0002:0000bd88       ??_C@_1M@DAGCADIM@?$AAa?$AAr?$AA?9?$AAO?$AAM@ 000000014004dd88     libucrtd:lcidtoname_downlevel.obj
 0002:0000bd98       ??_C@_1M@FODLMICG@?$AAe?$AAn?$AA?9?$AAJ?$AAM@ 000000014004dd98     libucrtd:lcidtoname_downlevel.obj
 0002:0000bda8       ??_C@_1M@DNMLCIHB@?$AAe?$AAs?$AA?9?$AAV?$AAE@ 000000014004dda8     libucrtd:lcidtoname_downlevel.obj
 0002:0000bdb8       ??_C@_1O@EOKHMKJK@?$AAs?$AAm?$AAs?$AA?9?$AAF?$AAI@ 000000014004ddb8     libucrtd:lcidtoname_downlevel.obj
 0002:0000bdc8       ??_C@_1M@CAFJMKOF@?$AAa?$AAr?$AA?9?$AAY?$AAE@ 000000014004ddc8     libucrtd:lcidtoname_downlevel.obj
 0002:0000bdd8       ??_C@_1M@CBFHIJLI@?$AAe?$AAn?$AA?9?$AAC?$AAB@ 000000014004ddd8     libucrtd:lcidtoname_downlevel.obj
 0002:0000bde8       ??_C@_1M@BGNFLDN@?$AAe?$AAs?$AA?9?$AAC?$AAO@ 000000014004dde8     libucrtd:lcidtoname_downlevel.obj
 0002:0000bdf8       ??_C@_1O@JMPHMAMC@?$AAs?$AAm?$AAn?$AA?9?$AAF?$AAI@ 000000014004ddf8     libucrtd:lcidtoname_downlevel.obj
 0002:0000be08       ??_C@_1M@JLANABKE@?$AAa?$AAr?$AA?9?$AAS?$AAY@ 000000014004de08     libucrtd:lcidtoname_downlevel.obj
 0002:0000be18       ??_C@_1M@HPKGCFGN@?$AAe?$AAn?$AA?9?$AAB?$AAZ@ 000000014004de18     libucrtd:lcidtoname_downlevel.obj
 0002:0000be28       ??_C@_1M@OLJCMLGM@?$AAe?$AAs?$AA?9?$AAP?$AAE@ 000000014004de28     libucrtd:lcidtoname_downlevel.obj
 0002:0000be38       ??_C@_1M@MKKGFKLE@?$AAa?$AAr?$AA?9?$AAJ?$AAO@ 000000014004de38     libucrtd:lcidtoname_downlevel.obj
 0002:0000be48       ??_C@_1M@EKPGLDNI@?$AAe?$AAn?$AA?9?$AAT?$AAT@ 000000014004de48     libucrtd:lcidtoname_downlevel.obj
 0002:0000be58       ??_C@_1M@OONGHFHE@?$AAe?$AAs?$AA?9?$AAA?$AAR@ 000000014004de58     libucrtd:lcidtoname_downlevel.obj
 0002:0000be68       ??_C@_1M@OOJFGBHE@?$AAa?$AAr?$AA?9?$AAL?$AAB@ 000000014004de68     libucrtd:lcidtoname_downlevel.obj
 0002:0000be78       ??_C@_1M@GCEJHNEG@?$AAe?$AAn?$AA?9?$AAZ?$AAW@ 000000014004de78     libucrtd:lcidtoname_downlevel.obj
 0002:0000be88       ??_C@_1M@JNOCAHJI@?$AAe?$AAs?$AA?9?$AAE?$AAC@ 000000014004de88     libucrtd:lcidtoname_downlevel.obj
 0002:0000be98       ??_C@_1M@JEFHPGGB@?$AAa?$AAr?$AA?9?$AAK?$AAW@ 000000014004de98     libucrtd:lcidtoname_downlevel.obj
 0002:0000bea8       ??_C@_1M@MLKIBJOJ@?$AAe?$AAn?$AA?9?$AAP?$AAH@ 000000014004dea8     libucrtd:lcidtoname_downlevel.obj
 0002:0000beb8       ??_C@_1M@BDNIPEND@?$AAe?$AAs?$AA?9?$AAC?$AAL@ 000000014004deb8     libucrtd:lcidtoname_downlevel.obj
 0002:0000bec8       ??_C@_1M@MPNMEKBD@?$AAa?$AAr?$AA?9?$AAA?$AAE@ 000000014004dec8     libucrtd:lcidtoname_downlevel.obj
 0002:0000bed8       ??_C@_1M@KBJALCPI@?$AAe?$AAs?$AA?9?$AAU?$AAY@ 000000014004ded8     libucrtd:lcidtoname_downlevel.obj
 0002:0000bee8       ??_C@_1M@LLCCOAGA@?$AAa?$AAr?$AA?9?$AAB?$AAH@ 000000014004dee8     libucrtd:lcidtoname_downlevel.obj
 0002:0000bef8       ??_C@_1M@PBFNCDEL@?$AAe?$AAs?$AA?9?$AAP?$AAY@ 000000014004def8     libucrtd:lcidtoname_downlevel.obj
 0002:0000bf08       ??_C@_1M@EDGINPNP@?$AAa?$AAr?$AA?9?$AAQ?$AAA@ 000000014004df08     libucrtd:lcidtoname_downlevel.obj
 0002:0000bf18       ??_C@_1M@MKDBIIJI@?$AAe?$AAs?$AA?9?$AAB?$AAO@ 000000014004df18     libucrtd:lcidtoname_downlevel.obj
 0002:0000bf28       ??_C@_1M@CPKKEBLD@?$AAe?$AAs?$AA?9?$AAS?$AAV@ 000000014004df28     libucrtd:lcidtoname_downlevel.obj
 0002:0000bf38       ??_C@_1M@NDBGMMJL@?$AAe?$AAs?$AA?9?$AAH?$AAN@ 000000014004df38     libucrtd:lcidtoname_downlevel.obj
 0002:0000bf48       ??_C@_1M@JIJIBHDP@?$AAe?$AAs?$AA?9?$AAN?$AAI@ 000000014004df48     libucrtd:lcidtoname_downlevel.obj
 0002:0000bf58       ??_C@_1M@CGFMKEEK@?$AAe?$AAs?$AA?9?$AAP?$AAR@ 000000014004df58     libucrtd:lcidtoname_downlevel.obj
 0002:0000bf68       ??_C@_1O@ICJHKIIK@?$AAz?$AAh?$AA?9?$AAC?$AAH?$AAT@ 000000014004df68     libucrtd:lcidtoname_downlevel.obj
 0002:0000bf78       ??_C@_15CLNEJCE@?$AAs?$AAr@ 000000014004df78     libucrtd:lcidtoname_downlevel.obj
 0002:0000cdc0       ??_C@_1M@KAHEKEIG@?$AAa?$AAf?$AA?9?$AAz?$AAa@ 000000014004edc0     libucrtd:lcidtoname_downlevel.obj
 0002:0000cdd0       ??_C@_1M@GIECOABL@?$AAa?$AAr?$AA?9?$AAa?$AAe@ 000000014004edd0     libucrtd:lcidtoname_downlevel.obj
 0002:0000cde0       ??_C@_1M@BMLMEKGI@?$AAa?$AAr?$AA?9?$AAb?$AAh@ 000000014004ede0     libucrtd:lcidtoname_downlevel.obj
 0002:0000cdf0       ??_C@_1M@DAPFDGGB@?$AAa?$AAr?$AA?9?$AAd?$AAz@ 000000014004edf0     libucrtd:lcidtoname_downlevel.obj
 0002:0000ce00       ??_C@_1M@FJNKGKIG@?$AAa?$AAr?$AA?9?$AAe?$AAg@ 000000014004ee00     libucrtd:lcidtoname_downlevel.obj
 0002:0000ce10       ??_C@_1M@FLGKKCLO@?$AAa?$AAr?$AA?9?$AAi?$AAq@ 000000014004ee10     libucrtd:lcidtoname_downlevel.obj
 0002:0000ce20       ??_C@_1M@GNDIPALM@?$AAa?$AAr?$AA?9?$AAj?$AAo@ 000000014004ee20     libucrtd:lcidtoname_downlevel.obj
 0002:0000ce30       ??_C@_1M@DDMJFMGJ@?$AAa?$AAr?$AA?9?$AAk?$AAw@ 000000014004ee30     libucrtd:lcidtoname_downlevel.obj
 0002:0000ce40       ??_C@_1M@EJALMLHM@?$AAa?$AAr?$AA?9?$AAl?$AAb@ 000000014004ee40     libucrtd:lcidtoname_downlevel.obj
 0002:0000ce50       ??_C@_1M@MOBDBLOC@?$AAa?$AAr?$AA?9?$AAl?$AAy@ 000000014004ee50     libucrtd:lcidtoname_downlevel.obj
 0002:0000ce60       ??_C@_1M@JAOCLHDH@?$AAa?$AAr?$AA?9?$AAm?$AAa@ 000000014004ee60     libucrtd:lcidtoname_downlevel.obj
 0002:0000ce70       ??_C@_1M@JHPMKJIE@?$AAa?$AAr?$AA?9?$AAo?$AAm@ 000000014004ee70     libucrtd:lcidtoname_downlevel.obj
 0002:0000ce80       ??_C@_1M@OEPGHFNH@?$AAa?$AAr?$AA?9?$AAq?$AAa@ 000000014004ee80     libucrtd:lcidtoname_downlevel.obj
 0002:0000ce90       ??_C@_1M@KJDONENM@?$AAa?$AAr?$AA?9?$AAs?$AAa@ 000000014004ee90     libucrtd:lcidtoname_downlevel.obj
 0002:0000cea0       ??_C@_1M@DMJDKLKM@?$AAa?$AAr?$AA?9?$AAs?$AAy@ 000000014004eea0     libucrtd:lcidtoname_downlevel.obj
 0002:0000ceb0       ??_C@_1M@OMFIPEDC@?$AAa?$AAr?$AA?9?$AAt?$AAn@ 000000014004eeb0     libucrtd:lcidtoname_downlevel.obj
 0002:0000cec0       ??_C@_1M@IHMHGAON@?$AAa?$AAr?$AA?9?$AAy?$AAe@ 000000014004eec0     libucrtd:lcidtoname_downlevel.obj
 0002:0000ced0       ??_C@_1BG@KDCPGJGB@?$AAa?$AAz?$AA?9?$AAa?$AAz?$AA?9?$AAc?$AAy?$AAr?$AAl@ 000000014004eed0     libucrtd:lcidtoname_downlevel.obj
 0002:0000cee8       ??_C@_1BG@IBCKDDOE@?$AAa?$AAz?$AA?9?$AAa?$AAz?$AA?9?$AAl?$AAa?$AAt?$AAn@ 000000014004eee8     libucrtd:lcidtoname_downlevel.obj
 0002:0000cf00       ??_C@_1M@EGPFDCPD@?$AAb?$AAe?$AA?9?$AAb?$AAy@ 000000014004ef00     libucrtd:lcidtoname_downlevel.obj
 0002:0000cf10       ??_C@_1M@PCMGMCGC@?$AAb?$AAg?$AA?9?$AAb?$AAg@ 000000014004ef10     libucrtd:lcidtoname_downlevel.obj
 0002:0000cf20       ??_C@_1M@BJBMFGOB@?$AAb?$AAn?$AA?9?$AAi?$AAn@ 000000014004ef20     libucrtd:lcidtoname_downlevel.obj
 0002:0000cf30       ??_C@_1BG@EAKMMACD@?$AAb?$AAs?$AA?9?$AAb?$AAa?$AA?9?$AAl?$AAa?$AAt?$AAn@ 000000014004ef30     libucrtd:lcidtoname_downlevel.obj
 0002:0000cf48       ??_C@_1M@KGADAODK@?$AAc?$AAa?$AA?9?$AAe?$AAs@ 000000014004ef48     libucrtd:lcidtoname_downlevel.obj
 0002:0000cf58       ??_C@_1M@COAJPDHI@?$AAc?$AAs?$AA?9?$AAc?$AAz@ 000000014004ef58     libucrtd:lcidtoname_downlevel.obj
 0002:0000cf68       ??_C@_1M@DHBHFONH@?$AAc?$AAy?$AA?9?$AAg?$AAb@ 000000014004ef68     libucrtd:lcidtoname_downlevel.obj
 0002:0000cf78       ??_C@_1M@IMGKELGA@?$AAd?$AAa?$AA?9?$AAd?$AAk@ 000000014004ef78     libucrtd:lcidtoname_downlevel.obj
 0002:0000cf88       ??_C@_1M@NNDGDNGA@?$AAd?$AAe?$AA?9?$AAa?$AAt@ 000000014004ef88     libucrtd:lcidtoname_downlevel.obj
 0002:0000cf98       ??_C@_1M@IKDBHEEM@?$AAd?$AAe?$AA?9?$AAc?$AAh@ 000000014004ef98     libucrtd:lcidtoname_downlevel.obj
 0002:0000cfa8       ??_C@_1M@GFFOJMCJ@?$AAd?$AAe?$AA?9?$AAd?$AAe@ 000000014004efa8     libucrtd:lcidtoname_downlevel.obj
 0002:0000cfb8       ??_C@_1M@MDNLKBPM@?$AAd?$AAe?$AA?9?$AAl?$AAi@ 000000014004efb8     libucrtd:lcidtoname_downlevel.obj
 0002:0000cfc8       ??_C@_1M@NJBEEJNL@?$AAd?$AAe?$AA?9?$AAl?$AAu@ 000000014004efc8     libucrtd:lcidtoname_downlevel.obj
 0002:0000cfd8       ??_C@_1O@GNNELBAP@?$AAd?$AAi?$AAv?$AA?9?$AAm?$AAv@ 000000014004efd8     libucrtd:lcidtoname_downlevel.obj
 0002:0000cfe8       ??_C@_1M@EJLEOGAE@?$AAe?$AAl?$AA?9?$AAg?$AAr@ 000000014004efe8     libucrtd:lcidtoname_downlevel.obj
 0002:0000cff8       ??_C@_1M@GMPONJN@?$AAe?$AAn?$AA?9?$AAa?$AAu@ 000000014004eff8     libucrtd:lcidtoname_downlevel.obj
 0002:0000d008       ??_C@_1M@NIDIIPGF@?$AAe?$AAn?$AA?9?$AAb?$AAz@ 000000014004f008     libucrtd:lcidtoname_downlevel.obj
 0002:0000d018       ??_C@_1M@JEHMIMFO@?$AAe?$AAn?$AA?9?$AAc?$AAa@ 000000014004f018     libucrtd:lcidtoname_downlevel.obj
 0002:0000d028       ??_C@_1M@IGMJCDLA@?$AAe?$AAn?$AA?9?$AAc?$AAb@ 000000014004f028     libucrtd:lcidtoname_downlevel.obj
 0002:0000d038       ??_C@_1M@BNFIGBKG@?$AAe?$AAn?$AA?9?$AAg?$AAb@ 000000014004f038     libucrtd:lcidtoname_downlevel.obj
 0002:0000d048       ??_C@_1M@LKIFDIGP@?$AAe?$AAn?$AA?9?$AAi?$AAe@ 000000014004f048     libucrtd:lcidtoname_downlevel.obj
 0002:0000d058       ??_C@_1M@PJKFGCCO@?$AAe?$AAn?$AA?9?$AAj?$AAm@ 000000014004f058     libucrtd:lcidtoname_downlevel.obj
 0002:0000d068       ??_C@_1M@KPPKEPBO@?$AAe?$AAn?$AA?9?$AAn?$AAz@ 000000014004f068     libucrtd:lcidtoname_downlevel.obj
 0002:0000d078       ??_C@_1M@GMDGLDOB@?$AAe?$AAn?$AA?9?$AAp?$AAh@ 000000014004f078     libucrtd:lcidtoname_downlevel.obj
 0002:0000d088       ??_C@_1M@ONGIBJNA@?$AAe?$AAn?$AA?9?$AAt?$AAt@ 000000014004f088     libucrtd:lcidtoname_downlevel.obj
 0002:0000d098       ??_C@_1M@LLODPCMM@?$AAe?$AAn?$AA?9?$AAu?$AAs@ 000000014004f098     libucrtd:lcidtoname_downlevel.obj
 0002:0000d0a8       ??_C@_1M@LAKFNPAN@?$AAe?$AAn?$AA?9?$AAz?$AAa@ 000000014004f0a8     libucrtd:lcidtoname_downlevel.obj
 0002:0000d0b8       ??_C@_1M@MFNHNHEO@?$AAe?$AAn?$AA?9?$AAz?$AAw@ 000000014004f0b8     libucrtd:lcidtoname_downlevel.obj
 0002:0000d0c8       ??_C@_1M@EJEINPHM@?$AAe?$AAs?$AA?9?$AAa?$AAr@ 000000014004f0c8     libucrtd:lcidtoname_downlevel.obj
 0002:0000d0d8       ??_C@_1M@GNKPCCJA@?$AAe?$AAs?$AA?9?$AAb?$AAo@ 000000014004f0d8     libucrtd:lcidtoname_downlevel.obj
 0002:0000d0e8       ??_C@_1M@LEEGFONL@?$AAe?$AAs?$AA?9?$AAc?$AAl@ 000000014004f0e8     libucrtd:lcidtoname_downlevel.obj
 0002:0000d0f8       ??_C@_1M@KGPDPBDF@?$AAe?$AAs?$AA?9?$AAc?$AAo@ 000000014004f0f8     libucrtd:lcidtoname_downlevel.obj
 0002:0000d108       ??_C@_1M@EIAHOHH@?$AAe?$AAs?$AA?9?$AAc?$AAr@ 000000014004f108     libucrtd:lcidtoname_downlevel.obj
 0002:0000d118       ??_C@_1M@LLPGMBIN@?$AAe?$AAs?$AA?9?$AAd?$AAo@ 000000014004f118     libucrtd:lcidtoname_downlevel.obj
 0002:0000d128       ??_C@_1M@DKHMKNJA@?$AAe?$AAs?$AA?9?$AAe?$AAc@ 000000014004f128     libucrtd:lcidtoname_downlevel.obj
 0002:0000d138       ??_C@_1M@GKGFPKAP@?$AAe?$AAs?$AA?9?$AAe?$AAs@ 000000014004f138     libucrtd:lcidtoname_downlevel.obj
 0002:0000d148       ??_C@_1M@LKHKGDLN@?$AAe?$AAs?$AA?9?$AAg?$AAt@ 000000014004f148     libucrtd:lcidtoname_downlevel.obj
 0002:0000d158       ??_C@_1M@HEIIGGJD@?$AAe?$AAs?$AA?9?$AAh?$AAn@ 000000014004f158     libucrtd:lcidtoname_downlevel.obj
 0002:0000d168       ??_C@_1M@FBDHPPGD@?$AAe?$AAs?$AA?9?$AAm?$AAx@ 000000014004f168     libucrtd:lcidtoname_downlevel.obj
 0002:0000d178       ??_C@_1M@DPAGLNDH@?$AAe?$AAs?$AA?9?$AAn?$AAi@ 000000014004f178     libucrtd:lcidtoname_downlevel.obj
 0002:0000d188       ??_C@_1M@MDGOPGDD@?$AAe?$AAs?$AA?9?$AAp?$AAa@ 000000014004f188     libucrtd:lcidtoname_downlevel.obj
 0002:0000d198       ??_C@_1M@EMAMGBGE@?$AAe?$AAs?$AA?9?$AAp?$AAe@ 000000014004f198     libucrtd:lcidtoname_downlevel.obj
 0002:0000d1a8       ??_C@_1M@IBMCAOEC@?$AAe?$AAs?$AA?9?$AAp?$AAr@ 000000014004f1a8     libucrtd:lcidtoname_downlevel.obj
 0002:0000d1b8       ??_C@_1M@FGMDIJED@?$AAe?$AAs?$AA?9?$AAp?$AAy@ 000000014004f1b8     libucrtd:lcidtoname_downlevel.obj
 0002:0000d1c8       ??_C@_1M@IIDEOLLL@?$AAe?$AAs?$AA?9?$AAs?$AAv@ 000000014004f1c8     libucrtd:lcidtoname_downlevel.obj
 0002:0000d1d8       ??_C@_1M@GAOBIPA@?$AAe?$AAs?$AA?9?$AAu?$AAy@ 000000014004f1d8     libucrtd:lcidtoname_downlevel.obj
 0002:0000d1e8       ??_C@_1M@JKFFICHJ@?$AAe?$AAs?$AA?9?$AAv?$AAe@ 000000014004f1e8     libucrtd:lcidtoname_downlevel.obj
 0002:0000d1f8       ??_C@_1M@PNMLOJDF@?$AAe?$AAt?$AA?9?$AAe?$AAe@ 000000014004f1f8     libucrtd:lcidtoname_downlevel.obj
 0002:0000d208       ??_C@_1M@GHHLIKEI@?$AAe?$AAu?$AA?9?$AAe?$AAs@ 000000014004f208     libucrtd:lcidtoname_downlevel.obj
 0002:0000d218       ??_C@_1M@PBNONODE@?$AAf?$AAa?$AA?9?$AAi?$AAr@ 000000014004f218     libucrtd:lcidtoname_downlevel.obj
 0002:0000d228       ??_C@_1M@JEEHPMIL@?$AAf?$AAi?$AA?9?$AAf?$AAi@ 000000014004f228     libucrtd:lcidtoname_downlevel.obj
 0002:0000d238       ??_C@_1M@LMDCNDBA@?$AAf?$AAo?$AA?9?$AAf?$AAo@ 000000014004f238     libucrtd:lcidtoname_downlevel.obj
 0002:0000d248       ??_C@_1M@JKEOHLDK@?$AAf?$AAr?$AA?9?$AAb?$AAe@ 000000014004f248     libucrtd:lcidtoname_downlevel.obj
 0002:0000d258       ??_C@_1M@NOHADPMI@?$AAf?$AAr?$AA?9?$AAc?$AAa@ 000000014004f258     libucrtd:lcidtoname_downlevel.obj
 0002:0000d268       ??_C@_1M@KDHIHAEC@?$AAf?$AAr?$AA?9?$AAc?$AAh@ 000000014004f268     libucrtd:lcidtoname_downlevel.obj
 0002:0000d278       ??_C@_1M@MMBBFGAK@?$AAf?$AAr?$AA?9?$AAf?$AAr@ 000000014004f278     libucrtd:lcidtoname_downlevel.obj
 0002:0000d288       ??_C@_1M@PAFNENNF@?$AAf?$AAr?$AA?9?$AAl?$AAu@ 000000014004f288     libucrtd:lcidtoname_downlevel.obj
 0002:0000d298       ??_C@_1M@EOHDJGDD@?$AAf?$AAr?$AA?9?$AAm?$AAc@ 000000014004f298     libucrtd:lcidtoname_downlevel.obj
 0002:0000d2a8       ??_C@_1M@FAPLLOPF@?$AAg?$AAl?$AA?9?$AAe?$AAs@ 000000014004f2a8     libucrtd:lcidtoname_downlevel.obj
 0002:0000d2b8       ??_C@_1M@FOPBFLOO@?$AAg?$AAu?$AA?9?$AAi?$AAn@ 000000014004f2b8     libucrtd:lcidtoname_downlevel.obj
 0002:0000d2c8       ??_C@_1M@KBMCINPM@?$AAh?$AAe?$AA?9?$AAi?$AAl@ 000000014004f2c8     libucrtd:lcidtoname_downlevel.obj
 0002:0000d2d8       ??_C@_1M@BBPHKFPJ@?$AAh?$AAi?$AA?9?$AAi?$AAn@ 000000014004f2d8     libucrtd:lcidtoname_downlevel.obj
 0002:0000d2e8       ??_C@_1M@PMBNDPHD@?$AAh?$AAr?$AA?9?$AAb?$AAa@ 000000014004f2e8     libucrtd:lcidtoname_downlevel.obj
 0002:0000d2f8       ??_C@_1M@BPCKOEGE@?$AAh?$AAr?$AA?9?$AAh?$AAr@ 000000014004f2f8     libucrtd:lcidtoname_downlevel.obj
 0002:0000d308       ??_C@_1M@GACBMHKE@?$AAh?$AAu?$AA?9?$AAh?$AAu@ 000000014004f308     libucrtd:lcidtoname_downlevel.obj
 0002:0000d318       ??_C@_1M@MILPAJJC@?$AAh?$AAy?$AA?9?$AAa?$AAm@ 000000014004f318     libucrtd:lcidtoname_downlevel.obj
 0002:0000d328       ??_C@_1M@BABBICEC@?$AAi?$AAd?$AA?9?$AAi?$AAd@ 000000014004f328     libucrtd:lcidtoname_downlevel.obj
 0002:0000d338       ??_C@_1M@BIKNHHPF@?$AAi?$AAs?$AA?9?$AAi?$AAs@ 000000014004f338     libucrtd:lcidtoname_downlevel.obj
 0002:0000d348       ??_C@_1M@NMPCJPHE@?$AAi?$AAt?$AA?9?$AAc?$AAh@ 000000014004f348     libucrtd:lcidtoname_downlevel.obj
 0002:0000d358       ??_C@_1M@GHKGFEDF@?$AAi?$AAt?$AA?9?$AAi?$AAt@ 000000014004f358     libucrtd:lcidtoname_downlevel.obj
 0002:0000d368       ??_C@_1M@NIEJCJJA@?$AAj?$AAa?$AA?9?$AAj?$AAp@ 000000014004f368     libucrtd:lcidtoname_downlevel.obj
 0002:0000d378       ??_C@_1M@JILFNBIM@?$AAk?$AAa?$AA?9?$AAg?$AAe@ 000000014004f378     libucrtd:lcidtoname_downlevel.obj
 0002:0000d388       ??_C@_1M@PACPMGPH@?$AAk?$AAk?$AA?9?$AAk?$AAz@ 000000014004f388     libucrtd:lcidtoname_downlevel.obj
 0002:0000d398       ??_C@_1M@IELFGMHA@?$AAk?$AAn?$AA?9?$AAi?$AAn@ 000000014004f398     libucrtd:lcidtoname_downlevel.obj
 0002:0000d3a8       ??_C@_1O@IBBJHCH@?$AAk?$AAo?$AAk?$AA?9?$AAi?$AAn@ 000000014004f3a8     libucrtd:lcidtoname_downlevel.obj
 0002:0000d3b8       ??_C@_1M@DMHAEOGC@?$AAk?$AAo?$AA?9?$AAk?$AAr@ 000000014004f3b8     libucrtd:lcidtoname_downlevel.obj
 0002:0000d3c8       ??_C@_1M@HBAHBIGA@?$AAk?$AAy?$AA?9?$AAk?$AAg@ 000000014004f3c8     libucrtd:lcidtoname_downlevel.obj
 0002:0000d3d8       ??_C@_1M@KPMILCJG@?$AAl?$AAt?$AA?9?$AAl?$AAt@ 000000014004f3d8     libucrtd:lcidtoname_downlevel.obj
 0002:0000d3e8       ??_C@_1M@BDEKKCA@?$AAl?$AAv?$AA?9?$AAl?$AAv@ 000000014004f3e8     libucrtd:lcidtoname_downlevel.obj
 0002:0000d3f8       ??_C@_1M@ELCKCCJJ@?$AAm?$AAi?$AA?9?$AAn?$AAz@ 000000014004f3f8     libucrtd:lcidtoname_downlevel.obj
 0002:0000d408       ??_C@_1M@CBOOLAPA@?$AAm?$AAk?$AA?9?$AAm?$AAk@ 000000014004f408     libucrtd:lcidtoname_downlevel.obj
 0002:0000d418       ??_C@_1M@GPHNBJKN@?$AAm?$AAl?$AA?9?$AAi?$AAn@ 000000014004f418     libucrtd:lcidtoname_downlevel.obj
 0002:0000d428       ??_C@_1M@PABJILIG@?$AAm?$AAn?$AA?9?$AAm?$AAn@ 000000014004f428     libucrtd:lcidtoname_downlevel.obj
 0002:0000d438       ??_C@_1M@FGBKKIPG@?$AAm?$AAr?$AA?9?$AAi?$AAn@ 000000014004f438     libucrtd:lcidtoname_downlevel.obj
 0002:0000d448       ??_C@_1M@NDBPDDAL@?$AAm?$AAs?$AA?9?$AAb?$AAn@ 000000014004f448     libucrtd:lcidtoname_downlevel.obj
 0002:0000d458       ??_C@_1M@OPIHOOPI@?$AAm?$AAs?$AA?9?$AAm?$AAy@ 000000014004f458     libucrtd:lcidtoname_downlevel.obj
 0002:0000d468       ??_C@_1M@PPDBCNFM@?$AAm?$AAt?$AA?9?$AAm?$AAt@ 000000014004f468     libucrtd:lcidtoname_downlevel.obj
 0002:0000d478       ??_C@_1M@KDJDKMDD@?$AAn?$AAb?$AA?9?$AAn?$AAo@ 000000014004f478     libucrtd:lcidtoname_downlevel.obj
 0002:0000d488       ??_C@_1M@KFCFLMJP@?$AAn?$AAl?$AA?9?$AAb?$AAe@ 000000014004f488     libucrtd:lcidtoname_downlevel.obj
 0002:0000d498       ??_C@_1M@KPOPDDGO@?$AAn?$AAl?$AA?9?$AAn?$AAl@ 000000014004f498     libucrtd:lcidtoname_downlevel.obj
 0002:0000d4a8       ??_C@_1M@LJKPEMLN@?$AAn?$AAn?$AA?9?$AAn?$AAo@ 000000014004f4a8     libucrtd:lcidtoname_downlevel.obj
 0002:0000d4b8       ??_C@_1M@BDGHHBFL@?$AAn?$AAs?$AA?9?$AAz?$AAa@ 000000014004f4b8     libucrtd:lcidtoname_downlevel.obj
 0002:0000d4c8       ??_C@_1M@IDEHOAP@?$AAp?$AAa?$AA?9?$AAi?$AAn@ 000000014004f4c8     libucrtd:lcidtoname_downlevel.obj
 0002:0000d4d8       ??_C@_1M@HDBKGOGH@?$AAp?$AAl?$AA?9?$AAp?$AAl@ 000000014004f4d8     libucrtd:lcidtoname_downlevel.obj
 0002:0000d4e8       ??_C@_1M@LJLLCMEH@?$AAp?$AAt?$AA?9?$AAb?$AAr@ 000000014004f4e8     libucrtd:lcidtoname_downlevel.obj
 0002:0000d4f8       ??_C@_1M@NCMONAAL@?$AAp?$AAt?$AA?9?$AAp?$AAt@ 000000014004f4f8     libucrtd:lcidtoname_downlevel.obj
 0002:0000d508       ??_C@_1O@EAKMAJDN@?$AAq?$AAu?$AAz?$AA?9?$AAb?$AAo@ 000000014004f508     libucrtd:lcidtoname_downlevel.obj
 0002:0000d518       ??_C@_1O@BHHPIGDN@?$AAq?$AAu?$AAz?$AA?9?$AAe?$AAc@ 000000014004f518     libucrtd:lcidtoname_downlevel.obj
 0002:0000d528       ??_C@_1O@GBAPEKMJ@?$AAq?$AAu?$AAz?$AA?9?$AAp?$AAe@ 000000014004f528     libucrtd:lcidtoname_downlevel.obj
 0002:0000d538       ??_C@_1M@CLGLEFBO@?$AAr?$AAo?$AA?9?$AAr?$AAo@ 000000014004f538     libucrtd:lcidtoname_downlevel.obj
 0002:0000d548       ??_C@_1M@CEEDODME@?$AAr?$AAu?$AA?9?$AAr?$AAu@ 000000014004f548     libucrtd:lcidtoname_downlevel.obj
 0002:0000d558       ??_C@_1M@HPKKKMPP@?$AAs?$AAa?$AA?9?$AAi?$AAn@ 000000014004f558     libucrtd:lcidtoname_downlevel.obj
 0002:0000d568       ??_C@_1M@BKMAIGOJ@?$AAs?$AAe?$AA?9?$AAf?$AAi@ 000000014004f568     libucrtd:lcidtoname_downlevel.obj
 0002:0000d578       ??_C@_1M@NDPIFLFI@?$AAs?$AAe?$AA?9?$AAn?$AAo@ 000000014004f578     libucrtd:lcidtoname_downlevel.obj
 0002:0000d588       ??_C@_1M@DANKKHJ@?$AAs?$AAe?$AA?9?$AAs?$AAe@ 000000014004f588     libucrtd:lcidtoname_downlevel.obj
 0002:0000d598       ??_C@_1M@PNBLONPJ@?$AAs?$AAk?$AA?9?$AAs?$AAk@ 000000014004f598     libucrtd:lcidtoname_downlevel.obj
 0002:0000d5a8       ??_C@_1M@LFMODOAL@?$AAs?$AAl?$AA?9?$AAs?$AAi@ 000000014004f5a8     libucrtd:lcidtoname_downlevel.obj
 0002:0000d5b8       ??_C@_1O@DFKOMPG@?$AAs?$AAm?$AAa?$AA?9?$AAn?$AAo@ 000000014004f5b8     libucrtd:lcidtoname_downlevel.obj
 0002:0000d5c8       ??_C@_1O@NDKPBNNH@?$AAs?$AAm?$AAa?$AA?9?$AAs?$AAe@ 000000014004f5c8     libucrtd:lcidtoname_downlevel.obj
 0002:0000d5d8       ??_C@_1O@PLLKBHAB@?$AAs?$AAm?$AAj?$AA?9?$AAn?$AAo@ 000000014004f5d8     libucrtd:lcidtoname_downlevel.obj
 0002:0000d5e8       ??_C@_1O@CLEPOGCA@?$AAs?$AAm?$AAj?$AA?9?$AAs?$AAe@ 000000014004f5e8     libucrtd:lcidtoname_downlevel.obj
 0002:0000d5f8       ??_C@_1O@DLGJGKMK@?$AAs?$AAm?$AAn?$AA?9?$AAf?$AAi@ 000000014004f5f8     libucrtd:lcidtoname_downlevel.obj
 0002:0000d608       ??_C@_1O@OJDJGAJC@?$AAs?$AAm?$AAs?$AA?9?$AAf?$AAi@ 000000014004f608     libucrtd:lcidtoname_downlevel.obj
 0002:0000d618       ??_C@_1M@BOFOGHPB@?$AAs?$AAq?$AA?9?$AAa?$AAl@ 000000014004f618     libucrtd:lcidtoname_downlevel.obj
 0002:0000d628       ??_C@_1BG@LJBBIPGB@?$AAs?$AAr?$AA?9?$AAb?$AAa?$AA?9?$AAc?$AAy?$AAr?$AAl@ 000000014004f628     libucrtd:lcidtoname_downlevel.obj
 0002:0000d640       ??_C@_1BG@JLBENFOE@?$AAs?$AAr?$AA?9?$AAb?$AAa?$AA?9?$AAl?$AAa?$AAt?$AAn@ 000000014004f640     libucrtd:lcidtoname_downlevel.obj
 0002:0000d658       ??_C@_1BG@KODPNHE@?$AAs?$AAr?$AA?9?$AAs?$AAp?$AA?9?$AAc?$AAy?$AAr?$AAl@ 000000014004f658     libucrtd:lcidtoname_downlevel.obj
 0002:0000d670       ??_C@_1BG@CIOGKHPB@?$AAs?$AAr?$AA?9?$AAs?$AAp?$AA?9?$AAl?$AAa?$AAt?$AAn@ 000000014004f670     libucrtd:lcidtoname_downlevel.obj
 0002:0000d688       ??_C@_1M@NGFJLMAC@?$AAs?$AAv?$AA?9?$AAf?$AAi@ 000000014004f688     libucrtd:lcidtoname_downlevel.obj
 0002:0000d698       ??_C@_1M@MPJEJAJC@?$AAs?$AAv?$AA?9?$AAs?$AAe@ 000000014004f698     libucrtd:lcidtoname_downlevel.obj
 0002:0000d6a8       ??_C@_1M@MPNDHLFK@?$AAs?$AAw?$AA?9?$AAk?$AAe@ 000000014004f6a8     libucrtd:lcidtoname_downlevel.obj
 0002:0000d6b8       ??_C@_1O@KOHBJJI@?$AAs?$AAy?$AAr?$AA?9?$AAs?$AAy@ 000000014004f6b8     libucrtd:lcidtoname_downlevel.obj
 0002:0000d6c8       ??_C@_1M@LDCEFHA@?$AAt?$AAa?$AA?9?$AAi?$AAn@ 000000014004f6c8     libucrtd:lcidtoname_downlevel.obj
 0002:0000d6d8       ??_C@_1M@CNJOFAK@?$AAt?$AAe?$AA?9?$AAi?$AAn@ 000000014004f6d8     libucrtd:lcidtoname_downlevel.obj
 0002:0000d6e8       ??_C@_1M@GNAECACD@?$AAt?$AAh?$AA?9?$AAt?$AAh@ 000000014004f6e8     libucrtd:lcidtoname_downlevel.obj
 0002:0000d6f8       ??_C@_1M@CHBIHOJO@?$AAt?$AAn?$AA?9?$AAz?$AAa@ 000000014004f6f8     libucrtd:lcidtoname_downlevel.obj
 0002:0000d708       ??_C@_1M@GCCMIGPJ@?$AAt?$AAr?$AA?9?$AAt?$AAr@ 000000014004f708     libucrtd:lcidtoname_downlevel.obj
 0002:0000d718       ??_C@_1M@CELMCNBK@?$AAt?$AAt?$AA?9?$AAr?$AAu@ 000000014004f718     libucrtd:lcidtoname_downlevel.obj
 0002:0000d728       ??_C@_1M@KLMCELGA@?$AAu?$AAk?$AA?9?$AAu?$AAa@ 000000014004f728     libucrtd:lcidtoname_downlevel.obj
 0002:0000d738       ??_C@_1M@EPAJJAJF@?$AAu?$AAr?$AA?9?$AAp?$AAk@ 000000014004f738     libucrtd:lcidtoname_downlevel.obj
 0002:0000d748       ??_C@_1BG@GEGPMCDJ@?$AAu?$AAz?$AA?9?$AAu?$AAz?$AA?9?$AAc?$AAy?$AAr?$AAl@ 000000014004f748     libucrtd:lcidtoname_downlevel.obj
 0002:0000d760       ??_C@_1BG@EGGKJILM@?$AAu?$AAz?$AA?9?$AAu?$AAz?$AA?9?$AAl?$AAa?$AAt?$AAn@ 000000014004f760     libucrtd:lcidtoname_downlevel.obj
 0002:0000d778       ??_C@_1M@GFOCLFF@?$AAv?$AAi?$AA?9?$AAv?$AAn@ 000000014004f778     libucrtd:lcidtoname_downlevel.obj
 0002:0000d788       ??_C@_1M@CPAMEDFI@?$AAx?$AAh?$AA?9?$AAz?$AAa@ 000000014004f788     libucrtd:lcidtoname_downlevel.obj
 0002:0000d798       ??_C@_1O@EBKIFIGN@?$AAz?$AAh?$AA?9?$AAc?$AAh?$AAs@ 000000014004f798     libucrtd:lcidtoname_downlevel.obj
 0002:0000d7a8       ??_C@_1O@NMHPGANE@?$AAz?$AAh?$AA?9?$AAc?$AAh?$AAt@ 000000014004f7a8     libucrtd:lcidtoname_downlevel.obj
 0002:0000d7b8       ??_C@_1M@LPINJOMC@?$AAz?$AAh?$AA?9?$AAc?$AAn@ 000000014004f7b8     libucrtd:lcidtoname_downlevel.obj
 0002:0000d7c8       ??_C@_1M@OCJEJODD@?$AAz?$AAh?$AA?9?$AAh?$AAk@ 000000014004f7c8     libucrtd:lcidtoname_downlevel.obj
 0002:0000d7d8       ??_C@_1M@DNDLJINH@?$AAz?$AAh?$AA?9?$AAm?$AAo@ 000000014004f7d8     libucrtd:lcidtoname_downlevel.obj
 0002:0000d7e8       ??_C@_1M@MBFDNDND@?$AAz?$AAh?$AA?9?$AAs?$AAg@ 000000014004f7e8     libucrtd:lcidtoname_downlevel.obj
 0002:0000d7f8       ??_C@_1M@IMEPLEPE@?$AAz?$AAh?$AA?9?$AAt?$AAw@ 000000014004f7f8     libucrtd:lcidtoname_downlevel.obj
 0002:0000d808       ??_C@_1M@BBGHNHJP@?$AAz?$AAu?$AA?9?$AAz?$AAa@ 000000014004f808     libucrtd:lcidtoname_downlevel.obj
 0002:0000d820       ??_C@_1GA@DEPMKPD@?$AAm?$AAi?$AAn?$AAk?$AAe?$AAr?$AAn?$AAe?$AAl?$AA?2?$AAc?$AAr?$AAt?$AAs?$AA?2@ 000000014004f820     libucrtd:isatty.obj
 0002:0000d880       ??_C@_1BA@LEBDGIHM@?$AA_?$AAi?$AAs?$AAa?$AAt?$AAt?$AAy@ 000000014004f880     libucrtd:isatty.obj
 0002:0000d910       ??_C@_1GI@IMEEHIAK@?$AAm?$AAi?$AAn?$AAk?$AAe?$AAr?$AAn?$AAe?$AAl?$AA?2?$AAc?$AAr?$AAt?$AAs?$AA?2@ 000000014004f910     libucrtd:_fptostr.obj
 0002:0000d978       ??_C@_1DG@NMGBKPMI@?$AA_?$AA_?$AAa?$AAc?$AAr?$AAt?$AA_?$AAf?$AAp?$AA_?$AAs?$AAt?$AAr?$AAf?$AAl@ 000000014004f978     libucrtd:_fptostr.obj
 0002:0000d9b0       ??_C@_1IE@EAOKIIFP@?$AAb?$AAu?$AAf?$AAf?$AAe?$AAr?$AA_?$AAc?$AAo?$AAu?$AAn?$AAt?$AA?5?$AA?$DO?$AA?5@ 000000014004f9b0     libucrtd:_fptostr.obj
 0002:0000da38       ??_C@_1CA@EDEEBMBB@?$AAp?$AAf?$AAl?$AAt?$AA?5?$AA?$CB?$AA?$DN?$AA?5?$AAn?$AAu?$AAl?$AAl?$AAp?$AAt?$AAr@ 000000014004fa38     libucrtd:_fptostr.obj
 0002:0000da60       ?large_power_data@?1??multiply_by_power_of_ten@__crt_strtox@@YA_NAEAUbig_integer@2@I@Z@4QBIB 000000014004fa60     libucrtd:cfout.obj
 0002:0000e370       ?large_power_indices@?1??multiply_by_power_of_ten@__crt_strtox@@YA_NAEAUbig_integer@2@I@Z@4QBUunpack_index@?1??12@YA_N0I@Z@B 0000000140050370     libucrtd:cfout.obj
 0002:0000e408       ?small_powers_of_ten@?1??multiply_by_power_of_ten@__crt_strtox@@YA_NAEAUbig_integer@2@I@Z@4QBIB 0000000140050408     libucrtd:cfout.obj
 0002:0000e430       ??_C@_1DI@GICAMMFM@?$AA?$CI?$AA?$CC?$AAD?$AAi?$AAv?$AAi?$AAs?$AAi?$AAo?$AAn?$AA?5?$AAb?$AAy?$AA?5?$AAz@ 0000000140050430     libucrtd:cfout.obj
 0002:0000e470       ??_C@_1GO@BFGDDONN@?$AAm?$AAi?$AAn?$AAk?$AAe?$AAr?$AAn?$AAe?$AAl?$AA?2?$AAc?$AAr?$AAt?$AAs?$AA?2@ 0000000140050470     libucrtd:cfout.obj
 0002:0000e4e0       ??_C@_1GC@DDAKNBNC@?$AAm?$AAi?$AAn?$AAk?$AAe?$AAr?$AAn?$AAe?$AAl?$AA?2?$AAc?$AAr?$AAt?$AAs?$AA?2@ 00000001400504e0     libucrtd:cfout.obj
 0002:0000e548       ??_C@_1BM@FAAOAKKO@?$AA_?$AA_?$AAa?$AAc?$AAr?$AAt?$AA_?$AAf?$AAl?$AAt?$AAo?$AAu?$AAt@ 0000000140050548     libucrtd:cfout.obj
 0002:0000e570       ??_C@_1EI@OACEJKEP@?$AAs?$AAt?$AAr?$AAc?$AAp?$AAy?$AA_?$AAs?$AA?$CI?$AAr?$AAe?$AAs?$AAu?$AAl?$AAt@ 0000000140050570     libucrtd:cfout.obj
 0002:0000e5b8       ??_C@_01GBGANLPD@0@        00000001400505b8     libucrtd:cfout.obj
 0002:0000e5c0       ??_C@_1FC@KIECGFMP@?$AAs?$AAt?$AAr?$AAc?$AAp?$AAy?$AA_?$AAs?$AA?$CI?$AAr?$AAe?$AAs?$AAu?$AAl?$AAt@ 00000001400505c0     libucrtd:cfout.obj
 0002:0000e614       ??_C@_05DNEBIAHO@1?$CDINF@ 0000000140050614     libucrtd:cfout.obj
 0002:0000e620       ??_C@_1FC@NFPJEIBD@?$AAs?$AAt?$AAr?$AAc?$AAp?$AAy?$AA_?$AAs?$AA?$CI?$AAr?$AAe?$AAs?$AAu?$AAl?$AAt@ 0000000140050620     libucrtd:cfout.obj
 0002:0000e674       ??_C@_06IMKFLFPG@1?$CDQNAN@ 0000000140050674     libucrtd:cfout.obj
 0002:0000e680       ??_C@_1FC@DEJHIMLO@?$AAs?$AAt?$AAr?$AAc?$AAp?$AAy?$AA_?$AAs?$AA?$CI?$AAr?$AAe?$AAs?$AAu?$AAl?$AAt@ 0000000140050680     libucrtd:cfout.obj
 0002:0000e6d4       ??_C@_06PGGFOGJG@1?$CDSNAN@ 00000001400506d4     libucrtd:cfout.obj
 0002:0000e6e0       ??_C@_1FC@KMLHLFPC@?$AAs?$AAt?$AAr?$AAc?$AAp?$AAy?$AA_?$AAs?$AA?$CI?$AAr?$AAe?$AAs?$AAu?$AAl?$AAt@ 00000001400506e0     libucrtd:cfout.obj
 0002:0000e734       ??_C@_05PHHOCPM@1?$CDIND@  0000000140050734     libucrtd:cfout.obj
 0002:0000e740       ??_C@_1DE@KHKADFOO@?$AAm?$AAa?$AAn?$AAt?$AAi?$AAs?$AAs?$AAa?$AA_?$AAb?$AAu?$AAf?$AAf?$AAe?$AAr@ 0000000140050740     libucrtd:cfout.obj
 0002:0000e780       ??_C@_1FI@LFKLOPAC@?$AA?$CI?$AA?$CC?$AAu?$AAn?$AAe?$AAx?$AAp?$AAe?$AAc?$AAt?$AAe?$AAd?$AA?5?$AAi?$AAn@ 0000000140050780     libucrtd:cfout.obj
 0002:0000e7e0       ??_C@_1FG@MLHBDPBG@?$AAq?$AAu?$AAo?$AAt?$AAi?$AAe?$AAn?$AAt?$AA?5?$AA?$DM?$AA?5?$AAd?$AAi?$AAg?$AAi@ 00000001400507e0     libucrtd:cfout.obj
 0002:0000e840       ??_C@_1EK@OANGPA@?$AA1?$AA?5?$AA?$DM?$AA?$DN?$AA?5?$AAt?$AAr?$AAa?$AAi?$AAl?$AA_?$AAb?$AAy?$AAt?$AAe@ 0000000140050840     libucrtd:c32rtomb.obj
 0002:0000e890       ??_C@_1GI@FBFKMNDD@?$AAm?$AAi?$AAn?$AAk?$AAe?$AAr?$AAn?$AAe?$AAl?$AA?2?$AAc?$AAr?$AAt?$AAs?$AA?2@ 0000000140050890     libucrtd:c32rtomb.obj
 0002:0000e900       ??_C@_1EA@DDDCIHI@?$AAc?$AA3?$AA2?$AA?5?$AA?$DM?$AA?5?$AA?$CI?$AA1?$AAu?$AA?5?$AA?$DM?$AA?$DM?$AA?5?$AA?$CI?$AA7@ 0000000140050900     libucrtd:c32rtomb.obj
 0002:0000e940       ??_C@_1GG@MCCIENJO@?$AAm?$AAi?$AAn?$AAk?$AAe?$AAr?$AAn?$AAe?$AAl?$AA?2?$AAc?$AAr?$AAt?$AAs?$AA?2@ 0000000140050940     libucrtd:mbrtowc.obj
 0002:0000e9b0       ??_C@_1EK@MCEFBPIK@?$AAr?$AAe?$AAt?$AAv?$AAa?$AAl?$AA?5?$AA?$CB?$AA?$DN?$AA?5?$AA_?$AA_?$AAc?$AAr?$AAt@ 00000001400509b0     libucrtd:mbrtowc.obj
 0002:0000ea00       ??_C@_1GE@GPOPIOIG@?$AAm?$AAi?$AAn?$AAk?$AAe?$AAr?$AAn?$AAe?$AAl?$AA?2?$AAc?$AAr?$AAt?$AAs?$AA?2@ 0000000140050a00     libucrtd:_freebuf.obj
 0002:0000ea90       ??_C@_1BK@FPAMLIDG@?$AAs?$AA?5?$AA?$CB?$AA?$DN?$AA?5?$AAn?$AAu?$AAl?$AAl?$AAp?$AAt?$AAr@ 0000000140050a90     libucrtd:mbstowcs.obj
 0002:0000eab0       ??_C@_1GI@KABMHNPH@?$AAm?$AAi?$AAn?$AAk?$AAe?$AAr?$AAn?$AAe?$AAl?$AA?2?$AAc?$AAr?$AAt?$AAs?$AA?2@ 0000000140050ab0     libucrtd:mbstowcs.obj
 0002:0000eb18       ??_C@_1CG@JEHFHLNG@?$AA_?$AAm?$AAb?$AAs?$AAt?$AAo?$AAw?$AAc?$AAs?$AA_?$AAl?$AA_?$AAh?$AAe?$AAl@ 0000000140050b18     libucrtd:mbstowcs.obj
 0002:0000eb40       ??_C@_1JM@MEKBACIG@?$AA?$CI?$AAp?$AAw?$AAc?$AAs?$AA?5?$AA?$DN?$AA?$DN?$AA?5?$AAn?$AAu?$AAl?$AAl?$AAp?$AAt@ 0000000140050b40     libucrtd:mbstowcs.obj
 0002:0000ebe0       ??_C@_1CG@BILJJDPK@?$AA_?$AAm?$AAb?$AAs?$AAt?$AAo?$AAw?$AAc?$AAs?$AA_?$AAi?$AAn?$AAt?$AAe?$AAr@ 0000000140050be0     libucrtd:mbstowcs.obj
 0002:0000ec08       ??_C@_1CM@LLECFMFH@?$AAb?$AAu?$AAf?$AAf?$AAe?$AAr?$AAS?$AAi?$AAz?$AAe?$AA?5?$AA?$DM?$AA?$DN?$AA?5?$AAI@ 0000000140050c08     libucrtd:mbstowcs.obj
 0002:0000ec38       ??_C@_1CO@JNPEPJAL@?$AAr?$AAe?$AAt?$AAs?$AAi?$AAz?$AAe?$AA?5?$AA?$DM?$AA?$DN?$AA?5?$AAs?$AAi?$AAz?$AAe@ 0000000140050c38     libucrtd:mbstowcs.obj
 0002:0000ec68       ??_C@_1CA@NOKNKDIG@?$AAp?$AAw?$AAc?$AAs?$AA?5?$AA?$CB?$AA?$DN?$AA?5?$AAn?$AAu?$AAl?$AAl?$AAp?$AAt?$AAr@ 0000000140050c68     libucrtd:wcstombs.obj
 0002:0000ec90       ??_C@_1GI@EEJDEALP@?$AAm?$AAi?$AAn?$AAk?$AAe?$AAr?$AAn?$AAe?$AAl?$AA?2?$AAc?$AAr?$AAt?$AAs?$AA?2@ 0000000140050c90     libucrtd:wcstombs.obj
 0002:0000ecf8       ??_C@_1CG@LLJCAOHF@?$AA_?$AAw?$AAc?$AAs?$AAt?$AAo?$AAm?$AAb?$AAs?$AA_?$AAl?$AA_?$AAh?$AAe?$AAl@ 0000000140050cf8     libucrtd:wcstombs.obj
 0002:0000ed20       ??_C@_1JI@DFNKFCLG@?$AA?$CI?$AAd?$AAs?$AAt?$AA?5?$AA?$CB?$AA?$DN?$AA?5?$AAn?$AAu?$AAl?$AAl?$AAp?$AAt?$AAr@ 0000000140050d20     libucrtd:wcstombs.obj
 0002:0000edb8       ??_C@_1CG@DHFOOGFJ@?$AA_?$AAw?$AAc?$AAs?$AAt?$AAo?$AAm?$AAb?$AAs?$AA_?$AAi?$AAn?$AAt?$AAe?$AAr@ 0000000140050db8     libucrtd:wcstombs.obj
 0002:0000ede0       ??_C@_1CM@KEOGBFLI@?$AAs?$AAi?$AAz?$AAe?$AAI?$AAn?$AAB?$AAy?$AAt?$AAe?$AAs?$AA?5?$AA?$DO?$AA?5?$AAr@ 0000000140050de0     libucrtd:wcstombs.obj
 0002:0000ee40       ??_C@_1GA@MPOOLHCO@?$AAm?$AAi?$AAn?$AAk?$AAe?$AAr?$AAn?$AAe?$AAl?$AA?2?$AAc?$AAr?$AAt?$AAs?$AA?2@ 0000000140050e40     libucrtd:commit.obj
 0002:0000eea0       ??_C@_1BA@FLNMBBIM@?$AA_?$AAc?$AAo?$AAm?$AAm?$AAi?$AAt@ 0000000140050ea0     libucrtd:commit.obj
 0002:0000eee0       ??_C@_1FO@CAMPMGCN@?$AAm?$AAi?$AAn?$AAk?$AAe?$AAr?$AAn?$AAe?$AAl?$AA?2?$AAc?$AAr?$AAt?$AAs?$AA?2@ 0000000140050ee0     libucrtd:write.obj
 0002:0000ef40       ??_C@_1CA@PNHCPGNO@?$AA_?$AAw?$AAr?$AAi?$AAt?$AAe?$AA_?$AAi?$AAn?$AAt?$AAe?$AAr?$AAn?$AAa?$AAl@ 0000000140050f40     libucrtd:write.obj
 0002:0000ef60       ??_C@_1CK@MMEFCHHN@?$AA?$CB?$AA_?$AAd?$AAb?$AAc?$AAs?$AAB?$AAu?$AAf?$AAf?$AAe?$AAr?$AAU?$AAs?$AAe@ 0000000140050f60     libucrtd:write.obj
 0002:0000ef90       ??_C@_1EG@LICJGLJJ@?$AA1?$AA?5?$AA?$DM?$AA?5?$AAm?$AAb?$AA_?$AAl?$AAe?$AAn?$AA?5?$AA?$CG?$AA?$CG?$AA?5?$AAm@ 0000000140050f90     libucrtd:write.obj
 0002:0000efe0       ??_C@_1FC@NFILPJB@?$AAm?$AAb?$AA_?$AAb?$AAu?$AAf?$AA_?$AAu?$AAs?$AAe?$AAd?$AA?5?$AA?$CL?$AA?5?$AAb@ 0000000140050fe0     libucrtd:write.obj
 0002:0000f040       ??_C@_1FC@HEJOPHLA@?$AAa?$AAv?$AAa?$AAi?$AAl?$AAa?$AAb?$AAl?$AAe?$AA_?$AAb?$AAy?$AAt?$AAe?$AAs@ 0000000140051040     libucrtd:write.obj
 0002:0000f0a0       ??_C@_1GG@JOGHJGBM@?$AA_?$AAi?$AAs?$AAl?$AAe?$AAa?$AAd?$AAb?$AAy?$AAt?$AAe?$AA_?$AAf?$AAa?$AAs@ 00000001400510a0     libucrtd:write.obj
 0002:0000f108       ??_C@_1BM@NCANHCIP@?$AA_?$AAw?$AAr?$AAi?$AAt?$AAe?$AA_?$AAn?$AAo?$AAl?$AAo?$AAc?$AAk@ 0000000140051108     libucrtd:write.obj
 0002:0000f128       ??_C@_1CK@CPEAGIIP@?$AAb?$AAu?$AAf?$AAf?$AAe?$AAr?$AA_?$AAs?$AAi?$AAz?$AAe?$AA?5?$AA?$CF?$AA?5?$AA2@ 0000000140051128     libucrtd:write.obj
 0002:0000f3b0       __real@3ff0000000000000    00000001400513b0     libucrtd:ceil.obj
 0002:0000f3b8       ??_C@_1DG@JNDMIEJL@?$AA?$CI?$AA?$CC?$AAI?$AAn?$AAv?$AAa?$AAl?$AAi?$AAd?$AA?5?$AAi?$AAn?$AAp?$AAu?$AAt@ 00000001400513b8     libucrtd:contrlfp.obj
 0002:0000f3f0       ??_C@_1FO@HHLKCIKB@?$AAm?$AAi?$AAn?$AAk?$AAe?$AAr?$AAn?$AAe?$AAl?$AA?2?$AAc?$AAr?$AAt?$AAs?$AA?2@ 00000001400513f0     libucrtd:contrlfp.obj
 0002:0000f450       ??_C@_1BK@CDOALEA@?$AA_?$AAc?$AAo?$AAn?$AAt?$AAr?$AAo?$AAl?$AAf?$AAp?$AA_?$AAs@ 0000000140051450     libucrtd:contrlfp.obj
 0002:0000f470       ??_C@_1GA@DKNOMDCL@?$AAm?$AAi?$AAn?$AAk?$AAe?$AAr?$AAn?$AAe?$AAl?$AA?2?$AAc?$AAr?$AAt?$AAs?$AA?2@ 0000000140051470     libucrtd:fclose.obj
 0002:0000f4d0       ??_C@_1DA@IHIKPHIN@?$AA_?$AAf?$AAc?$AAl?$AAo?$AAs?$AAe?$AA_?$AAn?$AAo?$AAl?$AAo?$AAc?$AAk?$AA_@ 00000001400514d0     libucrtd:fclose.obj
 0002:0000f500       ??_C@_1CC@LPELGHFC@?$AA_?$AAf?$AAc?$AAl?$AAo?$AAs?$AAe?$AA_?$AAi?$AAn?$AAt?$AAe?$AAr?$AAn?$AAa@ 0000000140051500     libucrtd:fclose.obj
 0002:0000f530       ??_C@_1FO@KIIHJNFN@?$AAm?$AAi?$AAn?$AAk?$AAe?$AAr?$AAn?$AAe?$AAl?$AA?2?$AAc?$AAr?$AAt?$AAs?$AA?2@ 0000000140051530     libucrtd:lseek.obj
 0002:0000f590       ??_C@_1DM@LMLOLGJ@?$AA?$CI?$AA?$CC?$AAI?$AAn?$AAv?$AAa?$AAl?$AAi?$AAd?$AA?5?$AAf?$AAi?$AAl?$AAe?$AA?5@ 0000000140051590     libucrtd:lseek.obj
 0002:0000f5d0       __log10_256_lead           00000001400515d0     libucrtd:log10_256_lead_tail_table.obj
 0002:0000fde0       __log10_256_tail           0000000140051de0     libucrtd:log10_256_lead_tail_table.obj
 0002:000105f0       __log_F_inv_qword          00000001400525f0     libucrtd:log_f_inv_qword_table.obj
 0002:00010e00       ??_C@_05HGHHAHAP@log10@    0000000140052e00     libucrtd:log_special.obj
 0002:00010e10       ??_C@_1EK@PDBKILLM@?$AA?$CI?$AAm?$AAa?$AAs?$AAk?$AA?$CG?$AA?$HO?$AA?$CI?$AA_?$AAM?$AAC?$AAW?$AA_?$AAD?$AAN@ 0000000140052e10     libucrtd:ieee.obj
 0002:00010e60       ??_C@_1GC@IEFABLII@?$AAm?$AAi?$AAn?$AAk?$AAe?$AAr?$AAn?$AAe?$AAl?$AA?2?$AAc?$AAr?$AAt?$AAs?$AA?2@ 0000000140052e60     libucrtd:ieee.obj
 0002:00010ef0       ??_C@_1FO@IPDGALOE@?$AAm?$AAi?$AAn?$AAk?$AAe?$AAr?$AAn?$AAe?$AAl?$AA?2?$AAc?$AAr?$AAt?$AAs?$AA?2@ 0000000140052ef0     libucrtd:close.obj
 0002:00010f50       ??_C@_1CA@GBJHJLEM@?$AA_?$AAc?$AAl?$AAo?$AAs?$AAe?$AA_?$AAi?$AAn?$AAt?$AAe?$AAr?$AAn?$AAa?$AAl@ 0000000140052f50     libucrtd:close.obj
 0002:00010f98       ??_C@_1BA@BALFACEM@?$AAC?$AAO?$AAN?$AAO?$AAU?$AAT?$AA$@ 0000000140052f98     libucrtd:initcon.obj
 0002:00010fc8       ??_7type_info@@6B@         0000000140052fc8     LIBCMTD:std_type_info_static.obj
 0002:00010fd0       __xmm@00000000000000000000000000000000 0000000140052fd0     libvcruntimed:strchr.obj
 0002:00010fe0       _load_config_used          0000000140052fe0     LIBCMTD:loadcfg.obj
 0002:00011300       ??_R4exception@std@@6B@    0000000140053300     libvcruntimed:frame.obj
 0002:00011328       ??_R3exception@std@@8      0000000140053328     libvcruntimed:frame.obj
 0002:00011340       ??_R2exception@std@@8      0000000140053340     libvcruntimed:frame.obj
 0002:00011350       ??_R1A@?0A@EA@exception@std@@8 0000000140053350     libvcruntimed:frame.obj
 0002:00011378       ??_R4bad_exception@std@@6B@ 0000000140053378     libvcruntimed:frame.obj
 0002:000113a0       ??_R3bad_exception@std@@8  00000001400533a0     libvcruntimed:frame.obj
 0002:000113b8       ??_R2bad_exception@std@@8  00000001400533b8     libvcruntimed:frame.obj
 0002:000113d0       ??_R1A@?0A@EA@bad_exception@std@@8 00000001400533d0     libvcruntimed:frame.obj
 0002:000113f8       ??_R4type_info@@6B@        00000001400533f8     LIBCMTD:std_type_info_static.obj
 0002:00011420       ??_R3type_info@@8          0000000140053420     LIBCMTD:std_type_info_static.obj
 0002:00011438       ??_R2type_info@@8          0000000140053438     LIBCMTD:std_type_info_static.obj
 0002:00011448       ??_R1A@?0A@EA@type_info@@8 0000000140053448     LIBCMTD:std_type_info_static.obj
 0002:0001146c       __volatile_metadata        000000014005346c     <linker-defined>
 0002:00011b98       __rtc_iaa                  0000000140053b98     LIBCMTD:initsect.obj
 0002:00011ba0       __rtc_izz                  0000000140053ba0     LIBCMTD:initsect.obj
 0002:00011ba8       __rtc_taa                  0000000140053ba8     LIBCMTD:initsect.obj
 0002:00011bb0       __rtc_tzz                  0000000140053bb0     LIBCMTD:initsect.obj
 0002:00012ea8       _TI2?AVbad_exception@std@@ 0000000140054ea8     libvcruntimed:frame.obj
 0002:00012ec8       _CTA2?AVbad_exception@std@@ 0000000140054ec8     libvcruntimed:frame.obj
 0002:00012ee0       _CT??_R0?AVbad_exception@std@@@8??0bad_exception@std@@QEAA@AEBV01@@Z24 0000000140054ee0     libvcruntimed:frame.obj
 0002:00012f08       _CT??_R0?AVexception@std@@@8??0exception@std@@QEAA@AEBV01@@Z24 0000000140054f08     libvcruntimed:frame.obj
 0002:00012f2c       __IMPORT_DESCRIPTOR_USER32 0000000140054f2c     user32:USER32.dll
 0002:00012f40       __IMPORT_DESCRIPTOR_GDI32  0000000140054f40     gdi32:GDI32.dll
 0002:00012f54       __IMPORT_DESCRIPTOR_WINMM  0000000140054f54     winmm:WINMM.dll
 0002:00012f68       __IMPORT_DESCRIPTOR_KERNEL32 0000000140054f68     kernel32:KERNEL32.dll
 0002:00012f7c       __NULL_IMPORT_DESCRIPTOR   0000000140054f7c     user32:USER32.dll
 0003:00000040       __security_cookie          0000000140056040     LIBCMTD:gs_cookie.obj
 0003:00000080       __security_cookie_complement 0000000140056080     LIBCMTD:gs_cookie.obj
 0003:00000088       _fltused                   0000000140056088     LIBCMTD:fltused.obj
 0003:0000008c       __scrt_native_dllmain_reason 000000014005608c     LIBCMTD:utility.obj
 0003:00000090       __scrt_default_matherr     0000000140056090     LIBCMTD:matherr.obj
 0003:00000098       __isa_available            0000000140056098     LIBCMTD:cpu_disp.obj
 0003:0000009c       __isa_enabled              000000014005609c     LIBCMTD:cpu_disp.obj
 0003:000000a0       __memset_fast_string_threshold 00000001400560a0     LIBCMTD:cpu_disp.obj
 0003:000000a8       __memset_nt_threshold      00000001400560a8     LIBCMTD:cpu_disp.obj
 0003:000000c4       _crtDbgFlag                00000001400560c4     libucrtd:debug_heap.obj
 0003:000000c8       _crtBreakAlloc             00000001400560c8     libucrtd:debug_heap.obj
 0003:000000d0       __abort_behavior           00000001400560d0     libucrtd:abort.obj
 0003:000000f0       __acrt_initial_multibyte_data 00000001400560f0     libucrtd:mbctype.obj
 0003:00000630       __acrt_initial_locale_data 0000000140056630     libucrtd:nlsdata.obj
 0003:00000788       __acrt_initial_locale_pointers 0000000140056788     libucrtd:nlsdata.obj
 0003:00000798       __acrt_wide_c_locale_string 0000000140056798     libucrtd:nlsdata.obj
 0003:000007a0       __acrt_lconv_c             00000001400567a0     libucrtd:localeconv.obj
 0003:00000838       __acrt_lconv_static_decimal 0000000140056838     libucrtd:localeconv.obj
 0003:0000083c       __acrt_lconv_static_W_decimal 000000014005683c     libucrtd:localeconv.obj
 0003:00000840       __globallocalestatus       0000000140056840     libucrtd:glstatus.obj
 0003:00000848       _pfnAllocHook              0000000140056848     libucrtd:debug_heap_hook.obj
 0003:00000860       _iob                       0000000140056860     libucrtd:_file.obj
 0003:00000968       _crtAssertBusy             0000000140056968     libucrtd:dbgrptt.obj
 0003:00000970       _CrtDbgMode                0000000140056970     libucrtd:dbgrptt.obj
 0003:00000980       _CrtDbgFile                0000000140056980     libucrtd:dbgrptt.obj
 0003:000009a0       _lookuptrailbytes          00000001400569a0     libucrtd:read.obj
 0003:00000ac0       ??_R0?AVbad_exception@std@@@8 0000000140056ac0     libvcruntimed:frame.obj
 0003:00000ae8       ??_R0?AVexception@std@@@8  0000000140056ae8     libvcruntimed:frame.obj
 0003:00000b10       ??_R0?AVtype_info@@@8      0000000140056b10     LIBCMTD:std_type_info_static.obj
 0003:00001100       __scrt_current_native_startup_state 0000000140057100     LIBCMTD:utility.obj
 0003:00001108       __scrt_native_startup_lock 0000000140057108     LIBCMTD:utility.obj
 0003:00001150       ?__type_info_root_node@@3U__type_info_node@@A 0000000140057150     LIBCMTD:tncleanup.obj
 0003:00001160       ?_OptionsStorage@?1??__local_stdio_printf_options@@9@4_KA 0000000140057160     LIBCMTD:default_local_stdio_options.obj
 0003:00001168       ?_OptionsStorage@?1??__local_stdio_scanf_options@@9@4_KA 0000000140057168     LIBCMTD:default_local_stdio_options.obj
 0003:00001170       __scrt_debugger_hook_flag  0000000140057170     LIBCMTD:utility_desktop.obj
 0003:00001174       __favor                    0000000140057174     LIBCMTD:cpu_disp.obj
 0003:00001178       ?__WinRTOutOfMemoryExceptionCallback@@3P6APEAXXZEA 0000000140057178     libvcruntimed:ehhelpers.obj
 0003:00001230       ?pArgList@UnDecorator@@0PEAVReplicator@@EA 0000000140057230     libvcruntimed:undname.obj
 0003:00001238       ?pZNameList@UnDecorator@@0PEAVReplicator@@EA 0000000140057238     libvcruntimed:undname.obj
 0003:00001240       ?pTemplateArgList@UnDecorator@@0PEAVReplicator@@EA 0000000140057240     libvcruntimed:undname.obj
 0003:00001248       ?gName@UnDecorator@@0PEBDEB 0000000140057248     libvcruntimed:undname.obj
 0003:00001250       ?name@UnDecorator@@0PEBDEB 0000000140057250     libvcruntimed:undname.obj
 0003:00001258       ?disableFlags@UnDecorator@@0KA 0000000140057258     libvcruntimed:undname.obj
 0003:0000125c       ?fExplicitTemplateParams@UnDecorator@@0_NA 000000014005725c     libvcruntimed:undname.obj
 0003:0000125d       ?fGetTemplateArgumentList@UnDecorator@@0_NA 000000014005725d     libvcruntimed:undname.obj
 0003:00001260       ?m_pGetParameter@UnDecorator@@0P6APEADJ@ZEA 0000000140057260     libvcruntimed:undname.obj
 0003:00001268       ?m_CHPENameOffset@UnDecorator@@0KA 0000000140057268     libvcruntimed:undname.obj
 0003:0000126c       ?m_recursionLevel@UnDecorator@@0KA 000000014005726c     libvcruntimed:undname.obj
 0003:000012d8       __pPurecall                00000001400572d8     libvcruntimed:purevirt_data.obj
 0003:00001a28       _environ_table             0000000140057a28     libucrtd:environment_initialization.obj
 0003:00001a30       _wenviron_table            0000000140057a30     libucrtd:environment_initialization.obj
 0003:00001a38       __dcrt_initial_wide_environment 0000000140057a38     libucrtd:environment_initialization.obj
 0003:00001a40       __dcrt_initial_narrow_environment 0000000140057a40     libucrtd:environment_initialization.obj
 0003:00001a5c       __acrt_locale_changed_data 0000000140057a5c     libucrtd:wsetlocale.obj
 0003:00001a64       _commode                   0000000140057a64     libucrtd:ncommode.obj
 0003:00001a68       __acrt_atexit_table        0000000140057a68     libucrtd:onexit.obj
 0003:00001a80       __acrt_at_quick_exit_table 0000000140057a80     libucrtd:onexit.obj
 0003:00001ac8       _pfnDumpClient             0000000140057ac8     libucrtd:debug_heap.obj
 0003:00001ae8       _mbctype                   0000000140057ae8     libucrtd:mbctype.obj
 0003:00001af0       _mbcasemap                 0000000140057af0     libucrtd:mbctype.obj
 0003:00001af8       __acrt_current_multibyte_data 0000000140057af8     libucrtd:mbctype.obj
 0003:00001b08       _pgmptr                    0000000140057b08     libucrtd:argv_data.obj
 0003:00001b10       __argc                     0000000140057b10     libucrtd:argv_data.obj
 0003:00001b18       __argv                     0000000140057b18     libucrtd:argv_data.obj
 0003:00001b20       __wargv                    0000000140057b20     libucrtd:argv_data.obj
 0003:00001b28       _acmdln                    0000000140057b28     libucrtd:argv_data.obj
 0003:00001b30       _wcmdln                    0000000140057b30     libucrtd:argv_data.obj
 0003:00001d7c       _fmode                     0000000140057d7c     libucrtd:txtmode.obj
 0003:00001d80       __pioinfo                  0000000140057d80     libucrtd:ioinit.obj
 0003:00002180       _nhandle                   0000000140058180     libucrtd:ioinit.obj
 0003:00002188       __acrt_current_locale_data 0000000140058188     libucrtd:nlsdata.obj
 0003:00002338       __acrt_lconv_static_null   0000000140058338     libucrtd:localeconv.obj
 0003:0000233c       __acrt_lconv_static_W_null 000000014005833c     libucrtd:localeconv.obj
 0003:00002340       __acrt_heap                0000000140058340     libucrtd:heap_handle.obj
 0003:00002370       __acrt_stdout_buffer       0000000140058370     libucrtd:_sftbuf.obj
 0003:00002378       __acrt_stderr_buffer       0000000140058378     libucrtd:_sftbuf.obj
 0003:00002388       _nstream                   0000000140058388     libucrtd:_file.obj
 0003:00002390       __piob                     0000000140058390     libucrtd:_file.obj
 0003:000023a0       _pfnReportHook             00000001400583a0     libucrtd:dbgrptt.obj
 0003:000023a8       _pReportHookList           00000001400583a8     libucrtd:dbgrptt.obj
 0003:000023b0       _pReportHookListW          00000001400583b0     libucrtd:dbgrptt.obj
 0003:000023c0       __fma3_is_available        00000001400583c0     libucrtd:fma3_available.obj
 0003:000023c4       __use_fma3_lib             00000001400583c4     libucrtd:fma3_available.obj
 0003:000023d0       __scrt_ucrt_dll_is_in_use  00000001400583d0     <common>
 0003:000023d8       __dyn_tls_dtor_callback    00000001400583d8     <common>
 0003:000023e0       __dyn_tls_init_callback    00000001400583e0     <common>

 entry point at        0001:000039b0

 Static symbols

 0000:fffa1000       .debug$S                   0000000140000000     gdi32:GDI32.dll
 0000:fffa1000       .debug$S                   0000000140000000     gdi32:GDI32.dll
 0000:fffa1000       .debug$S                   0000000140000000     gdi32:GDI32.dll
 0000:fffa1000       .debug$S                   0000000140000000     kernel32:KERNEL32.dll
 0000:fffa1000       .debug$S                   0000000140000000     kernel32:KERNEL32.dll
 0000:fffa1000       .debug$S                   0000000140000000     kernel32:KERNEL32.dll
 0000:fffa1000       .debug$S                   0000000140000000     kernel32:KERNEL32.dll
 0000:fffa1000       .debug$S                   0000000140000000     kernel32:KERNEL32.dll
 0000:fffa1000       .debug$S                   0000000140000000     kernel32:KERNEL32.dll
 0000:fffa1000       .debug$S                   0000000140000000     kernel32:KERNEL32.dll
 0000:fffa1000       .debug$S                   0000000140000000     kernel32:KERNEL32.dll
 0000:fffa1000       .debug$S                   0000000140000000     kernel32:KERNEL32.dll
 0000:fffa1000       .debug$S                   0000000140000000     kernel32:KERNEL32.dll
 0000:fffa1000       .debug$S                   0000000140000000     kernel32:KERNEL32.dll
 0000:fffa1000       .debug$S                   0000000140000000     kernel32:KERNEL32.dll
 0000:fffa1000       .debug$S                   0000000140000000     kernel32:KERNEL32.dll
 0000:fffa1000       .debug$S                   0000000140000000     kernel32:KERNEL32.dll
 0000:fffa1000       .debug$S                   0000000140000000     kernel32:KERNEL32.dll
 0000:fffa1000       .debug$S                   0000000140000000     kernel32:KERNEL32.dll
 0000:fffa1000       .debug$S                   0000000140000000     kernel32:KERNEL32.dll
 0000:fffa1000       .debug$S                   0000000140000000     kernel32:KERNEL32.dll
 0000:fffa1000       .debug$S                   0000000140000000     kernel32:KERNEL32.dll
 0000:fffa1000       .debug$S                   0000000140000000     kernel32:KERNEL32.dll
 0000:fffa1000       .debug$S                   0000000140000000     kernel32:KERNEL32.dll
 0000:fffa1000       .debug$S                   0000000140000000     kernel32:KERNEL32.dll
 0000:fffa1000       .debug$S                   0000000140000000     kernel32:KERNEL32.dll
 0000:fffa1000       .debug$S                   0000000140000000     kernel32:KERNEL32.dll
 0000:fffa1000       .debug$S                   0000000140000000     kernel32:KERNEL32.dll
 0000:fffa1000       .debug$S                   0000000140000000     kernel32:KERNEL32.dll
 0000:fffa1000       .debug$S                   0000000140000000     kernel32:KERNEL32.dll
 0000:fffa1000       .debug$S                   0000000140000000     kernel32:KERNEL32.dll
 0000:fffa1000       .debug$S                   0000000140000000     kernel32:KERNEL32.dll
 0000:fffa1000       .debug$S                   0000000140000000     kernel32:KERNEL32.dll
 0000:fffa1000       .debug$S                   0000000140000000     kernel32:KERNEL32.dll
 0000:fffa1000       .debug$S                   0000000140000000     kernel32:KERNEL32.dll
 0000:fffa1000       .debug$S                   0000000140000000     kernel32:KERNEL32.dll
 0000:fffa1000       .debug$S                   0000000140000000     kernel32:KERNEL32.dll
 0000:fffa1000       .debug$S                   0000000140000000     kernel32:KERNEL32.dll
 0000:fffa1000       .debug$S                   0000000140000000     kernel32:KERNEL32.dll
 0000:fffa1000       .debug$S                   0000000140000000     kernel32:KERNEL32.dll
 0000:fffa1000       .debug$S                   0000000140000000     kernel32:KERNEL32.dll
 0000:fffa1000       .debug$S                   0000000140000000     kernel32:KERNEL32.dll
 0000:fffa1000       .debug$S                   0000000140000000     kernel32:KERNEL32.dll
 0000:fffa1000       .debug$S                   0000000140000000     kernel32:KERNEL32.dll
 0000:fffa1000       .debug$S                   0000000140000000     kernel32:KERNEL32.dll
 0000:fffa1000       .debug$S                   0000000140000000     kernel32:KERNEL32.dll
 0000:fffa1000       .debug$S                   0000000140000000     kernel32:KERNEL32.dll
 0000:fffa1000       .debug$S                   0000000140000000     kernel32:KERNEL32.dll
 0000:fffa1000       .debug$S                   0000000140000000     kernel32:KERNEL32.dll
 0000:fffa1000       .debug$S                   0000000140000000     kernel32:KERNEL32.dll
 0000:fffa1000       .debug$S                   0000000140000000     kernel32:KERNEL32.dll
 0000:fffa1000       .debug$S                   0000000140000000     kernel32:KERNEL32.dll
 0000:fffa1000       .debug$S                   0000000140000000     kernel32:KERNEL32.dll
 0000:fffa1000       .debug$S                   0000000140000000     kernel32:KERNEL32.dll
 0000:fffa1000       .debug$S                   0000000140000000     kernel32:KERNEL32.dll
 0000:fffa1000       .debug$S                   0000000140000000     kernel32:KERNEL32.dll
 0000:fffa1000       .debug$S                   0000000140000000     kernel32:KERNEL32.dll
 0000:fffa1000       .debug$S                   0000000140000000     kernel32:KERNEL32.dll
 0000:fffa1000       .debug$S                   0000000140000000     kernel32:KERNEL32.dll
 0000:fffa1000       .debug$S                   0000000140000000     kernel32:KERNEL32.dll
 0000:fffa1000       .debug$S                   0000000140000000     kernel32:KERNEL32.dll
 0000:fffa1000       .debug$S                   0000000140000000     kernel32:KERNEL32.dll
 0000:fffa1000       .debug$S                   0000000140000000     kernel32:KERNEL32.dll
 0000:fffa1000       .debug$S                   0000000140000000     kernel32:KERNEL32.dll
 0000:fffa1000       .debug$S                   0000000140000000     kernel32:KERNEL32.dll
 0000:fffa1000       .debug$S                   0000000140000000     kernel32:KERNEL32.dll
 0000:fffa1000       .debug$S                   0000000140000000     kernel32:KERNEL32.dll
 0000:fffa1000       .debug$S                   0000000140000000     kernel32:KERNEL32.dll
 0000:fffa1000       .debug$S                   0000000140000000     kernel32:KERNEL32.dll
 0000:fffa1000       .debug$S                   0000000140000000     kernel32:KERNEL32.dll
 0000:fffa1000       .debug$S                   0000000140000000     kernel32:KERNEL32.dll
 0000:fffa1000       .debug$S                   0000000140000000     kernel32:KERNEL32.dll
 0000:fffa1000       .debug$S                   0000000140000000     kernel32:KERNEL32.dll
 0000:fffa1000       .debug$S                   0000000140000000     kernel32:KERNEL32.dll
 0000:fffa1000       .debug$S                   0000000140000000     kernel32:KERNEL32.dll
 0000:fffa1000       .debug$S                   0000000140000000     kernel32:KERNEL32.dll
 0000:fffa1000       .debug$S                   0000000140000000     kernel32:KERNEL32.dll
 0000:fffa1000       .debug$S                   0000000140000000     kernel32:KERNEL32.dll
 0000:fffa1000       .debug$S                   0000000140000000     kernel32:KERNEL32.dll
 0000:fffa1000       .debug$S                   0000000140000000     kernel32:KERNEL32.dll
 0000:fffa1000       .debug$S                   0000000140000000     kernel32:KERNEL32.dll
 0000:fffa1000       .debug$S                   0000000140000000     kernel32:KERNEL32.dll
 0000:fffa1000       .debug$S                   0000000140000000     kernel32:KERNEL32.dll
 0000:fffa1000       .debug$S                   0000000140000000     kernel32:KERNEL32.dll
 0000:fffa1000       .debug$S                   0000000140000000     kernel32:KERNEL32.dll
 0000:fffa1000       .debug$S                   0000000140000000     kernel32:KERNEL32.dll
 0000:fffa1000       .debug$S                   0000000140000000     kernel32:KERNEL32.dll
 0000:fffa1000       .debug$S                   0000000140000000     kernel32:KERNEL32.dll
 0000:fffa1000       .debug$S                   0000000140000000     kernel32:KERNEL32.dll
 0000:fffa1000       .debug$S                   0000000140000000     kernel32:KERNEL32.dll
 0000:fffa1000       .debug$S                   0000000140000000     kernel32:KERNEL32.dll
 0000:fffa1000       .debug$S                   0000000140000000     kernel32:KERNEL32.dll
 0000:fffa1000       .debug$S                   0000000140000000     kernel32:KERNEL32.dll
 0000:fffa1000       .debug$S                   0000000140000000     kernel32:KERNEL32.dll
 0000:fffa1000       .debug$S                   0000000140000000     kernel32:KERNEL32.dll
 0000:fffa1000       .debug$S                   0000000140000000     kernel32:KERNEL32.dll
 0000:fffa1000       .debug$S                   0000000140000000     kernel32:KERNEL32.dll
 0000:fffa1000       .debug$S                   0000000140000000     kernel32:KERNEL32.dll
 0000:fffa1000       .debug$S                   0000000140000000     kernel32:KERNEL32.dll
 0000:fffa1000       .debug$S                   0000000140000000     kernel32:KERNEL32.dll
 0000:fffa1000       .debug$S                   0000000140000000     kernel32:KERNEL32.dll
 0000:fffa1000       .debug$S                   0000000140000000     kernel32:KERNEL32.dll
 0000:fffa1000       .debug$S                   0000000140000000     kernel32:KERNEL32.dll
 0000:fffa1000       .debug$S                   0000000140000000     kernel32:KERNEL32.dll
 0000:fffa1000       .debug$S                   0000000140000000     kernel32:KERNEL32.dll
 0000:fffa1000       .debug$S                   0000000140000000     kernel32:KERNEL32.dll
 0000:fffa1000       .debug$S                   0000000140000000     kernel32:KERNEL32.dll
 0000:fffa1000       .debug$S                   0000000140000000     kernel32:KERNEL32.dll
 0000:fffa1000       .debug$S                   0000000140000000     user32:USER32.dll
 0000:fffa1000       .debug$S                   0000000140000000     user32:USER32.dll
 0000:fffa1000       .debug$S                   0000000140000000     user32:USER32.dll
 0000:fffa1000       .debug$S                   0000000140000000     user32:USER32.dll
 0000:fffa1000       .debug$S                   0000000140000000     user32:USER32.dll
 0000:fffa1000       .debug$S                   0000000140000000     user32:USER32.dll
 0000:fffa1000       .debug$S                   0000000140000000     user32:USER32.dll
 0000:fffa1000       .debug$S                   0000000140000000     user32:USER32.dll
 0000:fffa1000       .debug$S                   0000000140000000     user32:USER32.dll
 0000:fffa1000       .debug$S                   0000000140000000     user32:USER32.dll
 0000:fffa1000       .debug$S                   0000000140000000     user32:USER32.dll
 0000:fffa1000       .debug$S                   0000000140000000     user32:USER32.dll
 0000:fffa1000       .debug$S                   0000000140000000     user32:USER32.dll
 0000:fffa1000       .debug$S                   0000000140000000     user32:USER32.dll
 0000:fffa1000       .debug$S                   0000000140000000     user32:USER32.dll
 0000:fffa1000       .debug$S                   0000000140000000     winmm:WINMM.dll
 0001:000017d0       ?CatStrings@@YAX_KPEAD0101@Z 00000001400027d0 f   win32_handmade.obj
 0001:000018a0       ?Win32GetEXEFileName@@YAXPEAUwin32_state@@@Z 00000001400028a0 f   win32_handmade.obj
 0001:00001940       ?StringLength@@YAHPEAD@Z   0000000140002940 f   win32_handmade.obj
 0001:00001990       ?Win32BuildEXEPathFileName@@YAXPEAUwin32_state@@PEADH1@Z 0000000140002990 f   win32_handmade.obj
 0001:00001c90       ?Win32LoadGameCode@@YA?AUwin32_game_code@@PEAD00@Z 0000000140002c90 f   win32_handmade.obj
 0001:00001df0       ?Win32UnloadGameCode@@YAXPEAUwin32_game_code@@@Z 0000000140002df0 f   win32_handmade.obj
 0001:00001e50       ?Win32LoadXInput@@YAXXZ    0000000140002e50 f   win32_handmade.obj
 0001:00001f10       ?Win32InitDSound@@YAXPEAUHWND__@@HH@Z 0000000140002f10 f   win32_handmade.obj
 0001:00002130       ?Win32GetWindowDimension@@YA?AUwin32_window_dimension@@PEAUHWND__@@@Z 0000000140003130 f   win32_handmade.obj
 0001:000021a0       ?Win32ResizeDIBSection@@YAXPEAUwin32_offscreen_buffer@@HH@Z 00000001400031a0 f   win32_handmade.obj
 0001:000022c0       ?Win32DisplayBufferInWindow@@YAXPEAUwin32_offscreen_buffer@@PEAUHDC__@@HH@Z 00000001400032c0 f   win32_handmade.obj
 0001:00002460       ?Win32MainWindowCallback@@YA_JPEAUHWND__@@I_K_J@Z 0000000140003460 f   win32_handmade.obj
 0001:000025f0       ?Win32ClearBuffer@@YAXPEAUwin32_sound_output@@@Z 00000001400035f0 f   win32_handmade.obj
 0001:00002710       ?Win32FillSoundBuffer@@YAXPEAUwin32_sound_output@@KKPEAUgame_sound_output_buffer@@@Z 0000000140003710 f   win32_handmade.obj
 0001:00002940       ?Win32ProcessKeyboardMessage@@YAXPEAUgame_button_state@@H@Z 0000000140003940 f   win32_handmade.obj
 0001:00002980       ?Win32ProcessXInputDigitalButton@@YAXKPEAUgame_button_state@@K0@Z 0000000140003980 f   win32_handmade.obj
 0001:00002a00       ?Win32ProcessXInputStickValue@@YAMFF@Z 0000000140003a00 f   win32_handmade.obj
 0001:00002ab0       ?Win32GetInputFileLocation@@YAXPEAUwin32_state@@HHHPEAD@Z 0000000140003ab0 f   win32_handmade.obj
 0001:00002b60       ?Win32GetReplayBuffer@@YAPEAUwin32_replay_buffer@@PEAUwin32_state@@I@Z 0000000140003b60 f   win32_handmade.obj
 0001:00002bc0       ?Win32BeginRecordingInput@@YAXPEAUwin32_state@@H@Z 0000000140003bc0 f   win32_handmade.obj
 0001:00002ce0       ?Win32EndRecordingInput@@YAXPEAUwin32_state@@@Z 0000000140003ce0 f   win32_handmade.obj
 0001:00002d20       ?Win32BeginInputPlayBack@@YAXPEAUwin32_state@@H@Z 0000000140003d20 f   win32_handmade.obj
 0001:00002e40       ?Win32EndInputPlayBack@@YAXPEAUwin32_state@@@Z 0000000140003e40 f   win32_handmade.obj
 0001:00002e80       ?Win32RecordInput@@YAXPEAUwin32_state@@PEAUgame_input@@@Z 0000000140003e80 f   win32_handmade.obj
 0001:00002ed0       ?Win32PlayBackInput@@YAXPEAUwin32_state@@PEAUgame_input@@@Z 0000000140003ed0 f   win32_handmade.obj
 0001:00002f80       ?Win32ProcessPendingMessages@@YAXPEAUwin32_state@@PEAUgame_controller_input@@@Z 0000000140003f80 f   win32_handmade.obj
 0001:000035a0       $$000000                   00000001400045a0     LIBCMTD:chkstk.obj
 0001:00003600       $$000000                   0000000140004600     LIBCMTD:amdsecgs.obj
 0001:00003630       ?pre_c_initialization@@YAHXZ 0000000140004630 f   LIBCMTD:exe_winmain.obj
 0001:000036f0       ?post_pgo_initialization@@YAHXZ 00000001400046f0 f   LIBCMTD:exe_winmain.obj
 0001:00003700       ?pre_cpp_initialization@@YAXXZ 0000000140004700 f   LIBCMTD:exe_winmain.obj
 0001:00003720       ?__scrt_common_main@@YAHXZ 0000000140004720 f   LIBCMTD:exe_winmain.obj
 0001:00003740       ?__scrt_common_main_seh@@YAHXZ 0000000140004740 f   LIBCMTD:exe_winmain.obj
 0001:00003910       ?invoke_main@@YAHXZ        0000000140004910 f   LIBCMTD:exe_winmain.obj
 0001:00003bb0       ?capture_current_context@@YAXQEAU_CONTEXT@@@Z 0000000140004bb0 f   libucrtd:invalid_parameter.obj
 0001:00003bb0       capture_current_context    0000000140004bb0 f   LIBCMTD:gs_report.obj
 0001:00003c50       capture_previous_context   0000000140004c50 f   LIBCMTD:gs_report.obj
 0001:00003d10       ?find_pe_section@@YAPEAU_IMAGE_SECTION_HEADER@@QEAE_K@Z 0000000140004d10 f   LIBCMTD:utility.obj
 0001:00003de0       ?is_potentially_valid_image_base@@YA_NQEAX@Z 0000000140004de0 f   LIBCMTD:utility.obj
 0001:00004210       __get_entropy              0000000140005210 f   LIBCMTD:gs_support.obj
 0001:00004370       ?get_invalid_value@environment_strings_traits@?A0x1bf47908@@SAPEA_WXZ 0000000140005370 f   libucrtd:get_environment_from_os.obj
 0001:000043b0       initialize_environment     00000001400053b0 f   libucrtd:initialization.obj
 0001:000043b0       initialize_global_state_isolation 00000001400053b0 f   libucrtd:initialization.obj
 0001:000043c0       init_memcpy_functions      00000001400053c0 f   libvcruntimed:initialization.obj
 0001:00005230       ??0?$__crt_unique_handle_t@Uenvironment_strings_traits@?A0x1bf47908@@@@QEAA@QEA_W@Z 0000000140006230 f i libucrtd:get_environment_from_os.obj
 0001:00005230       ??0<lambda_8d0ee55de4b1038c4002e0adecdf1839>@@QEAA@AEBQEAU__acrt_ptd@@@Z 0000000140006230 f i libucrtd:per_thread_data.obj
 0001:00005230       ??0<lambda_8f455de75cd7d7f24b4096f044d8b9e6>@@QEAA@AEBQEAU__acrt_ptd@@@Z 0000000140006230 f i libucrtd:per_thread_data.obj
 0001:00005230       ??0<lambda_e157831efee4ea0afb0a2ace5dd5fd0d>@@QEAA@AEBQEAU__acrt_ptd@@@Z 0000000140006230 f i libucrtd:per_thread_data.obj
 0001:00005230       ??0<lambda_3e4146214822e0ea86c47ff907aef2ff>@@QEAA@AEBH@Z 0000000140006230 f i libucrtd:commit.obj
 0001:00005230       ??0<lambda_df1553121bfa390f1154bd84936f2730>@@QEAA@AEAV?$__crt_unique_heap_ptr@PEADU__crt_internal_free_policy@@@@@Z 0000000140006230 f i libucrtd:argv_parsing.obj
 0001:00005230       ??0<lambda_d121dba8a4adeaf3a9819e48611155df>@@QEAA@AEBQEAU_onexit_table_t@@@Z 0000000140006230 f i libucrtd:onexit.obj
 0001:000052b0       ?get@?$__crt_unique_handle_t@Uenvironment_strings_traits@?A0x1bf47908@@@@QEBAPEA_WXZ 00000001400062b0 f i libucrtd:get_environment_from_os.obj
 0001:000052b0       ?begin@?$argument_list@D@?A0x5f5c8891@@QEBAPEAPEADXZ 00000001400062b0 f i libucrtd:argv_wildcards.obj
 0001:00005490       ?_FilterSetCurrentException@@YAKPEAU_EXCEPTION_POINTERS@@E@Z 0000000140006490 f   libvcruntimed:ehhelpers.obj
 0001:00005720       $$000000                   0000000140006720     libvcruntimed:notify.obj
 0001:00005740       $$000000                   0000000140006740     libvcruntimed:notify.obj
 0001:00005750       $$000000                   0000000140006750     libvcruntimed:notify.obj
 0001:000057c0       ??0scoped_get_last_error_reset@?A0xf875a351@@QEAA@XZ 00000001400067c0 f   libvcruntimed:per_thread_data.obj
 0001:000057e0       ??1scoped_get_last_error_reset@?A0xf875a351@@QEAA@XZ 00000001400067e0 f   libvcruntimed:per_thread_data.obj
 0001:00005830       ?store_and_initialize_ptd@@YA_NQEAU__vcrt_ptd@@@Z 0000000140006830 f   libvcruntimed:per_thread_data.obj
 0001:00005ce0       ?invalid_function_sentinel@@YAPEAXXZ 0000000140006ce0 f   libucrtd:winapi_thunks.obj
 0001:00005ce0       ?invalid_function_sentinel@@YAPEAXXZ 0000000140006ce0 f   libvcruntimed:winapi_downlevel.obj
 0001:00005cf0       ?try_get_FlsAlloc@@YAP6AKP6AXPEAX@Z@ZXZ 0000000140006cf0 f   libvcruntimed:winapi_downlevel.obj
 0001:00005d20       ?try_get_FlsFree@@YAP6AHK@ZXZ 0000000140006d20 f   libvcruntimed:winapi_downlevel.obj
 0001:00005d50       ?try_get_FlsGetValue@@YAP6APEAXK@ZXZ 0000000140006d50 f   libvcruntimed:winapi_downlevel.obj
 0001:00005d80       ?try_get_FlsSetValue@@YAP6AHKPEAX@ZXZ 0000000140006d80 f   libvcruntimed:winapi_downlevel.obj
 0001:00005db0       ?try_get_InitializeCriticalSectionEx@@YAP6AHPEAU_RTL_CRITICAL_SECTION@@KK@ZXZ 0000000140006db0 f   libvcruntimed:winapi_downlevel.obj
 0001:00005de0       ?try_get_first_available_module@@YAPEAUHINSTANCE__@@QEBW4module_id@?A0x14174aea@@0@Z 0000000140006de0 f   libvcruntimed:winapi_downlevel.obj
 0001:00005e40       ?try_get_function@@YAPEAXW4function_id@?A0x14174aea@@QEBDQEBW4module_id@2@2@Z 0000000140006e40 f   libvcruntimed:winapi_downlevel.obj
 0001:00005fb0       ?try_get_module@@YAPEAUHINSTANCE__@@W4module_id@?A0x14174aea@@@Z 0000000140006fb0 f   libvcruntimed:winapi_downlevel.obj
 0001:00006110       ?try_get_proc_address_from_first_available_module@@YAPEAXQEBDQEBW4module_id@?A0x14174aea@@1@Z 0000000140007110 f   libvcruntimed:winapi_downlevel.obj
 0001:00006160       ?try_load_library_from_system_directory@@YAPEAUHINSTANCE__@@QEB_W@Z 0000000140007160 f   libvcruntimed:winapi_downlevel.obj
 0001:000063d0       ??$SehTransFilter@V__FrameHandler3@@@@YAHPEAU_EXCEPTION_POINTERS@@PEAUEHExceptionRecord@@PEA_KPEAU_CONTEXT@@PEAU_xDISPATCHER_CONTEXT@@PEBU_s_FuncInfo@@HPEAH@Z 00000001400073d0 f   libvcruntimed:risctrnsctrl.obj
 0001:000070f0       ?adjustIp@@YA_KPEAU_xDISPATCHER_CONTEXT@@_K@Z 00000001400080f0 f   libvcruntimed:ehstate.obj
 0001:00007100       ??$BuildCatchObjectHelperInternal@V__FrameHandler3@@@@YAHPEAUEHExceptionRecord@@PEAXPEBU_s_HandlerType@@PEBU_s_CatchableType@@@Z 0000000140008100 f   libvcruntimed:frame.obj
 0001:000074e0       ??$BuildCatchObjectInternal@V__FrameHandler3@@@@YAXPEAUEHExceptionRecord@@PEAXPEBU_s_HandlerType@@PEBU_s_CatchableType@@@Z 00000001400084e0 f   libvcruntimed:frame.obj
 0001:00007630       ??$CatchIt@V__FrameHandler3@@@@YAXPEAUEHExceptionRecord@@PEA_KPEAU_CONTEXT@@PEAU_xDISPATCHER_CONTEXT@@PEBU_s_FuncInfo@@PEBU_s_HandlerType@@PEBU_s_CatchableType@@PEBU_s_TryBlockMapEntry@@H1EE@Z 0000000140008630 f   libvcruntimed:frame.obj
 0001:00007770       ??$FindHandler@V__FrameHandler3@@@@YAXPEAUEHExceptionRecord@@PEA_KPEAU_CONTEXT@@PEAU_xDISPATCHER_CONTEXT@@PEBU_s_FuncInfo@@EH1@Z 0000000140008770 f   libvcruntimed:frame.obj
 0001:00007f40       ??$FindHandlerForForeignException@V__FrameHandler3@@@@YAXPEAUEHExceptionRecord@@PEA_KPEAU_CONTEXT@@PEAU_xDISPATCHER_CONTEXT@@PEBU_s_FuncInfo@@HH1@Z 0000000140008f40 f   libvcruntimed:frame.obj
 0001:000089d0       ??0<lambda_92619d2358a28f41a33ba319515a20b9>@@QEAA@AEBQEAU__acrt_ptd@@AEBQEAPEAU__crt_locale_data@@@Z 00000001400099d0 f i libucrtd:per_thread_data.obj
 0001:000089d0       ??0<lambda_af29824b49a67d335554598d6cad2be6>@@QEAA@AEBHAEAV__crt_cached_ptd_host@@@Z 00000001400099d0 f i libucrtd:close.obj
 0001:000089d0       ??0<lambda_bd5a608237428601b7e45fbdc72b1ae8>@@QEAA@AEBQEAU__acrt_ptd@@AEBQEAPEAU__crt_multibyte_data@@@Z 00000001400099d0 f i libucrtd:mbctype.obj
 0001:000089d0       ??0<lambda_208ce30acdd7200aa596f2796f4d5154>@@QEAA@AEBQEAU_onexit_table_t@@AEBQ6AHXZ@Z 00000001400099d0 f i libucrtd:onexit.obj
 0001:00009090       ?ExFilterRethrow@@YAHPEAU_EXCEPTION_POINTERS@@PEAUEHExceptionRecord@@PEAH@Z 000000014000a090 f   libvcruntimed:frame.obj
 0001:000094b0       ?IsInExceptionSpec@@YAEPEAUEHExceptionRecord@@PEBU_s_ESTypeList@@@Z 000000014000a4b0 f   libvcruntimed:frame.obj
 0001:000095d0       ?Is_bad_exception_allowed@@YAEPEBU_s_ESTypeList@@@Z 000000014000a5d0 f   libvcruntimed:frame.obj
 0001:00009750       ?__RethrowException@@YAXPEAUEHExceptionRecord@@@Z 000000014000a750 f   libvcruntimed:frame.obj
 0001:00009980       $$000000                   000000014000a980     libvcruntimed:memcpy_avx_ermsb_aligned.obj
 0001:000099ae       MoveSmall0                 000000014000a9ae     libvcruntimed:memcpy_avx_ermsb_aligned.obj
 0001:000099b0       MoveSmall15                000000014000a9b0     libvcruntimed:memcpy_avx_ermsb_aligned.obj
 0001:000099d0       MoveSmall11                000000014000a9d0     libvcruntimed:memcpy_avx_ermsb_aligned.obj
 0001:000099e8       MoveSmall2                 000000014000a9e8     libvcruntimed:memcpy_avx_ermsb_aligned.obj
 0001:000099f0       MoveSmall7                 000000014000a9f0     libvcruntimed:memcpy_avx_ermsb_aligned.obj
 0001:00009a08       MoveSmall14                000000014000aa08     libvcruntimed:memcpy_avx_ermsb_aligned.obj
 0001:00009a1f       MoveSmall3                 000000014000aa1f     libvcruntimed:memcpy_avx_ermsb_aligned.obj
 0001:00009a30       MoveSmall13                000000014000aa30     libvcruntimed:memcpy_avx_ermsb_aligned.obj
 0001:00009a46       MoveSmall10                000000014000aa46     libvcruntimed:memcpy_avx_ermsb_aligned.obj
 0001:00009a55       MoveSmall9                 000000014000aa55     libvcruntimed:memcpy_avx_ermsb_aligned.obj
 0001:00009a63       MoveSmall12                000000014000aa63     libvcruntimed:memcpy_avx_ermsb_aligned.obj
 0001:00009a70       MoveSmall6                 000000014000aa70     libvcruntimed:memcpy_avx_ermsb_aligned.obj
 0001:00009a7f       MoveSmall5                 000000014000aa7f     libvcruntimed:memcpy_avx_ermsb_aligned.obj
 0001:00009a8d       MoveSmall8                 000000014000aa8d     libvcruntimed:memcpy_avx_ermsb_aligned.obj
 0001:00009a94       MoveSmall1                 000000014000aa94     libvcruntimed:memcpy_avx_ermsb_aligned.obj
 0001:00009a9a       MoveSmall4                 000000014000aa9a     libvcruntimed:memcpy_avx_ermsb_aligned.obj
 0001:00009aa0       MoveAbove15                000000014000aaa0     libvcruntimed:memcpy_avx_ermsb_aligned.obj
 0001:00009abd       MoveAbove32                000000014000aabd     libvcruntimed:memcpy_avx_ermsb_aligned.obj
 0001:00009ae7       MoveWithYMM                000000014000aae7     libvcruntimed:memcpy_avx_ermsb_aligned.obj
 0001:00009b30       YmmLoop                    000000014000ab30     libvcruntimed:memcpy_avx_ermsb_aligned.obj
 0001:00009bb8       MovUpTo256WithYMM          000000014000abb8     libvcruntimed:memcpy_avx_ermsb_aligned.obj
 0001:00009bd5       Mov8YmmBlocks              000000014000abd5     libvcruntimed:memcpy_avx_ermsb_aligned.obj
 0001:00009be9       Mov7YmmBlocks              000000014000abe9     libvcruntimed:memcpy_avx_ermsb_aligned.obj
 0001:00009bfd       Mov6YmmBlocks              000000014000abfd     libvcruntimed:memcpy_avx_ermsb_aligned.obj
 0001:00009c11       Mov5YmmBlocks              000000014000ac11     libvcruntimed:memcpy_avx_ermsb_aligned.obj
 0001:00009c25       Mov4YmmBlocks              000000014000ac25     libvcruntimed:memcpy_avx_ermsb_aligned.obj
 0001:00009c33       Mov3YmmBlocks              000000014000ac33     libvcruntimed:memcpy_avx_ermsb_aligned.obj
 0001:00009c41       Mov2YmmBlocks              000000014000ac41     libvcruntimed:memcpy_avx_ermsb_aligned.obj
 0001:00009c4f       Mov1YmmBlocks              000000014000ac4f     libvcruntimed:memcpy_avx_ermsb_aligned.obj
 0001:00009c56       Mov0YmmBlocks              000000014000ac56     libvcruntimed:memcpy_avx_ermsb_aligned.obj
 0001:00009c60       YmmLoopNT                  000000014000ac60     libvcruntimed:memcpy_avx_ermsb_aligned.obj
 0001:00009d05       Mov8YmmBlocksNT            000000014000ad05     libvcruntimed:memcpy_avx_ermsb_aligned.obj
 0001:00009d19       Mov7YmmBlocksNT            000000014000ad19     libvcruntimed:memcpy_avx_ermsb_aligned.obj
 0001:00009d2d       Mov6YmmBlocksNT            000000014000ad2d     libvcruntimed:memcpy_avx_ermsb_aligned.obj
 0001:00009d41       Mov5YmmBlocksNT            000000014000ad41     libvcruntimed:memcpy_avx_ermsb_aligned.obj
 0001:00009d55       Mov4YmmBlocksNT            000000014000ad55     libvcruntimed:memcpy_avx_ermsb_aligned.obj
 0001:00009d63       Mov3YmmBlocksNT            000000014000ad63     libvcruntimed:memcpy_avx_ermsb_aligned.obj
 0001:00009d71       Mov2YmmBlocksNT            000000014000ad71     libvcruntimed:memcpy_avx_ermsb_aligned.obj
 0001:00009d7f       Mov1YmmBlocksNT            000000014000ad7f     libvcruntimed:memcpy_avx_ermsb_aligned.obj
 0001:00009d86       Mov0YmmBlocksNT            000000014000ad86     libvcruntimed:memcpy_avx_ermsb_aligned.obj
 0001:00009db0       $$000000                   000000014000adb0     libvcruntimed:memcpy_avx_ermsb_aligned_amd.obj
 0001:00009dde       MoveSmall0                 000000014000adde     libvcruntimed:memcpy_avx_ermsb_aligned_amd.obj
 0001:00009de0       MoveSmall15                000000014000ade0     libvcruntimed:memcpy_avx_ermsb_aligned_amd.obj
 0001:00009e00       MoveSmall11                000000014000ae00     libvcruntimed:memcpy_avx_ermsb_aligned_amd.obj
 0001:00009e18       MoveSmall2                 000000014000ae18     libvcruntimed:memcpy_avx_ermsb_aligned_amd.obj
 0001:00009e20       MoveSmall7                 000000014000ae20     libvcruntimed:memcpy_avx_ermsb_aligned_amd.obj
 0001:00009e38       MoveSmall14                000000014000ae38     libvcruntimed:memcpy_avx_ermsb_aligned_amd.obj
 0001:00009e4f       MoveSmall3                 000000014000ae4f     libvcruntimed:memcpy_avx_ermsb_aligned_amd.obj
 0001:00009e60       MoveSmall13                000000014000ae60     libvcruntimed:memcpy_avx_ermsb_aligned_amd.obj
 0001:00009e76       MoveSmall10                000000014000ae76     libvcruntimed:memcpy_avx_ermsb_aligned_amd.obj
 0001:00009e85       MoveSmall9                 000000014000ae85     libvcruntimed:memcpy_avx_ermsb_aligned_amd.obj
 0001:00009e93       MoveSmall12                000000014000ae93     libvcruntimed:memcpy_avx_ermsb_aligned_amd.obj
 0001:00009ea0       MoveSmall6                 000000014000aea0     libvcruntimed:memcpy_avx_ermsb_aligned_amd.obj
 0001:00009eaf       MoveSmall5                 000000014000aeaf     libvcruntimed:memcpy_avx_ermsb_aligned_amd.obj
 0001:00009ebd       MoveSmall8                 000000014000aebd     libvcruntimed:memcpy_avx_ermsb_aligned_amd.obj
 0001:00009ec4       MoveSmall1                 000000014000aec4     libvcruntimed:memcpy_avx_ermsb_aligned_amd.obj
 0001:00009eca       MoveSmall4                 000000014000aeca     libvcruntimed:memcpy_avx_ermsb_aligned_amd.obj
 0001:00009ed0       MoveAbove15                000000014000aed0     libvcruntimed:memcpy_avx_ermsb_aligned_amd.obj
 0001:00009eed       MoveAbove32                000000014000aeed     libvcruntimed:memcpy_avx_ermsb_aligned_amd.obj
 0001:00009f17       MoveWithYMM                000000014000af17     libvcruntimed:memcpy_avx_ermsb_aligned_amd.obj
 0001:00009f60       YmmLoop                    000000014000af60     libvcruntimed:memcpy_avx_ermsb_aligned_amd.obj
 0001:00009fe8       MovUpTo256WithYMM          000000014000afe8     libvcruntimed:memcpy_avx_ermsb_aligned_amd.obj
 0001:0000a005       Mov8YmmBlocks              000000014000b005     libvcruntimed:memcpy_avx_ermsb_aligned_amd.obj
 0001:0000a019       Mov7YmmBlocks              000000014000b019     libvcruntimed:memcpy_avx_ermsb_aligned_amd.obj
 0001:0000a02d       Mov6YmmBlocks              000000014000b02d     libvcruntimed:memcpy_avx_ermsb_aligned_amd.obj
 0001:0000a041       Mov5YmmBlocks              000000014000b041     libvcruntimed:memcpy_avx_ermsb_aligned_amd.obj
 0001:0000a055       Mov4YmmBlocks              000000014000b055     libvcruntimed:memcpy_avx_ermsb_aligned_amd.obj
 0001:0000a063       Mov3YmmBlocks              000000014000b063     libvcruntimed:memcpy_avx_ermsb_aligned_amd.obj
 0001:0000a071       Mov2YmmBlocks              000000014000b071     libvcruntimed:memcpy_avx_ermsb_aligned_amd.obj
 0001:0000a07f       Mov1YmmBlocks              000000014000b07f     libvcruntimed:memcpy_avx_ermsb_aligned_amd.obj
 0001:0000a086       Mov0YmmBlocks              000000014000b086     libvcruntimed:memcpy_avx_ermsb_aligned_amd.obj
 0001:0000a090       YmmLoopNT                  000000014000b090     libvcruntimed:memcpy_avx_ermsb_aligned_amd.obj
 0001:0000a135       Mov8YmmBlocksNT            000000014000b135     libvcruntimed:memcpy_avx_ermsb_aligned_amd.obj
 0001:0000a149       Mov7YmmBlocksNT            000000014000b149     libvcruntimed:memcpy_avx_ermsb_aligned_amd.obj
 0001:0000a15d       Mov6YmmBlocksNT            000000014000b15d     libvcruntimed:memcpy_avx_ermsb_aligned_amd.obj
 0001:0000a171       Mov5YmmBlocksNT            000000014000b171     libvcruntimed:memcpy_avx_ermsb_aligned_amd.obj
 0001:0000a185       Mov4YmmBlocksNT            000000014000b185     libvcruntimed:memcpy_avx_ermsb_aligned_amd.obj
 0001:0000a193       Mov3YmmBlocksNT            000000014000b193     libvcruntimed:memcpy_avx_ermsb_aligned_amd.obj
 0001:0000a1a1       Mov2YmmBlocksNT            000000014000b1a1     libvcruntimed:memcpy_avx_ermsb_aligned_amd.obj
 0001:0000a1af       Mov1YmmBlocksNT            000000014000b1af     libvcruntimed:memcpy_avx_ermsb_aligned_amd.obj
 0001:0000a1b6       Mov0YmmBlocksNT            000000014000b1b6     libvcruntimed:memcpy_avx_ermsb_aligned_amd.obj
 0001:0000a1e0       $$000000                   000000014000b1e0     libvcruntimed:memcpy_sse2_ermsb_aligned.obj
 0001:0000a20e       MoveSmall0                 000000014000b20e     libvcruntimed:memcpy_sse2_ermsb_aligned.obj
 0001:0000a210       MoveSmall15                000000014000b210     libvcruntimed:memcpy_sse2_ermsb_aligned.obj
 0001:0000a230       MoveSmall11                000000014000b230     libvcruntimed:memcpy_sse2_ermsb_aligned.obj
 0001:0000a248       MoveSmall2                 000000014000b248     libvcruntimed:memcpy_sse2_ermsb_aligned.obj
 0001:0000a250       MoveSmall7                 000000014000b250     libvcruntimed:memcpy_sse2_ermsb_aligned.obj
 0001:0000a268       MoveSmall14                000000014000b268     libvcruntimed:memcpy_sse2_ermsb_aligned.obj
 0001:0000a27f       MoveSmall3                 000000014000b27f     libvcruntimed:memcpy_sse2_ermsb_aligned.obj
 0001:0000a290       MoveSmall13                000000014000b290     libvcruntimed:memcpy_sse2_ermsb_aligned.obj
 0001:0000a2a6       MoveSmall10                000000014000b2a6     libvcruntimed:memcpy_sse2_ermsb_aligned.obj
 0001:0000a2b5       MoveSmall9                 000000014000b2b5     libvcruntimed:memcpy_sse2_ermsb_aligned.obj
 0001:0000a2c3       MoveSmall12                000000014000b2c3     libvcruntimed:memcpy_sse2_ermsb_aligned.obj
 0001:0000a2d0       MoveSmall6                 000000014000b2d0     libvcruntimed:memcpy_sse2_ermsb_aligned.obj
 0001:0000a2df       MoveSmall5                 000000014000b2df     libvcruntimed:memcpy_sse2_ermsb_aligned.obj
 0001:0000a2ed       MoveSmall8                 000000014000b2ed     libvcruntimed:memcpy_sse2_ermsb_aligned.obj
 0001:0000a2f4       MoveSmall1                 000000014000b2f4     libvcruntimed:memcpy_sse2_ermsb_aligned.obj
 0001:0000a2fa       MoveSmall4                 000000014000b2fa     libvcruntimed:memcpy_sse2_ermsb_aligned.obj
 0001:0000a300       MoveAbove15                000000014000b300     libvcruntimed:memcpy_sse2_ermsb_aligned.obj
 0001:0000a31d       MoveAbove32                000000014000b31d     libvcruntimed:memcpy_sse2_ermsb_aligned.obj
 0001:0000a33e       MoveWithXMM                000000014000b33e     libvcruntimed:memcpy_sse2_ermsb_aligned.obj
 0001:0000a380       XmmLoop                    000000014000b380     libvcruntimed:memcpy_sse2_ermsb_aligned.obj
 0001:0000a3ec       MovUpTo128WithXMM          000000014000b3ec     libvcruntimed:memcpy_sse2_ermsb_aligned.obj
 0001:0000a409       Mov8XmmBlocks              000000014000b409     libvcruntimed:memcpy_sse2_ermsb_aligned.obj
 0001:0000a417       Mov7XmmBlocks              000000014000b417     libvcruntimed:memcpy_sse2_ermsb_aligned.obj
 0001:0000a425       Mov6XmmBlocks              000000014000b425     libvcruntimed:memcpy_sse2_ermsb_aligned.obj
 0001:0000a433       Mov5XmmBlocks              000000014000b433     libvcruntimed:memcpy_sse2_ermsb_aligned.obj
 0001:0000a441       Mov4XmmBlocks              000000014000b441     libvcruntimed:memcpy_sse2_ermsb_aligned.obj
 0001:0000a44f       Mov3XmmBlocks              000000014000b44f     libvcruntimed:memcpy_sse2_ermsb_aligned.obj
 0001:0000a45d       Mov2XmmBlocks              000000014000b45d     libvcruntimed:memcpy_sse2_ermsb_aligned.obj
 0001:0000a46b       Mov1XmmBlocks              000000014000b46b     libvcruntimed:memcpy_sse2_ermsb_aligned.obj
 0001:0000a472       Mov0XmmBlocks              000000014000b472     libvcruntimed:memcpy_sse2_ermsb_aligned.obj
 0001:0000a490       $$000000                   000000014000b490     libvcruntimed:memcpy_sse2_ermsb_aligned_amd.obj
 0001:0000a4be       MoveSmall0                 000000014000b4be     libvcruntimed:memcpy_sse2_ermsb_aligned_amd.obj
 0001:0000a4c0       MoveSmall15                000000014000b4c0     libvcruntimed:memcpy_sse2_ermsb_aligned_amd.obj
 0001:0000a4e0       MoveSmall11                000000014000b4e0     libvcruntimed:memcpy_sse2_ermsb_aligned_amd.obj
 0001:0000a4f8       MoveSmall2                 000000014000b4f8     libvcruntimed:memcpy_sse2_ermsb_aligned_amd.obj
 0001:0000a500       MoveSmall7                 000000014000b500     libvcruntimed:memcpy_sse2_ermsb_aligned_amd.obj
 0001:0000a518       MoveSmall14                000000014000b518     libvcruntimed:memcpy_sse2_ermsb_aligned_amd.obj
 0001:0000a52f       MoveSmall3                 000000014000b52f     libvcruntimed:memcpy_sse2_ermsb_aligned_amd.obj
 0001:0000a540       MoveSmall13                000000014000b540     libvcruntimed:memcpy_sse2_ermsb_aligned_amd.obj
 0001:0000a556       MoveSmall10                000000014000b556     libvcruntimed:memcpy_sse2_ermsb_aligned_amd.obj
 0001:0000a565       MoveSmall9                 000000014000b565     libvcruntimed:memcpy_sse2_ermsb_aligned_amd.obj
 0001:0000a573       MoveSmall12                000000014000b573     libvcruntimed:memcpy_sse2_ermsb_aligned_amd.obj
 0001:0000a580       MoveSmall6                 000000014000b580     libvcruntimed:memcpy_sse2_ermsb_aligned_amd.obj
 0001:0000a58f       MoveSmall5                 000000014000b58f     libvcruntimed:memcpy_sse2_ermsb_aligned_amd.obj
 0001:0000a59d       MoveSmall8                 000000014000b59d     libvcruntimed:memcpy_sse2_ermsb_aligned_amd.obj
 0001:0000a5a4       MoveSmall1                 000000014000b5a4     libvcruntimed:memcpy_sse2_ermsb_aligned_amd.obj
 0001:0000a5aa       MoveSmall4                 000000014000b5aa     libvcruntimed:memcpy_sse2_ermsb_aligned_amd.obj
 0001:0000a5b0       MoveAbove15                000000014000b5b0     libvcruntimed:memcpy_sse2_ermsb_aligned_amd.obj
 0001:0000a5cd       MoveAbove32                000000014000b5cd     libvcruntimed:memcpy_sse2_ermsb_aligned_amd.obj
 0001:0000a5ee       MoveWithXMM                000000014000b5ee     libvcruntimed:memcpy_sse2_ermsb_aligned_amd.obj
 0001:0000a630       XmmLoop                    000000014000b630     libvcruntimed:memcpy_sse2_ermsb_aligned_amd.obj
 0001:0000a69c       MovUpTo128WithXMM          000000014000b69c     libvcruntimed:memcpy_sse2_ermsb_aligned_amd.obj
 0001:0000a6b9       Mov8XmmBlocks              000000014000b6b9     libvcruntimed:memcpy_sse2_ermsb_aligned_amd.obj
 0001:0000a6c7       Mov7XmmBlocks              000000014000b6c7     libvcruntimed:memcpy_sse2_ermsb_aligned_amd.obj
 0001:0000a6d5       Mov6XmmBlocks              000000014000b6d5     libvcruntimed:memcpy_sse2_ermsb_aligned_amd.obj
 0001:0000a6e3       Mov5XmmBlocks              000000014000b6e3     libvcruntimed:memcpy_sse2_ermsb_aligned_amd.obj
 0001:0000a6f1       Mov4XmmBlocks              000000014000b6f1     libvcruntimed:memcpy_sse2_ermsb_aligned_amd.obj
 0001:0000a6ff       Mov3XmmBlocks              000000014000b6ff     libvcruntimed:memcpy_sse2_ermsb_aligned_amd.obj
 0001:0000a70d       Mov2XmmBlocks              000000014000b70d     libvcruntimed:memcpy_sse2_ermsb_aligned_amd.obj
 0001:0000a71b       Mov1XmmBlocks              000000014000b71b     libvcruntimed:memcpy_sse2_ermsb_aligned_amd.obj
 0001:0000a722       Mov0XmmBlocks              000000014000b722     libvcruntimed:memcpy_sse2_ermsb_aligned_amd.obj
 0001:0000a770       $$000000                   000000014000b770     libvcruntimed:handlers.obj
 0001:0000aaf0       $$000000                   000000014000baf0     libvcruntimed:memcpy_repmovs.obj
 0001:0000ab10       $$000000                   000000014000bb10     libvcruntimed:memcpy_CopyDown.obj
 0001:0000ab2b       XmmMovAlign                000000014000bb2b     libvcruntimed:memcpy_CopyDown.obj
 0001:0000ab43       XmmMovLargeTest            000000014000bb43     libvcruntimed:memcpy_CopyDown.obj
 0001:0000ab60       XmmMovLargeOuter           000000014000bb60     libvcruntimed:memcpy_CopyDown.obj
 0001:0000ab67       XmmMovLargeInner           000000014000bb67     libvcruntimed:memcpy_CopyDown.obj
 0001:0000abbd       XmmMovSmallTest            000000014000bbbd     libvcruntimed:memcpy_CopyDown.obj
 0001:0000abd0       XmmMovSmallLoop            000000014000bbd0     libvcruntimed:memcpy_CopyDown.obj
 0001:0000abe0       XmmMovTrailing             000000014000bbe0     libvcruntimed:memcpy_CopyDown.obj
 0001:0000abe9       XmmMovReturn               000000014000bbe9     libvcruntimed:memcpy_CopyDown.obj
 0001:0000ac00       $$000000                   000000014000bc00     libvcruntimed:memcpy_repmovs_amd.obj
 0001:0000ac20       $$000000                   000000014000bc20     libvcruntimed:memcpy_CopyDown_amd.obj
 0001:0000ac3b       XmmMovAlign                000000014000bc3b     libvcruntimed:memcpy_CopyDown_amd.obj
 0001:0000ac53       XmmMovLargeTest            000000014000bc53     libvcruntimed:memcpy_CopyDown_amd.obj
 0001:0000ac70       XmmMovLargeOuter           000000014000bc70     libvcruntimed:memcpy_CopyDown_amd.obj
 0001:0000ac77       XmmMovLargeInner           000000014000bc77     libvcruntimed:memcpy_CopyDown_amd.obj
 0001:0000accd       XmmMovSmallTest            000000014000bccd     libvcruntimed:memcpy_CopyDown_amd.obj
 0001:0000ace0       XmmMovSmallLoop            000000014000bce0     libvcruntimed:memcpy_CopyDown_amd.obj
 0001:0000acf0       XmmMovTrailing             000000014000bcf0     libvcruntimed:memcpy_CopyDown_amd.obj
 0001:0000acf9       XmmMovReturn               000000014000bcf9     libvcruntimed:memcpy_CopyDown_amd.obj
 0001:0000ad00       ?xcptlookup@@YAPEAU__crt_signal_action_t@@KQEAU1@@Z 000000014000bd00 f   libucrtd:exception_filter.obj
 0001:0000b01c       $LN33                      000000014000c01c     libucrtd:exception_filter.obj
 0001:0000b040       ?issue_debug_notification@@YA_NQEB_W@Z 000000014000c040 f   libucrtd:report_runtime_error.obj
 0001:0000b0a0       ?should_write_error_to_console@@YA_NXZ 000000014000c0a0 f   libucrtd:report_runtime_error.obj
 0001:0000b0e0       ?write_string_to_console@@YAXQEB_W@Z 000000014000c0e0 f   libucrtd:report_runtime_error.obj
 0001:0000b720       ??$common_configure_argv@D@@YAHW4_crt_argv_mode@@@Z 000000014000c720 f   libucrtd:argv_parsing.obj
 0001:0000baf0       ??$parse_command_line@D@@YAXPEADPEAPEAD0PEA_K2@Z 000000014000caf0 f   libucrtd:argv_parsing.obj
 0001:0000bfe0       ??R<lambda_df1553121bfa390f1154bd84936f2730>@@QEBA@XZ 000000014000cfe0 f   libucrtd:argv_parsing.obj
 0001:0000c040       ?pre_initialize@@YAXD@Z    000000014000d040 f   libucrtd:environment_initialization.obj
 0001:0000c040       ?do_locale_initialization@@YAXD@Z 000000014000d040 f   libucrtd:argv_parsing.obj
 0001:0000c040       ?do_locale_initialization@@YAXE@Z 000000014000d040 f   libucrtd:argv_winmain.obj
 0001:0000c060       ?expand_argv_wildcards@@YAHQEAPEADQEAPEAPEAD@Z 000000014000d060 f   libucrtd:argv_parsing.obj
 0001:0000c0a0       ?get_argv@@YAAEAPEAPEADD@Z 000000014000d0a0 f   libucrtd:argv_parsing.obj
 0001:0000c0b0       ?get_command_line@@YAPEADD@Z 000000014000d0b0 f   libucrtd:argv_parsing.obj
 0001:0000c0b0       ?get_command_line@@YAPEAEE@Z 000000014000d0b0 f   libucrtd:argv_winmain.obj
 0001:0000c0c0       ?should_copy_another_character@@YA_ND@Z 000000014000d0c0 f   libucrtd:argv_parsing.obj
 0001:0000c260       ??$common_initialize_environment_nolock@D@@YAHXZ 000000014000d260 f   libucrtd:environment_initialization.obj
 0001:0000c380       ??$count_variables_in_environment_block@D@@YA?B_KQEAD@Z 000000014000d380 f   libucrtd:environment_initialization.obj
 0001:0000c400       ??$create_environment@D@@YAQEAPEADQEAD@Z 000000014000d400 f   libucrtd:environment_initialization.obj
 0001:0000c610       ??$free_environment@D@@YAXQEAPEAD@Z 000000014000d610 f   libucrtd:environment_initialization.obj
 0001:0000c610       ??$free_environment@_W@@YAXQEAPEA_W@Z 000000014000d610 f   libucrtd:environment_initialization.obj
 0001:0000c7e0       ??$uninitialize_environment_internal@D@@YAXAEAPEAPEAD@Z 000000014000d7e0 f   libucrtd:environment_initialization.obj
 0001:0000c820       ??$uninitialize_environment_internal@_W@@YAXAEAPEAPEA_W@Z 000000014000d820 f   libucrtd:environment_initialization.obj
 0001:0000c860       ?get_dual_state_environment_nolock@@YAAEAV?$dual_state_global@PEAPEAD@__crt_state_management@@D@Z 000000014000d860 f   libucrtd:environment_initialization.obj
 0001:0000c870       ?get_environment_nolock@@YAAEAPEAPEADD@Z 000000014000d870 f   libucrtd:environment_initialization.obj
 0001:0000c890       ?get_initial_environment@@YAAEAPEAPEADD@Z 000000014000d890 f   libucrtd:environment_initialization.obj
 0001:0000c8a0       ?get_initial_environment@@YAAEAPEAPEA_W_W@Z 000000014000d8a0 f   libucrtd:environment_initialization.obj
 0001:0000c910       ??$common_wincmdln@E@@YAPEAEXZ 000000014000d910 f   libucrtd:argv_winmain.obj
 0001:0000ca10       ?should_copy_another_character@@YA_NE@Z 000000014000da10 f   libucrtd:argv_winmain.obj
 0001:0000cb70       ??$?RV<lambda_d80eeec6fff315bfe5c115232f3240e3>@@AEAV<lambda_6e4b09c48022b2350581041d5f6b0c4c>@@V<lambda_2358e3775559c9db80273638284d5e45>@@@?$__crt_seh_guarded_call@X@@QEAAX$$QEAV<lambda_d80eeec6fff315bfe5c115232f3240e3>@@AEAV<lambda_6e4b09c48022b2350581041d5f6b0c4c>@@$$QEAV<lambda_2358e3775559c9db80273638284d5e45>@@@Z 000000014000db70 f   libucrtd:exit.obj
 0001:0000cbb0       ??$__acrt_lock_and_call@V<lambda_6e4b09c48022b2350581041d5f6b0c4c>@@@@YAXW4__acrt_lock_id@@$$QEAV<lambda_6e4b09c48022b2350581041d5f6b0c4c>@@@Z 000000014000dbb0 f   libucrtd:exit.obj
 0001:0000cc60       ??0<lambda_04ddeca75b7c13fd67716e8dfcef87ee>@@QEAA@AEBW4__acrt_lock_id@@@Z 000000014000dc60 f   libucrtd:per_thread_data.obj
 0001:0000cc60       ??0<lambda_0ae27a3a962d80f24befdcbee591983d>@@QEAA@AEBW4__acrt_lock_id@@@Z 000000014000dc60 f   libucrtd:per_thread_data.obj
 0001:0000cc60       ??0<lambda_2d41944a1d46af3157314b8a01080d33>@@QEAA@AEBW4__acrt_lock_id@@@Z 000000014000dc60 f   libucrtd:per_thread_data.obj
 0001:0000cc60       ??0<lambda_6992ecaafeb10aed2b74cb1fae11a551>@@QEAA@AEBW4__acrt_lock_id@@@Z 000000014000dc60 f   libucrtd:per_thread_data.obj
 0001:0000cc60       ??0<lambda_74a0ef281e44d15e1136f792f539efb3>@@QEAA@AEBW4__acrt_lock_id@@@Z 000000014000dc60 f   libucrtd:per_thread_data.obj
 0001:0000cc60       ??0<lambda_aa500f224e6afead328df44964fe2772>@@QEAA@AEBW4__acrt_lock_id@@@Z 000000014000dc60 f   libucrtd:per_thread_data.obj
 0001:0000cc60       ??0<lambda_aa87e3671a710a21b5dc78c0bdf72e11>@@QEAA@AEBW4__acrt_lock_id@@@Z 000000014000dc60 f   libucrtd:per_thread_data.obj
 0001:0000cc60       ??0<lambda_dc504788e8f1664fe9b84e20bfb512f2>@@QEAA@AEBW4__acrt_lock_id@@@Z 000000014000dc60 f   libucrtd:per_thread_data.obj
 0001:0000cc60       ??0<lambda_38119f0e861e05405d8a144b9b982f0a>@@QEAA@AEBW4__acrt_lock_id@@@Z 000000014000dc60 f   libucrtd:wsetlocale.obj
 0001:0000cc60       ??0<lambda_410d79af7f07d98d83a3f525b3859a53>@@QEAA@AEBW4__acrt_lock_id@@@Z 000000014000dc60 f   libucrtd:wsetlocale.obj
 0001:0000cc60       ??0<lambda_19eaff14c5fe7be5b1b106a862eb1091>@@QEAA@AEBH@Z 000000014000dc60 f   libucrtd:close.obj
 0001:0000cc60       ??0<lambda_3ce37f5b621ab310299ea5f68cbdf3bb>@@QEAA@AEBH@Z 000000014000dc60 f   libucrtd:close.obj
 0001:0000cc60       ??0<lambda_7d29013d608e9f25a034de83c9b9e983>@@QEAA@AEBH@Z 000000014000dc60 f   libucrtd:commit.obj
 0001:0000cc60       ??0<lambda_b869e5a4e1069fcb5c3da79c0d999133>@@QEAA@AEBH@Z 000000014000dc60 f   libucrtd:commit.obj
 0001:0000cc60       ??0<lambda_728235dc0fc2b1f82d1fa5b3e7102d8f>@@QEAA@AEBW4__acrt_lock_id@@@Z 000000014000dc60 f   libucrtd:mbctype.obj
 0001:0000cc60       ??0<lambda_efa02eb69bf647d2f7ff0dd6f1103f72>@@QEAA@AEBW4__acrt_lock_id@@@Z 000000014000dc60 f   libucrtd:mbctype.obj
 0001:0000cc60       ??0<lambda_450d765d439847d4c735a33c368b5fc0>@@QEAA@AEBW4__acrt_lock_id@@@Z 000000014000dc60 f   libucrtd:signal.obj
 0001:0000cc60       ??0<lambda_601a2a7da3b7a96e9554ac7215c4b07c>@@QEAA@AEBW4__acrt_lock_id@@@Z 000000014000dc60 f   libucrtd:signal.obj
 0001:0000cc60       ??0<lambda_2358e3775559c9db80273638284d5e45>@@QEAA@AEBW4__acrt_lock_id@@@Z 000000014000dc60 f   libucrtd:exit.obj
 0001:0000cc60       ??0<lambda_d80eeec6fff315bfe5c115232f3240e3>@@QEAA@AEBW4__acrt_lock_id@@@Z 000000014000dc60 f   libucrtd:exit.obj
 0001:0000cc60       ??0<lambda_6a47f4c8fd0152770a780fc1d70204eb>@@QEAA@AEBW4__acrt_lock_id@@@Z 000000014000dc60 f   libucrtd:onexit.obj
 0001:0000cc60       ??0<lambda_6aaa2265f5b6a89667e7d7630012e97a>@@QEAA@AEBW4__acrt_lock_id@@@Z 000000014000dc60 f   libucrtd:onexit.obj
 0001:0000cc60       ??0<lambda_80060f20ac3990516b753a27f211934c>@@QEAA@AEBW4__acrt_lock_id@@@Z 000000014000dc60 f   libucrtd:onexit.obj
 0001:0000cc60       ??0<lambda_fd91b99c0687e8936f1d70d7d9b78e69>@@QEAA@AEBW4__acrt_lock_id@@@Z 000000014000dc60 f   libucrtd:onexit.obj
 0001:0000cc60       ??0<lambda_886d6c58226a84441f68b9f2b8217b83>@@QEAA@AEBW4__acrt_lock_id@@@Z 000000014000dc60 f   libucrtd:fflush.obj
 0001:0000cc60       ??0<lambda_f7f22ab5edc0698d5f6905b0d3f44752>@@QEAA@AEBW4__acrt_lock_id@@@Z 000000014000dc60 f   libucrtd:fflush.obj
 0001:0000cc80       ??0<lambda_6e4b09c48022b2350581041d5f6b0c4c>@@QEAA@AEBW4_crt_exit_cleanup_mode@@AEBW4_crt_exit_return_mode@@AEA_N@Z 000000014000dc80 f   libucrtd:exit.obj
 0001:0000cc80       ??0<lambda_ab61a845afdef5b7c387490eaf3616ee>@@QEAA@AEAHAEB_N0@Z 000000014000dc80 f   libucrtd:fflush.obj
 0001:0000ccf0       ??R<lambda_04ddeca75b7c13fd67716e8dfcef87ee>@@QEBA@XZ 000000014000dcf0 f   libucrtd:per_thread_data.obj
 0001:0000ccf0       ??R<lambda_6992ecaafeb10aed2b74cb1fae11a551>@@QEBA@XZ 000000014000dcf0 f   libucrtd:per_thread_data.obj
 0001:0000ccf0       ??R<lambda_aa500f224e6afead328df44964fe2772>@@QEBA@XZ 000000014000dcf0 f   libucrtd:per_thread_data.obj
 0001:0000ccf0       ??R<lambda_dc504788e8f1664fe9b84e20bfb512f2>@@QEBA@XZ 000000014000dcf0 f   libucrtd:per_thread_data.obj
 0001:0000ccf0       ??R<lambda_38119f0e861e05405d8a144b9b982f0a>@@QEBA@XZ 000000014000dcf0 f   libucrtd:wsetlocale.obj
 0001:0000ccf0       ??R<lambda_728235dc0fc2b1f82d1fa5b3e7102d8f>@@QEBA@XZ 000000014000dcf0 f   libucrtd:mbctype.obj
 0001:0000ccf0       ??R<lambda_601a2a7da3b7a96e9554ac7215c4b07c>@@QEBA@XZ 000000014000dcf0 f   libucrtd:signal.obj
 0001:0000ccf0       ??R<lambda_2358e3775559c9db80273638284d5e45>@@QEBA@XZ 000000014000dcf0 f   libucrtd:exit.obj
 0001:0000ccf0       ??R<lambda_6aaa2265f5b6a89667e7d7630012e97a>@@QEBA@XZ 000000014000dcf0 f   libucrtd:onexit.obj
 0001:0000ccf0       ??R<lambda_fd91b99c0687e8936f1d70d7d9b78e69>@@QEBA@XZ 000000014000dcf0 f   libucrtd:onexit.obj
 0001:0000ccf0       ??R<lambda_f7f22ab5edc0698d5f6905b0d3f44752>@@QEBA@XZ 000000014000dcf0 f   libucrtd:fflush.obj
 0001:0000cd10       ??R<lambda_6e4b09c48022b2350581041d5f6b0c4c>@@QEBA@XZ 000000014000dd10 f   libucrtd:exit.obj
 0001:0000ce30       ??R<lambda_0ae27a3a962d80f24befdcbee591983d>@@QEBA@XZ 000000014000de30 f   libucrtd:per_thread_data.obj
 0001:0000ce30       ??R<lambda_2d41944a1d46af3157314b8a01080d33>@@QEBA@XZ 000000014000de30 f   libucrtd:per_thread_data.obj
 0001:0000ce30       ??R<lambda_74a0ef281e44d15e1136f792f539efb3>@@QEBA@XZ 000000014000de30 f   libucrtd:per_thread_data.obj
 0001:0000ce30       ??R<lambda_aa87e3671a710a21b5dc78c0bdf72e11>@@QEBA@XZ 000000014000de30 f   libucrtd:per_thread_data.obj
 0001:0000ce30       ??R<lambda_410d79af7f07d98d83a3f525b3859a53>@@QEBA@XZ 000000014000de30 f   libucrtd:wsetlocale.obj
 0001:0000ce30       ??R<lambda_efa02eb69bf647d2f7ff0dd6f1103f72>@@QEBA@XZ 000000014000de30 f   libucrtd:mbctype.obj
 0001:0000ce30       ??R<lambda_450d765d439847d4c735a33c368b5fc0>@@QEBA@XZ 000000014000de30 f   libucrtd:signal.obj
 0001:0000ce30       ??R<lambda_d80eeec6fff315bfe5c115232f3240e3>@@QEBA@XZ 000000014000de30 f   libucrtd:exit.obj
 0001:0000ce30       ??R<lambda_6a47f4c8fd0152770a780fc1d70204eb>@@QEBA@XZ 000000014000de30 f   libucrtd:onexit.obj
 0001:0000ce30       ??R<lambda_80060f20ac3990516b753a27f211934c>@@QEBA@XZ 000000014000de30 f   libucrtd:onexit.obj
 0001:0000ce30       ??R<lambda_886d6c58226a84441f68b9f2b8217b83>@@QEBA@XZ 000000014000de30 f   libucrtd:fflush.obj
 0001:0000cea0       ?atexit_exception_filter@@YAHK@Z 000000014000dea0 f   libucrtd:exit.obj
 0001:0000cf40       ?common_exit@@YAXHW4_crt_exit_cleanup_mode@@W4_crt_exit_return_mode@@@Z 000000014000df40 f   libucrtd:exit.obj
 0001:0000cfe0       ?exit_or_terminate_process@@YAXI@Z 000000014000dfe0 f   libucrtd:exit.obj
 0001:0000d020       ?is_managed_app@@YA_NXZ    000000014000e020 f   libucrtd:exit.obj
 0001:0000d0d0       ?should_call_terminate_process@@YA_NXZ 000000014000e0d0 f   libucrtd:exit.obj
 0001:0000d100       ?try_cor_exit_process@@YAXI@Z 000000014000e100 f   libucrtd:exit.obj
 0001:0000d3b0       ??$?RV<lambda_410d79af7f07d98d83a3f525b3859a53>@@AEAV<lambda_3e16ef9562a7dcce91392c22ab16ea36>@@V<lambda_38119f0e861e05405d8a144b9b982f0a>@@@?$__crt_seh_guarded_call@X@@QEAAX$$QEAV<lambda_410d79af7f07d98d83a3f525b3859a53>@@AEAV<lambda_3e16ef9562a7dcce91392c22ab16ea36>@@$$QEAV<lambda_38119f0e861e05405d8a144b9b982f0a>@@@Z 000000014000e3b0 f   libucrtd:wsetlocale.obj
 0001:0000d3f0       ??$__acrt_lock_and_call@V<lambda_3e16ef9562a7dcce91392c22ab16ea36>@@@@YAXW4__acrt_lock_id@@$$QEAV<lambda_3e16ef9562a7dcce91392c22ab16ea36>@@@Z 000000014000e3f0 f   libucrtd:wsetlocale.obj
 0001:0000d450       ??$uninitialize@V<lambda_363eea9039da1e8169e2d060c7fe5cbc>@@@?$dual_state_global@PEAU__crt_locale_data@@@__crt_state_management@@QEAAX$$QEAV<lambda_363eea9039da1e8169e2d060c7fe5cbc>@@@Z 000000014000e450 f   libucrtd:wsetlocale.obj
 0001:0000d4b0       ??R<lambda_363eea9039da1e8169e2d060c7fe5cbc>@@QEBA@AEAPEAU__crt_locale_data@@@Z 000000014000e4b0 f   libucrtd:wsetlocale.obj
 0001:0000d4f0       ??R<lambda_3e16ef9562a7dcce91392c22ab16ea36>@@QEBA@XZ 000000014000e4f0 f   libucrtd:wsetlocale.obj
 0001:0000d870       ??$?RV<lambda_6a47f4c8fd0152770a780fc1d70204eb>@@AEAV<lambda_d121dba8a4adeaf3a9819e48611155df>@@V<lambda_6aaa2265f5b6a89667e7d7630012e97a>@@@?$__crt_seh_guarded_call@H@@QEAAH$$QEAV<lambda_6a47f4c8fd0152770a780fc1d70204eb>@@AEAV<lambda_d121dba8a4adeaf3a9819e48611155df>@@$$QEAV<lambda_6aaa2265f5b6a89667e7d7630012e97a>@@@Z 000000014000e870 f   libucrtd:onexit.obj
 0001:0000d8c0       ??$?RV<lambda_80060f20ac3990516b753a27f211934c>@@AEAV<lambda_208ce30acdd7200aa596f2796f4d5154>@@V<lambda_fd91b99c0687e8936f1d70d7d9b78e69>@@@?$__crt_seh_guarded_call@H@@QEAAH$$QEAV<lambda_80060f20ac3990516b753a27f211934c>@@AEAV<lambda_208ce30acdd7200aa596f2796f4d5154>@@$$QEAV<lambda_fd91b99c0687e8936f1d70d7d9b78e69>@@@Z 000000014000e8c0 f   libucrtd:onexit.obj
 0001:0000d910       ??$__acrt_lock_and_call@V<lambda_208ce30acdd7200aa596f2796f4d5154>@@@@YAHW4__acrt_lock_id@@$$QEAV<lambda_208ce30acdd7200aa596f2796f4d5154>@@@Z 000000014000e910 f   libucrtd:onexit.obj
 0001:0000d970       ??$__acrt_lock_and_call@V<lambda_d121dba8a4adeaf3a9819e48611155df>@@@@YAHW4__acrt_lock_id@@$$QEAV<lambda_d121dba8a4adeaf3a9819e48611155df>@@@Z 000000014000e970 f   libucrtd:onexit.obj
 0001:0000d9d0       ??R<lambda_208ce30acdd7200aa596f2796f4d5154>@@QEBA@XZ 000000014000e9d0 f   libucrtd:onexit.obj
 0001:0000dd10       ??R<lambda_d121dba8a4adeaf3a9819e48611155df>@@QEBA@XZ 000000014000ed10 f   libucrtd:onexit.obj
 0001:0000e070       initialize_global_variables 000000014000f070 f   libucrtd:initialization.obj
 0001:0000e090       initialize_c               000000014000f090 f   libucrtd:initialization.obj
 0001:0000e0c0       uninitialize_c             000000014000f0c0 f   libucrtd:initialization.obj
 0001:0000e0c0       uninitialize_global_state_isolation 000000014000f0c0 f   libucrtd:initialization.obj
 0001:0000e0d0       uninitialize_environment   000000014000f0d0 f   libucrtd:initialization.obj
 0001:0000e100       initialize_pointers        000000014000f100 f   libucrtd:initialization.obj
 0001:0000e160       uninitialize_vcruntime     000000014000f160 f   libucrtd:initialization.obj
 0001:0000e180       uninitialize_allocated_memory 000000014000f180 f   libucrtd:initialization.obj
 0001:0000e1c0       uninitialize_allocated_io_buffers 000000014000f1c0 f   libucrtd:initialization.obj
 0001:0000e240       report_memory_leaks        000000014000f240 f   libucrtd:initialization.obj
 0001:0000e270       ??$uninitialize@V<lambda_af27fe6ede5d83bbdbd622796c194e9c>@@@?$dual_state_global@PEAU__crt_multibyte_data@@@__crt_state_management@@QEAAX$$QEAV<lambda_af27fe6ede5d83bbdbd622796c194e9c>@@@Z 000000014000f270 f   libucrtd:initialization.obj
 0001:0000e2d0       ??R<lambda_af27fe6ede5d83bbdbd622796c194e9c>@@QEBA@AEAPEAU__crt_multibyte_data@@@Z 000000014000f2d0 f   libucrtd:initialization.obj
 0001:0000e540       ?block_from_header@@YAPEAEQEAU_CrtMemBlockHeader@@@Z 000000014000f540 f   libucrtd:debug_heap.obj
 0001:0000e550       ?check_block@@YA_NQEAU_CrtMemBlockHeader@@@Z 000000014000f550 f   libucrtd:debug_heap.obj
 0001:0000eac0       ?check_bytes@@YA_NQEBEE_K@Z 000000014000fac0 f   libucrtd:debug_heap.obj
 0001:0000eb30       ?dump_all_object_since_nolock@@YAXQEBU_CrtMemState@@@Z 000000014000fb30 f   libucrtd:debug_heap.obj
 0001:0000efb0       ?free_dbg_nolock@@YAXQEAXH@Z 000000014000ffb0 f   libucrtd:debug_heap.obj
 0001:0000f730       ?header_from_block@@YAPEAU_CrtMemBlockHeader@@QEBX@Z 0000000140010730 f   libucrtd:debug_heap.obj
 0001:0000f740       ?heap_alloc_dbg@@YAPEAX_KHQEBDH@Z 0000000140010740 f   libucrtd:debug_heap.obj
 0001:0000f7e0       ?heap_alloc_dbg_internal@@YAPEAX_KHQEBDH@Z 00000001400107e0 f   libucrtd:debug_heap.obj
 0001:0000fc30       ?is_bad_read_pointer@@YA_NQEBX_K@Z 0000000140010c30 f   libucrtd:debug_heap.obj
 0001:0000fd40       ?is_block_an_aligned_allocation@@YA_NQEBX@Z 0000000140010d40 f   libucrtd:debug_heap.obj
 0001:0000fd80       ?is_block_type_valid@@YA_NH@Z 0000000140010d80 f   libucrtd:debug_heap.obj
 0001:0000fdd0       ?print_block_data@@YAXQEAU__crt_locale_pointers@@QEAU_CrtMemBlockHeader@@@Z 0000000140010dd0 f   libucrtd:debug_heap.obj
 0001:00010000       ?realloc_dbg_nolock@@YAPEAXQEAXQEA_KHQEBDH_N@Z 0000000140011000 f   libucrtd:debug_heap.obj
 0001:00010840       ?validate_heap_if_required_nolock@@YAXXZ 0000000140011840 f   libucrtd:debug_heap.obj
 0001:00011600       ??$common_tcscpy_s@D@@YAHQEAD_KQEBD@Z 0000000140012600 f   libucrtd:strcpy_s.obj
 0001:00011b10       $$000000                   0000000140012b10     libucrtd:strcmp.obj
 0001:00011b90       $$000000                   0000000140012b90     libucrtd:strlen.obj
 0001:00012730       ??$common_vsnprintf_s@D@@YAH_KQEAD00QEBDAEAV__crt_cached_ptd_host@@1@Z 0000000140013730 f   libucrtd:output.obj
 0001:00012e10       ??$common_vsnprintf_s@_W@@YAH_KQEA_W00QEB_WAEAV__crt_cached_ptd_host@@QEAD@Z 0000000140013e10 f   libucrtd:output.obj
 0001:00013500       ??$common_vsprintf@Vformat_validation_base@__crt_stdio_output@@D@@YAH_KQEAD0QEBDAEAV__crt_cached_ptd_host@@1@Z 0000000140014500 f   libucrtd:output.obj
 0001:000139c0       ??$common_vsprintf@Vformat_validation_base@__crt_stdio_output@@_W@@YAH_KQEA_W0QEB_WAEAV__crt_cached_ptd_host@@QEAD@Z 00000001400149c0 f   libucrtd:output.obj
 0001:00013e70       ??$common_vsprintf_s@D@@YAH_KQEAD0QEBDAEAV__crt_cached_ptd_host@@1@Z 0000000140014e70 f   libucrtd:output.obj
 0001:000192a4       $LN39                      000000014001a2a4     libucrtd:output.obj
 0001:00019668       $LN39                      000000014001a668     libucrtd:output.obj
 0001:0001a29c       $LN54                      000000014001b29c     libucrtd:output.obj
 0001:0001a2c4       $LN53                      000000014001b2c4     libucrtd:output.obj
 0001:0001a75c       $LN54                      000000014001b75c     libucrtd:output.obj
 0001:0001a784       $LN53                      000000014001b784     libucrtd:output.obj
 0001:0001ac18       $LN54                      000000014001bc18     libucrtd:output.obj
 0001:0001ac48       $LN53                      000000014001bc48     libucrtd:output.obj
 0001:0001b19c       $LN54                      000000014001c19c     libucrtd:output.obj
 0001:0001b1cc       $LN53                      000000014001c1cc     libucrtd:output.obj
 0001:0001b450       $LN19                      000000014001c450     libucrtd:output.obj
 0001:0001e380       ??$common_message_window@D@@YAHHQEAXQEBD111@Z 000000014001f380 f   libucrtd:dbgrpt.obj
 0001:0001ea60       ??$common_message_window@_W@@YAHHQEAXQEB_W111@Z 000000014001fa60 f   libucrtd:dbgrpt.obj
 0001:0001f270       ?get_output_message_format@@YAPEB_WD@Z 0000000140020270 f   libucrtd:dbgrpt.obj
 0001:0001f280       ?get_output_message_format@@YAPEB_W_W@Z 0000000140020280 f   libucrtd:dbgrpt.obj
 0001:0001f290       ?get_program_name_unknown_text@@YAPEBDD@Z 0000000140020290 f   libucrtd:dbgrpt.obj
 0001:0001f2a0       ?get_program_name_unknown_text@@YAPEB_W_W@Z 00000001400202a0 f   libucrtd:dbgrpt.obj
 0001:0001f540       $$000000                   0000000140020540     libucrtd:strncmp.obj
 0001:0001f6c0       ??$?RV<lambda_0ae27a3a962d80f24befdcbee591983d>@@AEAV<lambda_8d0ee55de4b1038c4002e0adecdf1839>@@V<lambda_dc504788e8f1664fe9b84e20bfb512f2>@@@?$__crt_seh_guarded_call@X@@QEAAX$$QEAV<lambda_0ae27a3a962d80f24befdcbee591983d>@@AEAV<lambda_8d0ee55de4b1038c4002e0adecdf1839>@@$$QEAV<lambda_dc504788e8f1664fe9b84e20bfb512f2>@@@Z 00000001400206c0 f   libucrtd:per_thread_data.obj
 0001:0001f700       ??$?RV<lambda_2d41944a1d46af3157314b8a01080d33>@@AEAV<lambda_8f455de75cd7d7f24b4096f044d8b9e6>@@V<lambda_aa500f224e6afead328df44964fe2772>@@@?$__crt_seh_guarded_call@X@@QEAAX$$QEAV<lambda_2d41944a1d46af3157314b8a01080d33>@@AEAV<lambda_8f455de75cd7d7f24b4096f044d8b9e6>@@$$QEAV<lambda_aa500f224e6afead328df44964fe2772>@@@Z 0000000140020700 f   libucrtd:per_thread_data.obj
 0001:0001f740       ??$?RV<lambda_74a0ef281e44d15e1136f792f539efb3>@@AEAV<lambda_e157831efee4ea0afb0a2ace5dd5fd0d>@@V<lambda_04ddeca75b7c13fd67716e8dfcef87ee>@@@?$__crt_seh_guarded_call@X@@QEAAX$$QEAV<lambda_74a0ef281e44d15e1136f792f539efb3>@@AEAV<lambda_e157831efee4ea0afb0a2ace5dd5fd0d>@@$$QEAV<lambda_04ddeca75b7c13fd67716e8dfcef87ee>@@@Z 0000000140020740 f   libucrtd:per_thread_data.obj
 0001:0001f780       ??$?RV<lambda_aa87e3671a710a21b5dc78c0bdf72e11>@@AEAV<lambda_92619d2358a28f41a33ba319515a20b9>@@V<lambda_6992ecaafeb10aed2b74cb1fae11a551>@@@?$__crt_seh_guarded_call@X@@QEAAX$$QEAV<lambda_aa87e3671a710a21b5dc78c0bdf72e11>@@AEAV<lambda_92619d2358a28f41a33ba319515a20b9>@@$$QEAV<lambda_6992ecaafeb10aed2b74cb1fae11a551>@@@Z 0000000140020780 f   libucrtd:per_thread_data.obj
 0001:0001f7c0       ??$__acrt_lock_and_call@V<lambda_8d0ee55de4b1038c4002e0adecdf1839>@@@@YAXW4__acrt_lock_id@@$$QEAV<lambda_8d0ee55de4b1038c4002e0adecdf1839>@@@Z 00000001400207c0 f   libucrtd:per_thread_data.obj
 0001:0001f820       ??$__acrt_lock_and_call@V<lambda_8f455de75cd7d7f24b4096f044d8b9e6>@@@@YAXW4__acrt_lock_id@@$$QEAV<lambda_8f455de75cd7d7f24b4096f044d8b9e6>@@@Z 0000000140020820 f   libucrtd:per_thread_data.obj
 0001:0001f880       ??$__acrt_lock_and_call@V<lambda_92619d2358a28f41a33ba319515a20b9>@@@@YAXW4__acrt_lock_id@@$$QEAV<lambda_92619d2358a28f41a33ba319515a20b9>@@@Z 0000000140020880 f   libucrtd:per_thread_data.obj
 0001:0001f8e0       ??$__acrt_lock_and_call@V<lambda_e157831efee4ea0afb0a2ace5dd5fd0d>@@@@YAXW4__acrt_lock_id@@$$QEAV<lambda_e157831efee4ea0afb0a2ace5dd5fd0d>@@@Z 00000001400208e0 f   libucrtd:per_thread_data.obj
 0001:0001f940       ??R<lambda_8d0ee55de4b1038c4002e0adecdf1839>@@QEBA@XZ 0000000140020940 f   libucrtd:per_thread_data.obj
 0001:0001f960       ??R<lambda_8f455de75cd7d7f24b4096f044d8b9e6>@@QEBA@XZ 0000000140020960 f   libucrtd:per_thread_data.obj
 0001:0001f980       ??R<lambda_92619d2358a28f41a33ba319515a20b9>@@QEBA@XZ 0000000140020980 f   libucrtd:per_thread_data.obj
 0001:0001f9b0       ??R<lambda_e157831efee4ea0afb0a2ace5dd5fd0d>@@QEBA@XZ 00000001400209b0 f   libucrtd:per_thread_data.obj
 0001:0001fa20       ?construct_ptd@@YAXQEAU__acrt_ptd@@QEAPEAU__crt_locale_data@@@Z 0000000140020a20 f   libucrtd:per_thread_data.obj
 0001:0001fb00       ?construct_ptd_array@@YAXQEAU__acrt_ptd@@@Z 0000000140020b00 f   libucrtd:per_thread_data.obj
 0001:0001fb70       ?destroy_fls@@YAXPEAX@Z    0000000140020b70 f   libucrtd:per_thread_data.obj
 0001:0001fbb0       ?destroy_ptd@@YAXQEAU__acrt_ptd@@@Z 0000000140020bb0 f   libucrtd:per_thread_data.obj
 0001:0001fce0       ?destroy_ptd_array@@YAXQEAU__acrt_ptd@@@Z 0000000140020ce0 f   libucrtd:per_thread_data.obj
 0001:0001fd30       ?internal_get_ptd_head@@YAPEAU__acrt_ptd@@XZ 0000000140020d30 f   libucrtd:per_thread_data.obj
 0001:0001fe80       ?internal_getptd_noexit@@YAPEAU__acrt_ptd@@AEBV__crt_scoped_get_last_error_reset@@_K@Z 0000000140020e80 f   libucrtd:per_thread_data.obj
 0001:0001fec0       ?internal_getptd_noexit@@YAPEAU__acrt_ptd@@XZ 0000000140020ec0 f   libucrtd:per_thread_data.obj
 0001:0001ff00       ?replace_current_thread_locale_nolock@@YAXQEAU__acrt_ptd@@QEAU__crt_locale_data@@@Z 0000000140020f00 f   libucrtd:per_thread_data.obj
 0001:0001ffc0       ?try_get_ptd_head@@YAPEAU__acrt_ptd@@XZ 0000000140020fc0 f   libucrtd:per_thread_data.obj
 0001:00020210       ??$common_tcscat_s@_W@@YAHQEA_W_KQEB_W@Z 0000000140021210 f   libucrtd:wcscat_s.obj
 0001:000208d0       ??$common_tcscpy_s@_W@@YAHQEA_W_KQEB_W@Z 00000001400218d0 f   libucrtd:wcscpy_s.obj
 0001:00020e00       ??$common_tcsncpy_s@_W@@YAHQEA_W_KQEB_W1@Z 0000000140021e00 f   libucrtd:wcsncpy_s.obj
 0001:000214f0       ??$common_strnlen@$00G@@YA_KQEBG_K@Z 00000001400224f0 f   libucrtd:strnlen.obj
 0001:00021550       ??$common_strnlen@$0A@E@@YA_KQEBE_K@Z 0000000140022550 f   libucrtd:strnlen.obj
 0001:000215b0       ??$common_strnlen@$0A@G@@YA_KQEBG_K@Z 00000001400225b0 f   libucrtd:strnlen.obj
 0001:00021610       ??$common_strnlen_c@$00G@@YA_KQEBG_K@Z 0000000140022610 f   libucrtd:strnlen.obj
 0001:00021690       ??$common_strnlen_c@$0A@E@@YA_KQEBE_K@Z 0000000140022690 f   libucrtd:strnlen.obj
 0001:00021710       ??$common_strnlen_c@$0A@G@@YA_KQEBG_K@Z 0000000140022710 f   libucrtd:strnlen.obj
 0001:00021790       ??$common_strnlen_simd@$00$00G@@YA_KQEBG_K@Z 0000000140022790 f   libucrtd:strnlen.obj
 0001:00021a20       ??$common_strnlen_simd@$00$0A@G@@YA_KQEBG_K@Z 0000000140022a20 f   libucrtd:strnlen.obj
 0001:00021d00       ??$common_strnlen_simd@$0A@$00E@@YA_KQEBE_K@Z 0000000140022d00 f   libucrtd:strnlen.obj
 0001:00021f70       ??$common_strnlen_simd@$0A@$00G@@YA_KQEBG_K@Z 0000000140022f70 f   libucrtd:strnlen.obj
 0001:00022200       ??$common_strnlen_simd@$0A@$0A@E@@YA_KQEBE_K@Z 0000000140023200 f   libucrtd:strnlen.obj
 0001:000224c0       ??$common_strnlen_simd@$0A@$0A@G@@YA_KQEBG_K@Z 00000001400234c0 f   libucrtd:strnlen.obj
 0001:000227a0       ??$last_reached@$00@@YA_NQEBX0@Z 00000001400237a0 f   libucrtd:strnlen.obj
 0001:000227b0       ??$last_reached@$0A@@@YA_NQEBX0@Z 00000001400237b0 f   libucrtd:strnlen.obj
 0001:000229f0       ??$common_show_message_box@_W@@YAHQEB_W0I@Z 00000001400239f0 f   libucrtd:crtmbox.obj
 0001:00022d60       ?<lambda_invoker_cdecl>@<lambda_a1ce4c8ae42411fd470c77163914f50e>@@CAHPEBX0@Z 0000000140023d60 f   libucrtd:argv_wildcards.obj
 0001:00023190       ??$common_expand_argv_wildcards@D@@YAHQEAPEADQEAPEAPEAD@Z 0000000140024190 f   libucrtd:argv_wildcards.obj
 0001:000235c0       ??$copy_and_add_argument_to_buffer@D@@YAHQEBD0_KAEAV?$argument_list@D@?A0x5f5c8891@@@Z 00000001400245c0 f   libucrtd:argv_wildcards.obj
 0001:00023770       ??$expand_argument_wildcards@D@@YAHQEAD0AEAV?$argument_list@D@?A0x5f5c8891@@@Z 0000000140024770 f   libucrtd:argv_wildcards.obj
 0001:00023c60       ??0?$argument_list@D@?A0x5f5c8891@@QEAA@XZ 0000000140024c60 f   libucrtd:argv_wildcards.obj
 0001:00023cf0       ??1?$argument_list@D@?A0x5f5c8891@@QEAA@XZ 0000000140024cf0 f   libucrtd:argv_wildcards.obj
 0001:00023d60       ??B<lambda_a1ce4c8ae42411fd470c77163914f50e>@@QEBAP6AHPEBX0@ZXZ 0000000140024d60 f   libucrtd:argv_wildcards.obj
 0001:00023dc0       ??R<lambda_a1ce4c8ae42411fd470c77163914f50e>@@QEBAHPEBX0@Z 0000000140024dc0 f   libucrtd:argv_wildcards.obj
 0001:00023e00       ??R<lambda_cfae5a0e6efa98e0d1aa03c4cec8f74e>@@QEBA@D@Z 0000000140024e00 f   libucrtd:argv_wildcards.obj
 0001:00024110       ?append@?$argument_list@D@?A0x5f5c8891@@QEAAHQEAD@Z 0000000140025110 f   libucrtd:argv_wildcards.obj
 0001:00024250       ?end@?$argument_list@D@?A0x5f5c8891@@QEBAPEAPEADXZ 0000000140025250 f   libucrtd:argv_wildcards.obj
 0001:00024260       ?expand_if_necessary@?$argument_list@D@?A0x5f5c8891@@AEAAHXZ 0000000140025260 f   libucrtd:argv_wildcards.obj
 0001:00024440       ?get_file_name@@YAPEADQEAV?$__crt_win32_buffer@DU__crt_win32_buffer_internal_dynamic_resizing@@@@QEA_W@Z 0000000140025440 f   libucrtd:argv_wildcards.obj
 0001:00024490       ?get_wide@@YAPEA_WQEAV?$__crt_win32_buffer@_WU__crt_win32_buffer_internal_dynamic_resizing@@@@QEAD@Z 0000000140025490 f   libucrtd:argv_wildcards.obj
 0001:000244e0       ?previous_character@@YAPEADQEAD0@Z 00000001400254e0 f   libucrtd:argv_wildcards.obj
 0001:00024570       ?size@?$argument_list@D@?A0x5f5c8891@@QEBA_KXZ 0000000140025570 f   libucrtd:argv_wildcards.obj
 0001:00024ad0       ??$?RV<lambda_efa02eb69bf647d2f7ff0dd6f1103f72>@@AEAV<lambda_bd5a608237428601b7e45fbdc72b1ae8>@@V<lambda_728235dc0fc2b1f82d1fa5b3e7102d8f>@@@?$__crt_seh_guarded_call@X@@QEAAX$$QEAV<lambda_efa02eb69bf647d2f7ff0dd6f1103f72>@@AEAV<lambda_bd5a608237428601b7e45fbdc72b1ae8>@@$$QEAV<lambda_728235dc0fc2b1f82d1fa5b3e7102d8f>@@@Z 0000000140025ad0 f   libucrtd:mbctype.obj
 0001:00024b10       ??$__acrt_lock_and_call@V<lambda_bd5a608237428601b7e45fbdc72b1ae8>@@@@YAXW4__acrt_lock_id@@$$QEAV<lambda_bd5a608237428601b7e45fbdc72b1ae8>@@@Z 0000000140025b10 f   libucrtd:mbctype.obj
 0001:00024c50       ??R<lambda_bd5a608237428601b7e45fbdc72b1ae8>@@QEBA@XZ 0000000140025c50 f   libucrtd:mbctype.obj
 0001:00024d80       ?CPtoLocaleName@@YAPEB_WH@Z 0000000140025d80 f   libucrtd:mbctype.obj
 0001:00024e20       ?getSystemCP@@YAHH@Z       0000000140025e20 f   libucrtd:mbctype.obj
 0001:00024f00       ?setSBCS@@YAXPEAU__crt_multibyte_data@@@Z 0000000140025f00 f   libucrtd:mbctype.obj
 0001:00025000       ?setSBUpLow@@YAXPEAU__crt_multibyte_data@@@Z 0000000140026000 f   libucrtd:mbctype.obj
 0001:000253f0       ?setmbcp_internal@@YAHH_NQEAU__acrt_ptd@@QEAPEAU__crt_multibyte_data@@@Z 00000001400263f0 f   libucrtd:mbctype.obj
 0001:00025670       ?update_thread_multibyte_data_internal@@YAPEAU__crt_multibyte_data@@QEAU__acrt_ptd@@QEAPEAU1@@Z 0000000140026670 f   libucrtd:mbctype.obj
 0001:00025dc0       memcpy_s                   0000000140026dc0 f   libucrtd:cfout.obj
 0001:00025dc0       memcpy_s                   0000000140026dc0 f   libucrtd:mbctype.obj
 0001:00025f00       ?x_ismbbtype_l@@YAHPEAU__crt_locale_pointers@@IHH@Z 0000000140026f00 f   libucrtd:ismbbyte.obj
 0001:00026020       ?filter_mbtowcs_flags@@YAKIK@Z 0000000140027020 f   libucrtd:multibytetowidechar.obj
 0001:0002610c       $LN32                      000000014002710c     libucrtd:multibytetowidechar.obj
 0001:00026190       ?filter_wcstomb_flags@@YAKIK@Z 0000000140027190 f   libucrtd:widechartomultibyte.obj
 0001:0002627c       $LN32                      000000014002727c     libucrtd:widechartomultibyte.obj
 0001:000263d0       ??1?$__crt_unique_handle_t@Uenvironment_strings_traits@?A0x1bf47908@@@@QEAA@XZ 00000001400273d0 f   libucrtd:get_environment_from_os.obj
 0001:000263f0       ?close@?$__crt_unique_handle_t@Uenvironment_strings_traits@?A0x1bf47908@@@@QEAAXXZ 00000001400273f0 f   libucrtd:get_environment_from_os.obj
 0001:00026430       ?close@environment_strings_traits@?A0x1bf47908@@SA_NPEA_W@Z 0000000140027430 f   libucrtd:get_environment_from_os.obj
 0001:00026450       ?find_end_of_double_null_terminated_sequence@@YAPEB_WQEB_W@Z 0000000140027450 f   libucrtd:get_environment_from_os.obj
 0001:000264a0       ?is_valid@?$__crt_unique_handle_t@Uenvironment_strings_traits@?A0x1bf47908@@@@QEBA_NXZ 00000001400274a0 f   libucrtd:get_environment_from_os.obj
 0001:000268c0       ??$get_cached_win_policy@Udeveloper_information_policy_properties@?1??__acrt_get_developer_information_policy@@YA?AW4developer_information_policy@@XZ@@@YA?AW4developer_information_policy@@W4AppPolicyShowDeveloperDiagnostic@@@Z 00000001400278c0 f   libucrtd:win_policies.obj
 0001:00026980       ??$get_cached_win_policy@Uwindowing_model_policy_properties@?1??__acrt_get_windowing_model_policy@@YA?AW4windowing_model_policy@@XZ@@@YA?AW4windowing_model_policy@@W4AppPolicyWindowingModel@@@Z 0000000140027980 f   libucrtd:win_policies.obj
 0001:00026a40       ??$get_win_policy@Uprocess_end_policy_properties@?1??__acrt_get_process_end_policy@@YA?AW4process_end_policy@@XZ@@@YA?AW4process_end_policy@@W4AppPolicyProcessTerminationMethod@@@Z 0000000140027a40 f   libucrtd:win_policies.obj
 0001:00026a80       ?appmodel_get_policy@developer_information_policy_properties@?1??__acrt_get_developer_information_policy@@YA?AW4developer_information_policy@@XZ@SAJPEAW4AppPolicyShowDeveloperDiagnostic@@@Z 0000000140027a80 f   libucrtd:win_policies.obj
 0001:00026aa0       ?appmodel_get_policy@process_end_policy_properties@?1??__acrt_get_process_end_policy@@YA?AW4process_end_policy@@XZ@SAJPEAW4AppPolicyProcessTerminationMethod@@@Z 0000000140027aa0 f   libucrtd:win_policies.obj
 0001:00026ac0       ?appmodel_get_policy@windowing_model_policy_properties@?1??__acrt_get_windowing_model_policy@@YA?AW4windowing_model_policy@@XZ@SAJPEAW4AppPolicyWindowingModel@@@Z 0000000140027ac0 f   libucrtd:win_policies.obj
 0001:00026ae0       ?appmodel_policy_to_policy_type@developer_information_policy_properties@?1??__acrt_get_developer_information_policy@@YA?AW4developer_information_policy@@XZ@SA?AW43@J@Z 0000000140027ae0 f   libucrtd:win_policies.obj
 0001:00026b00       ?appmodel_policy_to_policy_type@process_end_policy_properties@?1??__acrt_get_process_end_policy@@YA?AW4process_end_policy@@XZ@SA?AW43@W4AppPolicyProcessTerminationMethod@@@Z 0000000140027b00 f   libucrtd:win_policies.obj
 0001:00026b20       ?appmodel_policy_to_policy_type@windowing_model_policy_properties@?1??__acrt_get_windowing_model_policy@@YA?AW4windowing_model_policy@@XZ@SA?AW43@J@Z 0000000140027b20 f   libucrtd:win_policies.obj
 0001:00027370       ?get_std_handle_id@@YAKH@Z 0000000140028370 f   libucrtd:ioinit.obj
 0001:000273c0       ?initialize_inherited_file_handles_nolock@@YAXXZ 00000001400283c0 f   libucrtd:ioinit.obj
 0001:00027570       ?initialize_stdio_handles_nolock@@YAXXZ 0000000140028570 f   libucrtd:ioinit.obj
 0001:00027ad0       ??$free_crt_array@D$01@@YAXAEAY01PEAD@Z 0000000140028ad0 f   libucrtd:inittime.obj
 0001:00027ad0       ??$free_crt_array@_W$01@@YAXAEAY01PEA_W@Z 0000000140028ad0 f   libucrtd:inittime.obj
 0001:00027af0       ??$free_crt_array@D$06@@YAXAEAY06PEAD@Z 0000000140028af0 f   libucrtd:inittime.obj
 0001:00027af0       ??$free_crt_array@_W$06@@YAXAEAY06PEA_W@Z 0000000140028af0 f   libucrtd:inittime.obj
 0001:00027b10       ??$free_crt_array@D$0M@@@YAXAEAY0M@PEAD@Z 0000000140028b10 f   libucrtd:inittime.obj
 0001:00027b10       ??$free_crt_array@_W$0M@@@YAXAEAY0M@PEA_W@Z 0000000140028b10 f   libucrtd:inittime.obj
 0001:00027b30       ?free_crt_array_internal@@YAXQEAPEBX_K@Z 0000000140028b30 f   libucrtd:inittime.obj
 0001:00028c10       ?try_get_AppPolicyGetProcessTerminationMethod@@YAP6AJPEAXPEAW4AppPolicyProcessTerminationMethod@@@ZXZ 0000000140029c10 f   libucrtd:winapi_thunks.obj
 0001:00028c40       ?try_get_AppPolicyGetShowDeveloperDiagnostic@@YAP6AJPEAXPEAW4AppPolicyShowDeveloperDiagnostic@@@ZXZ 0000000140029c40 f   libucrtd:winapi_thunks.obj
 0001:00028c70       ?try_get_AppPolicyGetWindowingModel@@YAP6AJPEAXPEAW4AppPolicyWindowingModel@@@ZXZ 0000000140029c70 f   libucrtd:winapi_thunks.obj
 0001:00028ca0       ?try_get_AreFileApisANSI@@YAP6AHXZXZ 0000000140029ca0 f   libucrtd:winapi_thunks.obj
 0001:00028cd0       ?try_get_GetActiveWindow@@YAP6APEAUHWND__@@XZXZ 0000000140029cd0 f   libucrtd:winapi_thunks.obj
 0001:00028d00       ?try_get_GetLastActivePopup@@YAP6APEAUHWND__@@PEAU1@@ZXZ 0000000140029d00 f   libucrtd:winapi_thunks.obj
 0001:00028d30       ?try_get_GetProcessWindowStation@@YAP6APEAUHWINSTA__@@XZXZ 0000000140029d30 f   libucrtd:winapi_thunks.obj
 0001:00028d60       ?try_get_GetUserObjectInformationW@@YAP6AHPEAXH0KPEAK@ZXZ 0000000140029d60 f   libucrtd:winapi_thunks.obj
 0001:00028d90       ?try_get_InitializeCriticalSectionEx@@YAP6AHPEAU_RTL_CRITICAL_SECTION@@KK@ZXZ 0000000140029d90 f   libucrtd:winapi_thunks.obj
 0001:00028dc0       ?try_get_LCMapStringEx@@YAP6AHPEB_WK0HPEA_WHPEAU_nlsversioninfo@@PEAX_J@ZXZ 0000000140029dc0 f   libucrtd:winapi_thunks.obj
 0001:00028df0       ?try_get_LocaleNameToLCID@@YAP6AKPEB_WK@ZXZ 0000000140029df0 f   libucrtd:winapi_thunks.obj
 0001:00028e20       ?try_get_MessageBoxA@@YAP6AHPEAUHWND__@@PEBD1I@ZXZ 0000000140029e20 f   libucrtd:winapi_thunks.obj
 0001:00028e50       ?try_get_MessageBoxW@@YAP6AHPEAUHWND__@@PEB_W1I@ZXZ 0000000140029e50 f   libucrtd:winapi_thunks.obj
 0001:00028e80       ?try_get_first_available_module@@YAPEAUHINSTANCE__@@QEBW4module_id@?A0x391cf84c@@0@Z 0000000140029e80 f   libucrtd:winapi_thunks.obj
 0001:00028ee0       ?try_get_function@@YAPEAXW4function_id@?A0x391cf84c@@QEBDQEBW4module_id@2@2@Z 0000000140029ee0 f   libucrtd:winapi_thunks.obj
 0001:00029080       ?try_get_module@@YAPEAUHINSTANCE__@@W4module_id@?A0x391cf84c@@@Z 000000014002a080 f   libucrtd:winapi_thunks.obj
 0001:000291e0       ?try_get_proc_address_from_first_available_module@@YAPEAXQEBDQEBW4module_id@?A0x391cf84c@@1@Z 000000014002a1e0 f   libucrtd:winapi_thunks.obj
 0001:00029230       ?try_load_library_from_system_directory@@YAPEAUHINSTANCE__@@QEB_W@Z 000000014002a230 f   libucrtd:winapi_thunks.obj
 0001:00029d00       ??$?RV<lambda_450d765d439847d4c735a33c368b5fc0>@@AEAV<lambda_44731a7d0e6d81c3e6aa82d741081786>@@V<lambda_601a2a7da3b7a96e9554ac7215c4b07c>@@@?$__crt_seh_guarded_call@P6AXH@Z@@QEAAP6AXH@Z$$QEAV<lambda_450d765d439847d4c735a33c368b5fc0>@@AEAV<lambda_44731a7d0e6d81c3e6aa82d741081786>@@$$QEAV<lambda_601a2a7da3b7a96e9554ac7215c4b07c>@@@Z 000000014002ad00 f   libucrtd:signal.obj
 0001:00029d50       ??$__acrt_lock_and_call@V<lambda_44731a7d0e6d81c3e6aa82d741081786>@@@@YAP6AXH@ZW4__acrt_lock_id@@$$QEAV<lambda_44731a7d0e6d81c3e6aa82d741081786>@@@Z 000000014002ad50 f   libucrtd:signal.obj
 0001:00029db0       ??R<lambda_44731a7d0e6d81c3e6aa82d741081786>@@QEBA@XZ 000000014002adb0 f   libucrtd:signal.obj
 0001:00029de0       ?get_global_action_nolock@@YAPEAP6AXH@ZH@Z 000000014002ade0 f   libucrtd:signal.obj
 0001:00029e70       ?siglookup@@YAPEAU__crt_signal_action_t@@HQEAU1@@Z 000000014002ae70 f   libucrtd:signal.obj
 0001:0002a43c       $LN63                      000000014002b43c     libucrtd:signal.obj
 0001:0002a5a0       ?select_heap@@YAPEAXQEAX@Z 000000014002b5a0 f   libucrtd:free_base.obj
 0001:0002a6c0       ?is_contraction_possible@@YA_N_K@Z 000000014002b6c0 f   libucrtd:expand.obj
 0001:0002abc0       ?fe_to_nearest@@YA_NQEBN_KF@Z 000000014002bbc0 f   libucrtd:cvt.obj
 0001:0002ad10       ?fp_format_a@@YAHQEBNPEAD_KQEAD2H_NIW4__acrt_rounding_mode@@AEAV__crt_cached_ptd_host@@@Z 000000014002bd10 f   libucrtd:cvt.obj
 0001:0002b560       ?fp_format_e@@YAHQEBNQEAD_K12H_NIW4__acrt_rounding_mode@@AEAV__crt_cached_ptd_host@@@Z 000000014002c560 f   libucrtd:cvt.obj
 0001:0002b740       ?fp_format_e_internal@@YAHQEAD_KH_NIQEAU_strflt@@2AEAV__crt_cached_ptd_host@@@Z 000000014002c740 f   libucrtd:cvt.obj
 0001:0002bb70       ?fp_format_f@@YAHQEBNQEAD_K12HW4__acrt_rounding_mode@@AEAV__crt_cached_ptd_host@@@Z 000000014002cb70 f   libucrtd:cvt.obj
 0001:0002bd00       ?fp_format_f_internal@@YAHQEAD_KHQEAU_strflt@@_NAEAV__crt_cached_ptd_host@@@Z 000000014002cd00 f   libucrtd:cvt.obj
 0001:0002bf40       ?fp_format_g@@YAHQEBNQEAD_K12H_NIW4__acrt_rounding_mode@@AEAV__crt_cached_ptd_host@@@Z 000000014002cf40 f   libucrtd:cvt.obj
 0001:0002c1a0       ?fp_format_nan_or_infinity@@YAHW4__acrt_fp_class@@_NPEAD_K1@Z 000000014002d1a0 f   libucrtd:cvt.obj
 0001:0002c310       ?shift_bytes@@YAXQEAD_K0H@Z 000000014002d310 f   libucrtd:cvt.obj
 0001:0002c360       ?should_round_up@@YA_NQEBN_KFW4__acrt_rounding_mode@@@Z 000000014002d360 f   libucrtd:cvt.obj
 0001:0002cb28       $LN46                      000000014002db28     libucrtd:cvt.obj
 0001:0002cb4c       $LN45                      000000014002db4c     libucrtd:cvt.obj
 0001:0002f130       ?shortsort@@YAXPEAD0_KP6AHPEBX2@Z@Z 0000000140030130 f   libucrtd:qsort.obj
 0001:0002f230       ?swap@@YAXPEAD0_K@Z        0000000140030230 f   libucrtd:qsort.obj
 0001:0002faa0       ??$common_tcsncpy_s@D@@YAHQEAD_KQEBD1@Z 0000000140030aa0 f   libucrtd:strncpy_s.obj
 0001:00030170       fallbackMethod             0000000140031170 f   libucrtd:strpbrk.obj
 0001:00030ad4       $LN87                      0000000140031ad4     libucrtd:strpbrk.obj
 0001:00030b10       $LN86                      0000000140031b10     libucrtd:strpbrk.obj
 0001:00030b50       $LN85                      0000000140031b50     libucrtd:strpbrk.obj
 0001:00030e50       ?__acrt_LCMapStringA_stat@@YAHPEAU__crt_locale_pointers@@PEB_WKPEBDHPEADHHH@Z 0000000140031e50 f   libucrtd:lcmapstringa.obj
 0001:00031500       ?initialize_multibyte@@YAHXZ 0000000140032500 f   libucrtd:multibyte_initializer.obj
 0001:00031530       ??$common_xtox@KD@@YAHKQEAD_KI_N@Z 0000000140032530 f   libucrtd:xtoa.obj
 0001:00031770       ??$common_xtox@K_W@@YAHKQEA_W_KI_N@Z 0000000140032770 f   libucrtd:xtoa.obj
 0001:000319c0       ??$common_xtox_s@KD@@YAHKQEAD_KI_N@Z 00000001400329c0 f   libucrtd:xtoa.obj
 0001:00031d70       ??$common_xtox_s@K_W@@YAHKQEA_W_KI_N@Z 0000000140032d70 f   libucrtd:xtoa.obj
 0001:000322b0       ?GetTableIndexFromLocaleName@@YAHPEB_W@Z 00000001400332b0 f   libucrtd:lcidtoname_downlevel.obj
 0001:000324d0       ??$?RV<lambda_842d9ff0dc9ef11c61343bbaebe7f885>@@AEAV<lambda_c5860995281e5c4ce005b3de8f5874ee>@@V<lambda_d90129c13df834fdcbf8d2b88dafcf2d>@@@?$__crt_seh_guarded_call@X@@QEAAX$$QEAV<lambda_842d9ff0dc9ef11c61343bbaebe7f885>@@AEAV<lambda_c5860995281e5c4ce005b3de8f5874ee>@@$$QEAV<lambda_d90129c13df834fdcbf8d2b88dafcf2d>@@@Z 00000001400334d0 f   libucrtd:fflush.obj
 0001:00032510       ??$?RV<lambda_886d6c58226a84441f68b9f2b8217b83>@@AEAV<lambda_ab61a845afdef5b7c387490eaf3616ee>@@V<lambda_f7f22ab5edc0698d5f6905b0d3f44752>@@@?$__crt_seh_guarded_call@X@@QEAAX$$QEAV<lambda_886d6c58226a84441f68b9f2b8217b83>@@AEAV<lambda_ab61a845afdef5b7c387490eaf3616ee>@@$$QEAV<lambda_f7f22ab5edc0698d5f6905b0d3f44752>@@@Z 0000000140033510 f   libucrtd:fflush.obj
 0001:00032550       ??$__acrt_lock_and_call@V<lambda_ab61a845afdef5b7c387490eaf3616ee>@@@@YAXW4__acrt_lock_id@@$$QEAV<lambda_ab61a845afdef5b7c387490eaf3616ee>@@@Z 0000000140033550 f   libucrtd:fflush.obj
 0001:000325b0       ??$__acrt_lock_stream_and_call@V<lambda_c5860995281e5c4ce005b3de8f5874ee>@@@@YAXQEAU_iobuf@@$$QEAV<lambda_c5860995281e5c4ce005b3de8f5874ee>@@@Z 00000001400335b0 f   libucrtd:fflush.obj
 0001:00032610       ??0<lambda_842d9ff0dc9ef11c61343bbaebe7f885>@@QEAA@AEBQEAU_iobuf@@@Z 0000000140033610 f   libucrtd:fflush.obj
 0001:00032610       ??0<lambda_d90129c13df834fdcbf8d2b88dafcf2d>@@QEAA@AEBQEAU_iobuf@@@Z 0000000140033610 f   libucrtd:fflush.obj
 0001:00032630       ??0<lambda_c5860995281e5c4ce005b3de8f5874ee>@@QEAA@AEBV__crt_stdio_stream@@AEAHAEB_N1@Z 0000000140033630 f   libucrtd:fflush.obj
 0001:00032690       ??R<lambda_842d9ff0dc9ef11c61343bbaebe7f885>@@QEBA@XZ 0000000140033690 f   libucrtd:fflush.obj
 0001:000326b0       ??R<lambda_ab61a845afdef5b7c387490eaf3616ee>@@QEBA@XZ 00000001400336b0 f   libucrtd:fflush.obj
 0001:000327a0       ??R<lambda_c5860995281e5c4ce005b3de8f5874ee>@@QEBA@XZ 00000001400337a0 f   libucrtd:fflush.obj
 0001:00032850       ??R<lambda_d90129c13df834fdcbf8d2b88dafcf2d>@@QEBA@XZ 0000000140033850 f   libucrtd:fflush.obj
 0001:000328c0       ?_fflush_nolock_internal@@YAHQEAU_iobuf@@AEAV__crt_cached_ptd_host@@@Z 00000001400338c0 f   libucrtd:fflush.obj
 0001:00032960       ?common_flush_all@@YAH_N@Z 0000000140033960 f   libucrtd:fflush.obj
 0001:000329d0       ?common_flush_all_should_try_to_flush_stream@@YA_NV__crt_stdio_stream@@QEAH@Z 00000001400339d0 f   libucrtd:fflush.obj
 0001:00032a80       ?is_stream_allocated@@YA_NJ@Z 0000000140033a80 f   libucrtd:fflush.obj
 0001:00032ab0       ?is_stream_flushable@@YA_NJ@Z 0000000140033ab0 f   libucrtd:fflush.obj
 0001:00032ae0       ?is_stream_flushable_or_commitable@@YA_NJ@Z 0000000140033ae0 f   libucrtd:fflush.obj
 0001:00032d30       ?check_trailing@@YA_NPEBDW4__acrt_has_trailing_digits@@@Z 0000000140033d30 f   libucrtd:_fptostr.obj
 0001:00032d80       ?should_round_up@@YA_NQEBD0HW4__acrt_has_trailing_digits@@W4__acrt_rounding_mode@@@Z 0000000140033d80 f   libucrtd:_fptostr.obj
 0001:00033430       ??$convert_to_fos_high_precision@N@@YA?AW4__acrt_has_trailing_digits@@NIW4__acrt_precision_style@@QEAHQEAD_K@Z 0000000140034430 f   libucrtd:cfout.obj
 0001:00033b50       ??0fp_control_word_guard@?A0x71ca7cfb@@QEAA@II@Z 0000000140034b50 f   libucrtd:cfout.obj
 0001:00033bb0       ??0scoped_fp_state_reset@?A0x71ca7cfb@@QEAA@XZ 0000000140034bb0 f   libucrtd:cfout.obj
 0001:00033c00       ??1fp_control_word_guard@?A0x71ca7cfb@@QEAA@XZ 0000000140034c00 f   libucrtd:cfout.obj
 0001:00033c30       ??1scoped_fp_state_reset@?A0x71ca7cfb@@QEAA@XZ 0000000140034c30 f   libucrtd:cfout.obj
 0001:00035a50       ??R<lambda_599026849492e2a71b24cce8b46aab16>@@QEBA_KPEBD@Z 0000000140036a50 f   libucrtd:mbrtowc.obj
 0001:000360e0       ?_mbstowcs_internal@@YAHPEA_KPEA_W_KPEBD2AEAV__crt_cached_ptd_host@@@Z 00000001400370e0 f   libucrtd:mbstowcs.obj
 0001:000366c0       ?_mbstowcs_l_helper@@YA_KPEA_WPEBD_KAEAV__crt_cached_ptd_host@@@Z 00000001400376c0 f   libucrtd:mbstowcs.obj
 0001:00036c70       ?_wcstombs_internal@@YAHPEA_KPEAD_KPEB_W2AEAV__crt_cached_ptd_host@@@Z 0000000140037c70 f   libucrtd:wcstombs.obj
 0001:00037240       ?_wcstombs_l_helper@@YA_KPEADPEB_W_KAEAV__crt_cached_ptd_host@@@Z 0000000140038240 f   libucrtd:wcstombs.obj
 0001:000379d0       ?wcsncnt@@YA_KPEB_W_K@Z    00000001400389d0 f   libucrtd:wcstombs.obj
 0001:00037ae0       ??$common_tcscat_s@D@@YAHQEAD_KQEBD@Z 0000000140038ae0 f   libucrtd:strcat_s.obj
 0001:000381e0       ??$?RV<lambda_7d29013d608e9f25a034de83c9b9e983>@@AEAV<lambda_3e4146214822e0ea86c47ff907aef2ff>@@V<lambda_b869e5a4e1069fcb5c3da79c0d999133>@@@?$__crt_seh_guarded_call@H@@QEAAH$$QEAV<lambda_7d29013d608e9f25a034de83c9b9e983>@@AEAV<lambda_3e4146214822e0ea86c47ff907aef2ff>@@$$QEAV<lambda_b869e5a4e1069fcb5c3da79c0d999133>@@@Z 00000001400391e0 f   libucrtd:commit.obj
 0001:00038230       ??$__acrt_lowio_lock_fh_and_call@V<lambda_3e4146214822e0ea86c47ff907aef2ff>@@@@YAHH$$QEAV<lambda_3e4146214822e0ea86c47ff907aef2ff>@@@Z 0000000140039230 f   libucrtd:commit.obj
 0001:00038290       ??R<lambda_3e4146214822e0ea86c47ff907aef2ff>@@QEBA@XZ 0000000140039290 f   libucrtd:commit.obj
 0001:00038360       ??R<lambda_19eaff14c5fe7be5b1b106a862eb1091>@@QEBA@XZ 0000000140039360 f   libucrtd:close.obj
 0001:00038360       ??R<lambda_7d29013d608e9f25a034de83c9b9e983>@@QEBA@XZ 0000000140039360 f   libucrtd:commit.obj
 0001:00038380       ??R<lambda_3ce37f5b621ab310299ea5f68cbdf3bb>@@QEBA@XZ 0000000140039380 f   libucrtd:close.obj
 0001:00038380       ??R<lambda_b869e5a4e1069fcb5c3da79c0d999133>@@QEBA@XZ 0000000140039380 f   libucrtd:commit.obj
 0001:00038580       ?write_binary_nolock@@YA?AUwrite_result@?A0x17268360@@HQEBDI@Z 0000000140039580 f   libucrtd:write.obj
 0001:00038650       ?write_double_translated_ansi_nolock@@YA?AUwrite_result@?A0x17268360@@HQEBDIAEAV__crt_cached_ptd_host@@@Z 0000000140039650 f   libucrtd:write.obj
 0001:000393b0       ?write_double_translated_unicode_nolock@@YA?AUwrite_result@?A0x17268360@@QEBDI@Z 000000014003a3b0 f   libucrtd:write.obj
 0001:00039510       ?write_requires_double_translation_nolock@@YA_NHAEAV__crt_cached_ptd_host@@@Z 000000014003a510 f   libucrtd:write.obj
 0001:00039620       ?write_text_ansi_nolock@@YA?AUwrite_result@?A0x17268360@@HQEBDI@Z 000000014003a620 f   libucrtd:write.obj
 0001:00039850       ?write_text_utf16le_nolock@@YA?AUwrite_result@?A0x17268360@@HQEBDI@Z 000000014003a850 f   libucrtd:write.obj
 0001:00039aa0       ?write_text_utf8_nolock@@YA?AUwrite_result@?A0x17268360@@HQEBDI@Z 000000014003aaa0 f   libucrtd:write.obj
 0001:0003a820       $$000000                   000000014003b820     libucrtd:log10.obj
 0001:0003b360       ??$to_abstract_status@W4__acrt_fenv_machine_sse_status@@@@YA?AW4__acrt_fenv_abstract_status@@W4__acrt_fenv_machine_sse_status@@@Z 000000014003c360 f   libucrtd:_fenvutils.obj
 0001:0003b380       ??$translate_control_exception_mask@W4__acrt_fenv_abstract_control@@W4__acrt_fenv_machine_sse_control@@@@YA?AW4__acrt_fenv_abstract_control@@W4__acrt_fenv_machine_sse_control@@@Z 000000014003c380 f   libucrtd:_fenvutils.obj
 0001:0003b470       ??$translate_control_exception_mask@W4__acrt_fenv_machine_sse_control@@W4__acrt_fenv_abstract_control@@@@YA?AW4__acrt_fenv_machine_sse_control@@W4__acrt_fenv_abstract_control@@@Z 000000014003c470 f   libucrtd:_fenvutils.obj
 0001:0003b560       ??$translate_control_rounding_control@W4__acrt_fenv_abstract_control@@W4__acrt_fenv_machine_sse_control@@@@YA?AW4__acrt_fenv_abstract_control@@W4__acrt_fenv_machine_sse_control@@@Z 000000014003c560 f   libucrtd:_fenvutils.obj
 0001:0003b5d0       ??$translate_control_rounding_control@W4__acrt_fenv_machine_sse_control@@W4__acrt_fenv_abstract_control@@@@YA?AW4__acrt_fenv_machine_sse_control@@W4__acrt_fenv_abstract_control@@@Z 000000014003c5d0 f   libucrtd:_fenvutils.obj
 0001:0003b640       ??$translate_status@W4__acrt_fenv_abstract_status@@W4__acrt_fenv_machine_sse_status@@@@YA?AW4__acrt_fenv_abstract_status@@W4__acrt_fenv_machine_sse_status@@@Z 000000014003c640 f   libucrtd:_fenvutils.obj
 0001:0003b730       ??$translate_status@W4__acrt_fenv_machine_sse_status@@W4__acrt_fenv_abstract_status@@@@YA?AW4__acrt_fenv_machine_sse_status@@W4__acrt_fenv_abstract_status@@@Z 000000014003c730 f   libucrtd:_fenvutils.obj
 0001:0003ba00       ?get_machine_sse_control@@YA?AW4__acrt_fenv_machine_sse_control@@XZ 000000014003ca00 f   libucrtd:_fenvutils.obj
 0001:0003ba20       ?get_machine_sse_status@@YA?AW4__acrt_fenv_machine_sse_status@@XZ 000000014003ca20 f   libucrtd:_fenvutils.obj
 0001:0003ba40       ?set_machine_sse_control@@YAXW4__acrt_fenv_machine_sse_control@@@Z 000000014003ca40 f   libucrtd:_fenvutils.obj
 0001:0003baa0       ?set_machine_sse_status@@YAXW4__acrt_fenv_machine_sse_status@@@Z 000000014003caa0 f   libucrtd:_fenvutils.obj
 0001:0003baf0       ?to_abstract_control@@YA?AW4__acrt_fenv_abstract_control@@W4__acrt_fenv_machine_sse_control@@@Z 000000014003caf0 f   libucrtd:_fenvutils.obj
 0001:0003bb50       ?to_machine_sse_control@@YA?AW4__acrt_fenv_machine_sse_control@@W4__acrt_fenv_abstract_control@@@Z 000000014003cb50 f   libucrtd:_fenvutils.obj
 0001:0003bbc0       ?to_machine_sse_status@@YA?AW4__acrt_fenv_machine_sse_status@@W4__acrt_fenv_abstract_status@@@Z 000000014003cbc0 f   libucrtd:_fenvutils.obj
 0001:0003bbe0       ?translate_control_denormal_control_from_sse@@YA?AW4__acrt_fenv_abstract_control@@W4__acrt_fenv_machine_sse_control@@@Z 000000014003cbe0 f   libucrtd:_fenvutils.obj
 0001:0003bc60       ?translate_control_denormal_control_to_sse@@YA?AW4__acrt_fenv_machine_sse_control@@W4__acrt_fenv_abstract_control@@@Z 000000014003cc60 f   libucrtd:_fenvutils.obj
 0001:0003c220       ?_fclose_internal@@YAHQEAU_iobuf@@AEAV__crt_cached_ptd_host@@@Z 000000014003d220 f   libucrtd:fclose.obj
 0001:0003c380       ?_fclose_nolock_internal@@YAHQEAU_iobuf@@AEAV__crt_cached_ptd_host@@@Z 000000014003d380 f   libucrtd:fclose.obj
 0001:0003c570       ??$common_lseek_nolock@_J@@YA_JH_JHAEAV__crt_cached_ptd_host@@@Z 000000014003d570 f   libucrtd:lseek.obj
 0001:0003c6a0       ?common_lseek_do_seek_nolock@@YA_JQEAX_JHAEAV__crt_cached_ptd_host@@@Z 000000014003d6a0 f   libucrtd:lseek.obj
 0001:0003cb10       _log_special_common        000000014003db10 f   libucrtd:log_special.obj
 0001:0003cc30       _call_matherr              000000014003dc30 f   libucrtd:libm_error.obj
 0001:0003ccc0       _exception_enabled         000000014003dcc0 f   libucrtd:libm_error.obj
 0001:0003cfe0       _abstract_cw               000000014003dfe0 f   libucrtd:ieee.obj
 0001:0003d130       _abstract_sw               000000014003e130 f   libucrtd:ieee.obj
 0001:0003d210       _hw_cw                     000000014003e210 f   libucrtd:ieee.obj
 0001:0003d360       common_control87           000000014003e360 f   libucrtd:ieee.obj
 0001:0003d480       ??$?RV<lambda_19eaff14c5fe7be5b1b106a862eb1091>@@AEAV<lambda_af29824b49a67d335554598d6cad2be6>@@V<lambda_3ce37f5b621ab310299ea5f68cbdf3bb>@@@?$__crt_seh_guarded_call@H@@QEAAH$$QEAV<lambda_19eaff14c5fe7be5b1b106a862eb1091>@@AEAV<lambda_af29824b49a67d335554598d6cad2be6>@@$$QEAV<lambda_3ce37f5b621ab310299ea5f68cbdf3bb>@@@Z 000000014003e480 f   libucrtd:close.obj
 0001:0003d4d0       ??$__acrt_lowio_lock_fh_and_call@V<lambda_af29824b49a67d335554598d6cad2be6>@@@@YAHH$$QEAV<lambda_af29824b49a67d335554598d6cad2be6>@@@Z 000000014003e4d0 f   libucrtd:close.obj
 0001:0003d530       ??R<lambda_af29824b49a67d335554598d6cad2be6>@@QEBA@XZ 000000014003e530 f   libucrtd:close.obj
 0001:0003d600       ?close_os_handle_nolock@@YAKH@Z 000000014003e600 f   libucrtd:close.obj
 0001:0003dc00       ?combine_second_surrogate@?A0xc60ee810@@YA_U_SPEAU_Mbstatet@@@Z 000000014003ec00 f   libucrtd:c16rtomb.obj
 0001:0003dc20       ?has_surrogate@?A0xc60ee810@@YA_NPEAU_Mbstatet@@@Z 000000014003ec20 f   libucrtd:c16rtomb.obj
 0001:0003dc50       ?is_first_surrogate@?A0xc60ee810@@YA_N_S@Z 000000014003ec50 f   libucrtd:c16rtomb.obj
 0001:0003dc90       ?is_second_surrogate@?A0xc60ee810@@YA_N_S@Z 000000014003ec90 f   libucrtd:c16rtomb.obj
 0001:0003dcd0       ?store_first_surrogate@?A0xc60ee810@@YAX_SPEAU_Mbstatet@@@Z 000000014003ecd0 f   libucrtd:c16rtomb.obj
 0001:0003dd10       ??$console_output_reopen_and_retry@V<lambda_61c1b8a38cedca4df5fdc542e6ccae6d>@@@@YAHAEBV<lambda_61c1b8a38cedca4df5fdc542e6ccae6d>@@@Z 000000014003ed10 f   libucrtd:initcon.obj
 0001:0003dd70       ??0<lambda_61c1b8a38cedca4df5fdc542e6ccae6d>@@QEAA@AEBQEBXAEBKAEBQEAK@Z 000000014003ed70 f   libucrtd:initcon.obj
 0001:0003ddc0       ??R<lambda_61c1b8a38cedca4df5fdc542e6ccae6d>@@QEBA@XZ 000000014003edc0 f   libucrtd:initcon.obj
 0001:0003de00       ?__dcrt_lowio_initialize_console_output@@YAXXZ 000000014003ee00 f   libucrtd:initcon.obj
 0001:0003e770       $$000000                   000000014003f770     libucrtd:fpsr.obj
 0001:0003f050       $$000000                   0000000140040050     LIBCMTD:guard_dispatch.obj
 0001:0003f070       $$000000                   0000000140040070     LIBCMTD:guard_xfg_dispatch.obj
 0001:0003f0b0       $$000000                   00000001400400b0     libvcruntimed:memcpy.obj
 0001:0003f0c0       $$000000                   00000001400400c0     libvcruntimed:memcpy.obj
 0001:0003f0ee       MoveSmall0                 00000001400400ee     libvcruntimed:memcpy.obj
 0001:0003f0f0       MoveSmall15                00000001400400f0     libvcruntimed:memcpy.obj
 0001:0003f110       MoveSmall11                0000000140040110     libvcruntimed:memcpy.obj
 0001:0003f128       MoveSmall2                 0000000140040128     libvcruntimed:memcpy.obj
 0001:0003f130       MoveSmall7                 0000000140040130     libvcruntimed:memcpy.obj
 0001:0003f148       MoveSmall14                0000000140040148     libvcruntimed:memcpy.obj
 0001:0003f15f       MoveSmall3                 000000014004015f     libvcruntimed:memcpy.obj
 0001:0003f170       MoveSmall13                0000000140040170     libvcruntimed:memcpy.obj
 0001:0003f186       MoveSmall10                0000000140040186     libvcruntimed:memcpy.obj
 0001:0003f195       MoveSmall9                 0000000140040195     libvcruntimed:memcpy.obj
 0001:0003f1a3       MoveSmall12                00000001400401a3     libvcruntimed:memcpy.obj
 0001:0003f1b0       MoveSmall6                 00000001400401b0     libvcruntimed:memcpy.obj
 0001:0003f1bf       MoveSmall5                 00000001400401bf     libvcruntimed:memcpy.obj
 0001:0003f1cd       MoveSmall8                 00000001400401cd     libvcruntimed:memcpy.obj
 0001:0003f1d4       MoveSmall1                 00000001400401d4     libvcruntimed:memcpy.obj
 0001:0003f1da       MoveSmall4                 00000001400401da     libvcruntimed:memcpy.obj
 0001:0003f1e0       MoveAbove15                00000001400401e0     libvcruntimed:memcpy.obj
 0001:0003f1fd       MoveAbove32                00000001400401fd     libvcruntimed:memcpy.obj
 0001:0003f23d       MoveWithYMM                000000014004023d     libvcruntimed:memcpy.obj
 0001:0003f290       YmmLoop                    0000000140040290     libvcruntimed:memcpy.obj
 0001:0003f318       MovUpTo256WithYMM          0000000140040318     libvcruntimed:memcpy.obj
 0001:0003f335       Mov8YmmBlocks              0000000140040335     libvcruntimed:memcpy.obj
 0001:0003f349       Mov7YmmBlocks              0000000140040349     libvcruntimed:memcpy.obj
 0001:0003f35d       Mov6YmmBlocks              000000014004035d     libvcruntimed:memcpy.obj
 0001:0003f371       Mov5YmmBlocks              0000000140040371     libvcruntimed:memcpy.obj
 0001:0003f385       Mov4YmmBlocks              0000000140040385     libvcruntimed:memcpy.obj
 0001:0003f393       Mov3YmmBlocks              0000000140040393     libvcruntimed:memcpy.obj
 0001:0003f3a1       Mov2YmmBlocks              00000001400403a1     libvcruntimed:memcpy.obj
 0001:0003f3af       Mov1YmmBlocks              00000001400403af     libvcruntimed:memcpy.obj
 0001:0003f3b6       Mov0YmmBlocks              00000001400403b6     libvcruntimed:memcpy.obj
 0001:0003f3c0       YmmLoopNT                  00000001400403c0     libvcruntimed:memcpy.obj
 0001:0003f465       Mov8YmmBlocksNT            0000000140040465     libvcruntimed:memcpy.obj
 0001:0003f479       Mov7YmmBlocksNT            0000000140040479     libvcruntimed:memcpy.obj
 0001:0003f48d       Mov6YmmBlocksNT            000000014004048d     libvcruntimed:memcpy.obj
 0001:0003f4a1       Mov5YmmBlocksNT            00000001400404a1     libvcruntimed:memcpy.obj
 0001:0003f4b5       Mov4YmmBlocksNT            00000001400404b5     libvcruntimed:memcpy.obj
 0001:0003f4c3       Mov3YmmBlocksNT            00000001400404c3     libvcruntimed:memcpy.obj
 0001:0003f4d1       Mov2YmmBlocksNT            00000001400404d1     libvcruntimed:memcpy.obj
 0001:0003f4df       Mov1YmmBlocksNT            00000001400404df     libvcruntimed:memcpy.obj
 0001:0003f4e6       Mov0YmmBlocksNT            00000001400404e6     libvcruntimed:memcpy.obj
 0001:0003f500       NoAVX                      0000000140040500     libvcruntimed:memcpy.obj
 0001:0003f516       MoveWithXMM                0000000140040516     libvcruntimed:memcpy.obj
 0001:0003f550       XmmLoop                    0000000140040550     libvcruntimed:memcpy.obj
 0001:0003f5bc       MovUpTo128WithXMM          00000001400405bc     libvcruntimed:memcpy.obj
 0001:0003f5d9       Mov8XmmBlocks              00000001400405d9     libvcruntimed:memcpy.obj
 0001:0003f5e7       Mov7XmmBlocks              00000001400405e7     libvcruntimed:memcpy.obj
 0001:0003f5f5       Mov6XmmBlocks              00000001400405f5     libvcruntimed:memcpy.obj
 0001:0003f603       Mov5XmmBlocks              0000000140040603     libvcruntimed:memcpy.obj
 0001:0003f611       Mov4XmmBlocks              0000000140040611     libvcruntimed:memcpy.obj
 0001:0003f61f       Mov3XmmBlocks              000000014004061f     libvcruntimed:memcpy.obj
 0001:0003f62d       Mov2XmmBlocks              000000014004062d     libvcruntimed:memcpy.obj
 0001:0003f63b       Mov1XmmBlocks              000000014004063b     libvcruntimed:memcpy.obj
 0001:0003f642       Mov0XmmBlocks              0000000140040642     libvcruntimed:memcpy.obj
 0001:0003f650       CopyDown                   0000000140040650     libvcruntimed:memcpy.obj
 0001:0003f66b       XmmMovAlign                000000014004066b     libvcruntimed:memcpy.obj
 0001:0003f683       XmmMovLargeTest            0000000140040683     libvcruntimed:memcpy.obj
 0001:0003f6a0       XmmMovLargeOuter           00000001400406a0     libvcruntimed:memcpy.obj
 0001:0003f6a7       XmmMovLargeInner           00000001400406a7     libvcruntimed:memcpy.obj
 0001:0003f6fd       XmmMovSmallTest            00000001400406fd     libvcruntimed:memcpy.obj
 0001:0003f710       XmmMovSmallLoop            0000000140040710     libvcruntimed:memcpy.obj
 0001:0003f720       XmmMovTrailing             0000000140040720     libvcruntimed:memcpy.obj
 0001:0003f729       XmmMovReturn               0000000140040729     libvcruntimed:memcpy.obj
 0001:0003f750       $$000000                   0000000140040750     libvcruntimed:memset.obj
 0001:0003f760       $$000000                   0000000140040760     libvcruntimed:memset.obj
 0001:0003f7a1       SetSmall15                 00000001400407a1     libvcruntimed:memset.obj
 0001:0003f7a5       SetSmall7                  00000001400407a5     libvcruntimed:memset.obj
 0001:0003f7a9       SetSmall3                  00000001400407a9     libvcruntimed:memset.obj
 0001:0003f7ae       SetSmall1                  00000001400407ae     libvcruntimed:memset.obj
 0001:0003f7b2       SetSmall0                  00000001400407b2     libvcruntimed:memset.obj
 0001:0003f7b3       SetSmall14                 00000001400407b3     libvcruntimed:memset.obj
 0001:0003f7b7       SetSmall6                  00000001400407b7     libvcruntimed:memset.obj
 0001:0003f7bb       SetSmall2                  00000001400407bb     libvcruntimed:memset.obj
 0001:0003f7c0       MoveSmall0                 00000001400407c0     libvcruntimed:memset.obj
 0001:0003f7d0       SetSmall13                 00000001400407d0     libvcruntimed:memset.obj
 0001:0003f7d4       SetSmall5                  00000001400407d4     libvcruntimed:memset.obj
 0001:0003f7e0       SetSmall12                 00000001400407e0     libvcruntimed:memset.obj
 0001:0003f7e4       SetSmall4                  00000001400407e4     libvcruntimed:memset.obj
 0001:0003f7e9       SetSmall11                 00000001400407e9     libvcruntimed:memset.obj
 0001:0003f7f7       SetSmall9                  00000001400407f7     libvcruntimed:memset.obj
 0001:0003f800       SetSmall10                 0000000140040800     libvcruntimed:memset.obj
 0001:0003f80a       SetSmall8                  000000014004080a     libvcruntimed:memset.obj
 0001:0003f810       SetAbove15                 0000000140040810     libvcruntimed:memset.obj
 0001:0003f826       SetAbove32                 0000000140040826     libvcruntimed:memset.obj
 0001:0003f852       SetWithYMM                 0000000140040852     libvcruntimed:memset.obj
 0001:0003f890       YmmLoop                    0000000140040890     libvcruntimed:memset.obj
 0001:0003f8da       SetUpTo256WithYMM          00000001400408da     libvcruntimed:memset.obj
 0001:0003f8f7       Set8YmmBlocks              00000001400408f7     libvcruntimed:memset.obj
 0001:0003f901       Set7YmmBlocks              0000000140040901     libvcruntimed:memset.obj
 0001:0003f90b       Set6YmmBlocks              000000014004090b     libvcruntimed:memset.obj
 0001:0003f915       Set5YmmBlocks              0000000140040915     libvcruntimed:memset.obj
 0001:0003f91f       Set4YmmBlocks              000000014004091f     libvcruntimed:memset.obj
 0001:0003f926       Set3YmmBlocks              0000000140040926     libvcruntimed:memset.obj
 0001:0003f92d       Set2YmmBlocks              000000014004092d     libvcruntimed:memset.obj
 0001:0003f934       Set1YmmBlocks              0000000140040934     libvcruntimed:memset.obj
 0001:0003f93b       Set0YmmBlocks              000000014004093b     libvcruntimed:memset.obj
 0001:0003f943       SetWithYMMNT               0000000140040943     libvcruntimed:memset.obj
 0001:0003f950       YmmLoopNT                  0000000140040950     libvcruntimed:memset.obj
 0001:0003f9b7       Set8YmmBlocksNT            00000001400409b7     libvcruntimed:memset.obj
 0001:0003f9c1       Set7YmmBlocksNT            00000001400409c1     libvcruntimed:memset.obj
 0001:0003f9cb       Set6YmmBlocksNT            00000001400409cb     libvcruntimed:memset.obj
 0001:0003f9d5       Set5YmmBlocksNT            00000001400409d5     libvcruntimed:memset.obj
 0001:0003f9df       Set4YmmBlocksNT            00000001400409df     libvcruntimed:memset.obj
 0001:0003f9e6       Set3YmmBlocksNT            00000001400409e6     libvcruntimed:memset.obj
 0001:0003f9ed       Set2YmmBlocksNT            00000001400409ed     libvcruntimed:memset.obj
 0001:0003f9f4       Set1YmmBlocksNT            00000001400409f4     libvcruntimed:memset.obj
 0001:0003f9fb       Set0YmmBlocksNT            00000001400409fb     libvcruntimed:memset.obj
 0001:0003fa10       NoAVX                      0000000140040a10     libvcruntimed:memset.obj
 0001:0003fa26       SetWithXMM                 0000000140040a26     libvcruntimed:memset.obj
 0001:0003fa50       XmmLoop                    0000000140040a50     libvcruntimed:memset.obj
 0001:0003fa8e       SetUpTo128WithXMM          0000000140040a8e     libvcruntimed:memset.obj
 0001:0003faab       Set8XmmBlocks              0000000140040aab     libvcruntimed:memset.obj
 0001:0003fab2       Set7XmmBlocks              0000000140040ab2     libvcruntimed:memset.obj
 0001:0003fab9       Set6XmmBlocks              0000000140040ab9     libvcruntimed:memset.obj
 0001:0003fac0       Set5XmmBlocks              0000000140040ac0     libvcruntimed:memset.obj
 0001:0003fac7       Set4XmmBlocks              0000000140040ac7     libvcruntimed:memset.obj
 0001:0003face       Set3XmmBlocks              0000000140040ace     libvcruntimed:memset.obj
 0001:0003fad5       Set2XmmBlocks              0000000140040ad5     libvcruntimed:memset.obj
 0001:0003fadc       Set1XmmBlocks              0000000140040adc     libvcruntimed:memset.obj
 0001:0003fae3       Set0XmmBlocks              0000000140040ae3     libvcruntimed:memset.obj
 0001:0003fb00       ?filt$0@?0??__scrt_common_main_seh@@YAHXZ@4HA 0000000140040b00 f   LIBCMTD:exe_winmain.obj
 0001:0003fb30       __scrt_is_nonwritable_in_current_image$filt$0 0000000140040b30 f   LIBCMTD:utility.obj
 0001:0003fb70       __DestructExceptionObject$filt$0 0000000140040b70 f   libvcruntimed:ehhelpers.obj
 0001:0003fba0       ?filt$0@?0???$_CallSETranslator@V__FrameHandler3@@@@YAHPEAUEHExceptionRecord@@PEA_KPEAU_CONTEXT@@PEAU_xDISPATCHER_CONTEXT@@PEBU_s_FuncInfo@@K1H@Z@4HA 0000000140040ba0 f   libvcruntimed:risctrnsctrl.obj
 0001:0003fc10       ?filt$0@?0??is_bad_read_pointer@@YA_NQEBX_K@Z@4HA 0000000140040c10 f   libucrtd:debug_heap.obj
 0001:0003fc10       terminate$filt$0           0000000140040c10 f   libucrtd:terminate.obj
 0001:0003fc10       ?filt$0@?0???$BuildCatchObjectHelperInternal@V__FrameHandler3@@@@YAHPEAUEHExceptionRecord@@PEAXPEBU_s_HandlerType@@PEBU_s_CatchableType@@@Z@4HA 0000000140040c10 f   libvcruntimed:frame.obj
 0001:0003fc10       ?filt$0@?0???$BuildCatchObjectInternal@V__FrameHandler3@@@@YAXPEAUEHExceptionRecord@@PEAXPEBU_s_HandlerType@@PEBU_s_CatchableType@@@Z@4HA 0000000140040c10 f   libvcruntimed:frame.obj
 0001:0003fc30       ?filt$0@?0??CxxCallCatchBlock@__FrameHandler3@@SAPEAXPEAU_EXCEPTION_RECORD@@@Z@4HA 0000000140040c30 f   libvcruntimed:frame.obj
 0001:0003fc59       ?fin$1@?0??CxxCallCatchBlock@__FrameHandler3@@SAPEAXPEAU_EXCEPTION_RECORD@@@Z@4HA 0000000140040c59 f   libvcruntimed:frame.obj
 0001:0003fcf0       ?filt$0@?0??FrameUnwindToState@__FrameHandler3@@SAXPEA_KPEAU_xDISPATCHER_CONTEXT@@PEBU_s_FuncInfo@@H@Z@4HA 0000000140040cf0 f   libvcruntimed:frame.obj
 0001:0003fd11       ?fin$1@?0??FrameUnwindToState@__FrameHandler3@@SAXPEA_KPEAU_xDISPATCHER_CONTEXT@@PEBU_s_FuncInfo@@H@Z@4HA 0000000140040d11 f   libvcruntimed:frame.obj
 0001:0003fd50       ?fin$0@?0???$?RV<lambda_0ae27a3a962d80f24befdcbee591983d>@@AEAV<lambda_8d0ee55de4b1038c4002e0adecdf1839>@@V<lambda_dc504788e8f1664fe9b84e20bfb512f2>@@@?$__crt_seh_guarded_call@X@@QEAAX$$QEAV<lambda_0ae27a3a962d80f24befdcbee591983d>@@AEAV<lambda_8d0ee55de4b1038c4002e0adecdf1839>@@$$QEAV<lambda_dc504788e8f1664fe9b84e20bfb512f2>@@@Z@4HA 0000000140040d50 f   libucrtd:per_thread_data.obj
 0001:0003fd50       ?fin$0@?0???$?RV<lambda_2d41944a1d46af3157314b8a01080d33>@@AEAV<lambda_8f455de75cd7d7f24b4096f044d8b9e6>@@V<lambda_aa500f224e6afead328df44964fe2772>@@@?$__crt_seh_guarded_call@X@@QEAAX$$QEAV<lambda_2d41944a1d46af3157314b8a01080d33>@@AEAV<lambda_8f455de75cd7d7f24b4096f044d8b9e6>@@$$QEAV<lambda_aa500f224e6afead328df44964fe2772>@@@Z@4HA 0000000140040d50 f   libucrtd:per_thread_data.obj
 0001:0003fd50       ?fin$0@?0???$?RV<lambda_74a0ef281e44d15e1136f792f539efb3>@@AEAV<lambda_e157831efee4ea0afb0a2ace5dd5fd0d>@@V<lambda_04ddeca75b7c13fd67716e8dfcef87ee>@@@?$__crt_seh_guarded_call@X@@QEAAX$$QEAV<lambda_74a0ef281e44d15e1136f792f539efb3>@@AEAV<lambda_e157831efee4ea0afb0a2ace5dd5fd0d>@@$$QEAV<lambda_04ddeca75b7c13fd67716e8dfcef87ee>@@@Z@4HA 0000000140040d50 f   libucrtd:per_thread_data.obj
 0001:0003fd50       ?fin$0@?0???$?RV<lambda_aa87e3671a710a21b5dc78c0bdf72e11>@@AEAV<lambda_92619d2358a28f41a33ba319515a20b9>@@V<lambda_6992ecaafeb10aed2b74cb1fae11a551>@@@?$__crt_seh_guarded_call@X@@QEAAX$$QEAV<lambda_aa87e3671a710a21b5dc78c0bdf72e11>@@AEAV<lambda_92619d2358a28f41a33ba319515a20b9>@@$$QEAV<lambda_6992ecaafeb10aed2b74cb1fae11a551>@@@Z@4HA 0000000140040d50 f   libucrtd:per_thread_data.obj
 0001:0003fd50       ?fin$0@?0???$?RV<lambda_410d79af7f07d98d83a3f525b3859a53>@@AEAV<lambda_3e16ef9562a7dcce91392c22ab16ea36>@@V<lambda_38119f0e861e05405d8a144b9b982f0a>@@@?$__crt_seh_guarded_call@X@@QEAAX$$QEAV<lambda_410d79af7f07d98d83a3f525b3859a53>@@AEAV<lambda_3e16ef9562a7dcce91392c22ab16ea36>@@$$QEAV<lambda_38119f0e861e05405d8a144b9b982f0a>@@@Z@4HA 0000000140040d50 f   libucrtd:wsetlocale.obj
 0001:0003fd50       ?fin$0@?0???$?RV<lambda_efa02eb69bf647d2f7ff0dd6f1103f72>@@AEAV<lambda_bd5a608237428601b7e45fbdc72b1ae8>@@V<lambda_728235dc0fc2b1f82d1fa5b3e7102d8f>@@@?$__crt_seh_guarded_call@X@@QEAAX$$QEAV<lambda_efa02eb69bf647d2f7ff0dd6f1103f72>@@AEAV<lambda_bd5a608237428601b7e45fbdc72b1ae8>@@$$QEAV<lambda_728235dc0fc2b1f82d1fa5b3e7102d8f>@@@Z@4HA 0000000140040d50 f   libucrtd:mbctype.obj
 0001:0003fd50       ?fin$0@?0???$?RV<lambda_d80eeec6fff315bfe5c115232f3240e3>@@AEAV<lambda_6e4b09c48022b2350581041d5f6b0c4c>@@V<lambda_2358e3775559c9db80273638284d5e45>@@@?$__crt_seh_guarded_call@X@@QEAAX$$QEAV<lambda_d80eeec6fff315bfe5c115232f3240e3>@@AEAV<lambda_6e4b09c48022b2350581041d5f6b0c4c>@@$$QEAV<lambda_2358e3775559c9db80273638284d5e45>@@@Z@4HA 0000000140040d50 f   libucrtd:exit.obj
 0001:0003fd50       ?fin$0@?0???$?RV<lambda_886d6c58226a84441f68b9f2b8217b83>@@AEAV<lambda_ab61a845afdef5b7c387490eaf3616ee>@@V<lambda_f7f22ab5edc0698d5f6905b0d3f44752>@@@?$__crt_seh_guarded_call@X@@QEAAX$$QEAV<lambda_886d6c58226a84441f68b9f2b8217b83>@@AEAV<lambda_ab61a845afdef5b7c387490eaf3616ee>@@$$QEAV<lambda_f7f22ab5edc0698d5f6905b0d3f44752>@@@Z@4HA 0000000140040d50 f   libucrtd:fflush.obj
 0001:0003fd70       ?filt$0@?0???R<lambda_6e4b09c48022b2350581041d5f6b0c4c>@@QEBA@XZ@4HA 0000000140040d70 f   libucrtd:exit.obj
 0001:0003fda0       ?fin$0@?0???$?RV<lambda_450d765d439847d4c735a33c368b5fc0>@@AEAV<lambda_44731a7d0e6d81c3e6aa82d741081786>@@V<lambda_601a2a7da3b7a96e9554ac7215c4b07c>@@@?$__crt_seh_guarded_call@P6AXH@Z@@QEAAP6AXH@Z$$QEAV<lambda_450d765d439847d4c735a33c368b5fc0>@@AEAV<lambda_44731a7d0e6d81c3e6aa82d741081786>@@$$QEAV<lambda_601a2a7da3b7a96e9554ac7215c4b07c>@@@Z@4HA 0000000140040da0 f   libucrtd:signal.obj
 0001:0003fda0       ?fin$0@?0???$?RV<lambda_6a47f4c8fd0152770a780fc1d70204eb>@@AEAV<lambda_d121dba8a4adeaf3a9819e48611155df>@@V<lambda_6aaa2265f5b6a89667e7d7630012e97a>@@@?$__crt_seh_guarded_call@H@@QEAAH$$QEAV<lambda_6a47f4c8fd0152770a780fc1d70204eb>@@AEAV<lambda_d121dba8a4adeaf3a9819e48611155df>@@$$QEAV<lambda_6aaa2265f5b6a89667e7d7630012e97a>@@@Z@4HA 0000000140040da0 f   libucrtd:onexit.obj
 0001:0003fda0       ?fin$0@?0???$?RV<lambda_80060f20ac3990516b753a27f211934c>@@AEAV<lambda_208ce30acdd7200aa596f2796f4d5154>@@V<lambda_fd91b99c0687e8936f1d70d7d9b78e69>@@@?$__crt_seh_guarded_call@H@@QEAAH$$QEAV<lambda_80060f20ac3990516b753a27f211934c>@@AEAV<lambda_208ce30acdd7200aa596f2796f4d5154>@@$$QEAV<lambda_fd91b99c0687e8936f1d70d7d9b78e69>@@@Z@4HA 0000000140040da0 f   libucrtd:onexit.obj
 0001:0003fdc0       ?dtor$0@?0???R<lambda_d121dba8a4adeaf3a9819e48611155df>@@QEBA@XZ@4HA 0000000140040dc0 f   libucrtd:onexit.obj
 0001:0003fde0       ?fin$0@?0??heap_alloc_dbg_internal@@YAPEAX_KHQEBDH@Z@4HA 0000000140040de0 f   libucrtd:debug_heap.obj
 0001:0003fde0       _CrtMemCheckpoint$fin$0    0000000140040de0 f   libucrtd:debug_heap.obj
 0001:0003fe00       ?fin$0@?0??validate_heap_if_required_nolock@@YAXXZ@4HA 0000000140040e00 f   libucrtd:debug_heap.obj
 0001:0003fe20       _CrtCheckMemory$fin$0      0000000140040e20 f   libucrtd:debug_heap.obj
 0001:0003fe20       _CrtMemDumpAllObjectsSince$fin$0 0000000140040e20 f   libucrtd:debug_heap.obj
 0001:0003fe20       _CrtSetDbgFlag$fin$0       0000000140040e20 f   libucrtd:debug_heap.obj
 0001:0003fe20       _msize_dbg$fin$0           0000000140040e20 f   libucrtd:debug_heap.obj
 0001:0003fe20       _realloc_dbg$fin$0         0000000140040e20 f   libucrtd:debug_heap.obj
 0001:0003fe40       _free_dbg$fin$0            0000000140040e40 f   libucrtd:debug_heap.obj
 0001:0003fe40       _query_new_handler$fin$0   0000000140040e40 f   libucrtd:new_handler.obj
 0001:0003fe60       ?fin$0@?0??update_thread_multibyte_data_internal@@YAPEAU__crt_multibyte_data@@QEAU__acrt_ptd@@QEAPEAU1@@Z@4HA 0000000140040e60 f   libucrtd:mbctype.obj
 0001:0003fe80       __acrt_lowio_ensure_fh_exists$fin$0 0000000140040e80 f   libucrtd:osfinfo.obj
 0001:0003fea0       __acrt_initialize_lowio$fin$0 0000000140040ea0 f   libucrtd:ioinit.obj
 0001:0003fec0       __acrt_update_thread_locale_data$fin$0 0000000140040ec0 f   libucrtd:locale_refcounting.obj
 0001:0003fee0       raise$fin$0                0000000140040ee0 f   libucrtd:signal.obj
 0001:0003ff10       _VCrtDbgReportA$fin$0      0000000140040f10 f   libucrtd:dbgrptt.obj
 0001:0003ff2b       _VCrtDbgReportA$fin$1      0000000140040f2b f   libucrtd:dbgrptt.obj
 0001:0003ff50       _VCrtDbgReportW$fin$0      0000000140040f50 f   libucrtd:dbgrptt.obj
 0001:0003ff6b       _VCrtDbgReportW$fin$1      0000000140040f6b f   libucrtd:dbgrptt.obj
 0001:0003ff90       ?dtor$0@?0??shortsort@@YAXPEAD0_KP6AHPEBX2@Z@Z@4HA 0000000140040f90 f   libucrtd:qsort.obj
 0001:0003ffb0       ?fin$0@?0???$?RV<lambda_842d9ff0dc9ef11c61343bbaebe7f885>@@AEAV<lambda_c5860995281e5c4ce005b3de8f5874ee>@@V<lambda_d90129c13df834fdcbf8d2b88dafcf2d>@@@?$__crt_seh_guarded_call@X@@QEAAX$$QEAV<lambda_842d9ff0dc9ef11c61343bbaebe7f885>@@AEAV<lambda_c5860995281e5c4ce005b3de8f5874ee>@@$$QEAV<lambda_d90129c13df834fdcbf8d2b88dafcf2d>@@@Z@4HA 0000000140040fb0 f   libucrtd:fflush.obj
 0001:0003ffd0       _fcloseall$fin$0           0000000140040fd0 f   libucrtd:closeall.obj
 0001:0003fff0       ?fin$0@?0???$?RV<lambda_19eaff14c5fe7be5b1b106a862eb1091>@@AEAV<lambda_af29824b49a67d335554598d6cad2be6>@@V<lambda_3ce37f5b621ab310299ea5f68cbdf3bb>@@@?$__crt_seh_guarded_call@H@@QEAAH$$QEAV<lambda_19eaff14c5fe7be5b1b106a862eb1091>@@AEAV<lambda_af29824b49a67d335554598d6cad2be6>@@$$QEAV<lambda_3ce37f5b621ab310299ea5f68cbdf3bb>@@@Z@4HA 0000000140040ff0 f   libucrtd:close.obj
 0001:0003fff0       ?fin$0@?0???$?RV<lambda_7d29013d608e9f25a034de83c9b9e983>@@AEAV<lambda_3e4146214822e0ea86c47ff907aef2ff>@@V<lambda_b869e5a4e1069fcb5c3da79c0d999133>@@@?$__crt_seh_guarded_call@H@@QEAAH$$QEAV<lambda_7d29013d608e9f25a034de83c9b9e983>@@AEAV<lambda_3e4146214822e0ea86c47ff907aef2ff>@@$$QEAV<lambda_b869e5a4e1069fcb5c3da79c0d999133>@@@Z@4HA 0000000140040ff0 f   libucrtd:commit.obj
 0001:00040010       _write_internal$fin$0      0000000140041010 f   libucrtd:write.obj
 0001:00040030       ?fin$0@?0??_fclose_internal@@YAHQEAU_iobuf@@AEAV__crt_cached_ptd_host@@@Z@4HA 0000000140041030 f   libucrtd:fclose.obj
 0001:00040060       common_control87$filt$0    0000000140041060 f   libucrtd:ieee.obj
 0001:000400b0       _ctrlfp$filt$0             00000001400410b0 f   libucrtd:fpctrl.obj
 0001:00040100       _IsNonwritableInCurrentImage$filt$0 0000000140041100 f   LIBCMTD:pesect.obj
 0002:000003c8       ?pre_cpp_initializer@@3P6AXXZEA 00000001400423c8     LIBCMTD:exe_winmain.obj
 0002:000003e0       ?pre_c_initializer@@3P6AHXZEA 00000001400423e0     LIBCMTD:exe_winmain.obj
 0002:000003e8       ?post_pgo_initializer@@3P6AHXZEA 00000001400423e8     LIBCMTD:exe_winmain.obj
 0002:00000450       $SG125783                  0000000140042450     win32_handmade.obj
 0002:00000468       $SG125784                  0000000140042468     win32_handmade.obj
 0002:00000480       $SG125796                  0000000140042480     win32_handmade.obj
 0002:00000490       $SG125798                  0000000140042490     win32_handmade.obj
 0002:000004a0       $SG125800                  00000001400424a0     win32_handmade.obj
 0002:000004b0       $SG125803                  00000001400424b0     win32_handmade.obj
 0002:000004c0       $SG125805                  00000001400424c0     win32_handmade.obj
 0002:000004d0       $SG125827                  00000001400424d0     win32_handmade.obj
 0002:000004e0       $SG125830                  00000001400424e0     win32_handmade.obj
 0002:000004f8       $SG125839                  00000001400424f8     win32_handmade.obj
 0002:00000518       $SG125841                  0000000140042518     win32_handmade.obj
 0002:00000540       $SG125890                  0000000140042540     win32_handmade.obj
 0002:00000578       $SG125968                  0000000140042578     win32_handmade.obj
 0002:00000580       $SG125969                  0000000140042580     win32_handmade.obj
 0002:00000588       $SG125970                  0000000140042588     win32_handmade.obj
 0002:000005a0       $SG126223                  00000001400425a0     win32_handmade.obj
 0002:000005b0       $SG126224                  00000001400425b0     win32_handmade.obj
 0002:000005c8       $SG126225                  00000001400425c8     win32_handmade.obj
 0002:000005d8       $SG126226                  00000001400425d8     win32_handmade.obj
 0002:000005f0       $SG126229                  00000001400425f0     win32_handmade.obj
 0002:00000630       GS_ExceptionPointers       0000000140042630     LIBCMTD:gs_report.obj
 0002:000006a0       ?tokenTable@@3QBUStringLiteral@@B 00000001400426a0     libvcruntimed:undname.obj
 0002:000007b0       ?nameTable@@3QBUStringLiteral@@B 00000001400427b0     libvcruntimed:undname.obj
 0002:00000ce0       ?rttiTable@@3QBUStringLiteral@@B 0000000140042ce0     libvcruntimed:undname.obj
 0002:00000d30       ?IndirectionName@@3QBUStringLiteral@@B 0000000140042d30     libvcruntimed:undname.obj
 0002:00000d90       ?PrefixName@@3QBUStringLiteral@@B 0000000140042d90     libvcruntimed:undname.obj
 0002:00001480       ?module_names@?A0x14174aea@@3QBQEB_WB 0000000140043480     libvcruntimed:winapi_downlevel.obj
 0002:000016f0       ?candidate_modules@?1??try_get_FlsAlloc@@YAP6AKP6AXPEAX@Z@ZXZ@4QBW4module_id@?A0x14174aea@@B 00000001400436f0     libvcruntimed:winapi_downlevel.obj
 0002:00001708       ?candidate_modules@?1??try_get_FlsFree@@YAP6AHK@ZXZ@4QBW4module_id@?A0x14174aea@@B 0000000140043708     libvcruntimed:winapi_downlevel.obj
 0002:00001718       ?candidate_modules@?1??try_get_FlsGetValue@@YAP6APEAXK@ZXZ@4QBW4module_id@?A0x14174aea@@B 0000000140043718     libvcruntimed:winapi_downlevel.obj
 0002:00001730       ?candidate_modules@?1??try_get_FlsSetValue@@YAP6AHKPEAX@ZXZ@4QBW4module_id@?A0x14174aea@@B 0000000140043730     libvcruntimed:winapi_downlevel.obj
 0002:00001748       ?candidate_modules@?1??try_get_InitializeCriticalSectionEx@@YAP6AHPEAU_RTL_CRITICAL_SECTION@@KK@ZXZ@4QBW4module_id@?A0x14174aea@@B 0000000140043748     libvcruntimed:winapi_downlevel.obj
 0002:00001770       ?ExceptionTemplate@?1??UnwindNestedFrames@__FrameHandler3@@SAXPEA_KPEAUEHExceptionRecord@@PEAU_CONTEXT@@0PEAXPEBU_s_FuncInfo@@HHPEBU_s_HandlerType@@PEAU_xDISPATCHER_CONTEXT@@E@Z@4U_EXCEPTION_RECORD@@B 0000000140043770     libvcruntimed:risctrnsctrl.obj
 0002:00001e80       $cppxdata$??$common_configure_argv@D@@YAHW4_crt_argv_mode@@@Z 0000000140043e80     libucrtd:argv_parsing.obj
 0002:00002020       $cppxdata$??$uninitialize@A6AXAEAPEAPEAD@_E@?$dual_state_global@PEAPEAD@__crt_state_management@@QEAAXA6AXAEAPEAPEAD@_E@Z 0000000140044020     libucrtd:environment_initialization.obj
 0002:00002048       $cppxdata$??$uninitialize@A6AXAEAPEAPEA_W@_E@?$dual_state_global@PEAPEA_W@__crt_state_management@@QEAAXA6AXAEAPEAPEA_W@_E@Z 0000000140044048     libucrtd:environment_initialization.obj
 0002:000021f8       $cppxdata$?try_cor_exit_process@@YAXI@Z 00000001400441f8     libucrtd:exit.obj
 0002:00002220       $cppxdata$?common_exit@@YAXHW4_crt_exit_cleanup_mode@@W4_crt_exit_return_mode@@@Z 0000000140044220     libucrtd:exit.obj
 0002:00002248       $cppxdata$??$__acrt_lock_and_call@V<lambda_6e4b09c48022b2350581041d5f6b0c4c>@@@@YAXW4__acrt_lock_id@@$$QEAV<lambda_6e4b09c48022b2350581041d5f6b0c4c>@@@Z 0000000140044248     libucrtd:exit.obj
 0002:000024d0       $cppxdata$??$uninitialize@V<lambda_363eea9039da1e8169e2d060c7fe5cbc>@@@?$dual_state_global@PEAU__crt_locale_data@@@__crt_state_management@@QEAAX$$QEAV<lambda_363eea9039da1e8169e2d060c7fe5cbc>@@@Z 00000001400444d0     libucrtd:wsetlocale.obj
 0002:000024f8       $cppxdata$??$__acrt_lock_and_call@V<lambda_3e16ef9562a7dcce91392c22ab16ea36>@@@@YAXW4__acrt_lock_id@@$$QEAV<lambda_3e16ef9562a7dcce91392c22ab16ea36>@@@Z 00000001400444f8     libucrtd:wsetlocale.obj
 0002:000026d8       $cppxdata$??$__acrt_lock_and_call@V<lambda_208ce30acdd7200aa596f2796f4d5154>@@@@YAHW4__acrt_lock_id@@$$QEAV<lambda_208ce30acdd7200aa596f2796f4d5154>@@@Z 00000001400446d8     libucrtd:onexit.obj
 0002:00002700       $cppxdata$??R<lambda_d121dba8a4adeaf3a9819e48611155df>@@QEBA@XZ 0000000140044700     libucrtd:onexit.obj
 0002:00002728       $cppxdata$??$__acrt_lock_and_call@V<lambda_d121dba8a4adeaf3a9819e48611155df>@@@@YAHW4__acrt_lock_id@@$$QEAV<lambda_d121dba8a4adeaf3a9819e48611155df>@@@Z 0000000140044728     libucrtd:onexit.obj
 0002:00002790       __acrt_initializers        0000000140044790     libucrtd:initialization.obj
 0002:00002890       $cppxdata$??$uninitialize@V<lambda_af27fe6ede5d83bbdbd622796c194e9c>@@@?$dual_state_global@PEAU__crt_multibyte_data@@@__crt_state_management@@QEAAX$$QEAV<lambda_af27fe6ede5d83bbdbd622796c194e9c>@@@Z 0000000140044890     libucrtd:initialization.obj
 0002:000028b8       ?block_use_names@@3QBQEBDB 00000001400448b8     libucrtd:debug_heap.obj
 0002:00002908       $cppxdata$?realloc_dbg_nolock@@YAPEAXQEAXQEA_KHQEBDH_N@Z 0000000140044908     libucrtd:debug_heap.obj
 0002:00002930       $cppxdata$?free_dbg_nolock@@YAXQEAXH@Z 0000000140044930     libucrtd:debug_heap.obj
 0002:00002958       $cppxdata$?dump_all_object_since_nolock@@YAXQEBU_CrtMemState@@@Z 0000000140044958     libucrtd:debug_heap.obj
 0002:00003ba0       $cppxdata$??0?$output_adapter_data@DV?$string_output_adapter@D@__crt_stdio_output@@@__crt_stdio_output@@IEAA@AEBV?$string_output_adapter@D@1@_KQEBDAEAV__crt_cached_ptd_host@@QEAD@Z 0000000140045ba0     libucrtd:output.obj
 0002:00003bc8       $cppxdata$??0?$output_adapter_data@_WV?$string_output_adapter@_W@__crt_stdio_output@@@__crt_stdio_output@@IEAA@AEBV?$string_output_adapter@_W@1@_KQEB_WAEAV__crt_cached_ptd_host@@QEAD@Z 0000000140045bc8     libucrtd:output.obj
 0002:00003bf0       $cppxdata$?find_next_state@?$output_processor@DV?$string_output_adapter@D@__crt_stdio_output@@V?$format_validation_base@DV?$string_output_adapter@D@__crt_stdio_output@@@2@@__crt_stdio_output@@AEBA?AW4state@2@DW432@@Z 0000000140045bf0     libucrtd:output.obj
 0002:00003c18       $cppxdata$?find_next_state@?$output_processor@_WV?$string_output_adapter@_W@__crt_stdio_output@@V?$format_validation_base@_WV?$string_output_adapter@_W@__crt_stdio_output@@@2@@__crt_stdio_output@@AEBA?AW4state@2@_WW432@@Z 0000000140045c18     libucrtd:output.obj
 0002:00005c78       ?report_type_messages@@3QBQEB_WB 0000000140047c78     libucrtd:dbgrpt.obj
 0002:00005cd8       ?more_info_string@@3QEB_WEB 0000000140047cd8     libucrtd:dbgrpt.obj
 0002:00005fde       ?empty_string@?1???$common_message_window@D@@YAHHQEAXQEBD111@Z@4QBDB 0000000140047fde     libucrtd:dbgrpt.obj
 0002:00006258       ?empty_string@?1???$common_message_window@_W@@YAHHQEAXQEB_W111@Z@4QB_WB 0000000140048258     libucrtd:dbgrpt.obj
 0002:00006260       $cppxdata$?construct_ptd@@YAXQEAU__acrt_ptd@@QEAPEAU__crt_locale_data@@@Z 0000000140048260     libucrtd:per_thread_data.obj
 0002:00006288       $cppxdata$??$__acrt_lock_and_call@V<lambda_8d0ee55de4b1038c4002e0adecdf1839>@@@@YAXW4__acrt_lock_id@@$$QEAV<lambda_8d0ee55de4b1038c4002e0adecdf1839>@@@Z 0000000140048288     libucrtd:per_thread_data.obj
 0002:000062b0       $cppxdata$??$__acrt_lock_and_call@V<lambda_92619d2358a28f41a33ba319515a20b9>@@@@YAXW4__acrt_lock_id@@$$QEAV<lambda_92619d2358a28f41a33ba319515a20b9>@@@Z 00000001400482b0     libucrtd:per_thread_data.obj
 0002:000062d8       $cppxdata$?destroy_ptd@@YAXQEAU__acrt_ptd@@@Z 00000001400482d8     libucrtd:per_thread_data.obj
 0002:00006300       $cppxdata$??$__acrt_lock_and_call@V<lambda_e157831efee4ea0afb0a2ace5dd5fd0d>@@@@YAXW4__acrt_lock_id@@$$QEAV<lambda_e157831efee4ea0afb0a2ace5dd5fd0d>@@@Z 0000000140048300     libucrtd:per_thread_data.obj
 0002:00006328       $cppxdata$??$__acrt_lock_and_call@V<lambda_8f455de75cd7d7f24b4096f044d8b9e6>@@@@YAXW4__acrt_lock_id@@$$QEAV<lambda_8f455de75cd7d7f24b4096f044d8b9e6>@@@Z 0000000140048328     libucrtd:per_thread_data.obj
 0002:00006540       ?errtable@@3QBUerrentry@?A0x31fdb9ec@@B 0000000140048540     libucrtd:errno.obj
 0002:000066d0       $cppxdata$??1?$__crt_win32_buffer@DU__crt_win32_buffer_internal_dynamic_resizing@@@@QEAA@XZ 00000001400486d0     libucrtd:argv_wildcards.obj
 0002:000066d0       $cppxdata$??1?$__crt_win32_buffer@_WU__crt_win32_buffer_internal_dynamic_resizing@@@@QEAA@XZ 00000001400486d0     libucrtd:argv_wildcards.obj
 0002:000066f8       $cppxdata$??$tcspbrk@AEAPEADAEAY02$$CBD@?$__crt_char_traits@D@@SAPEADAEAPEADAEAY02$$CBD@Z 00000001400486f8     libucrtd:argv_wildcards.obj
 0002:00006720       $cppxdata$??$expand_argument_wildcards@D@@YAHQEAD0AEAV?$argument_list@D@?A0x5f5c8891@@@Z 0000000140048720     libucrtd:argv_wildcards.obj
 0002:00006b38       $cppxdata$??1?$__crt_win32_buffer@DU__crt_win32_buffer_no_resizing@@@@QEAA@XZ 0000000140048b38     libucrtd:getmodulefilenamea.obj
 0002:00006b60       ?_mb_locale_names@@3QBQEB_WB 0000000140048b60     libucrtd:mbctype.obj
 0002:00006bc0       $cppxdata$?setmbcp_internal@@YAHH_NQEAU__acrt_ptd@@QEAPEAU__crt_multibyte_data@@@Z 0000000140048bc0     libucrtd:mbctype.obj
 0002:00006be8       $cppxdata$??$__acrt_lock_and_call@V<lambda_bd5a608237428601b7e45fbdc72b1ae8>@@@@YAXW4__acrt_lock_id@@$$QEAV<lambda_bd5a608237428601b7e45fbdc72b1ae8>@@@Z 0000000140048be8     libucrtd:mbctype.obj
 0002:00007fb0       ?module_names@?A0x391cf84c@@3QBQEB_WB 0000000140049fb0     libucrtd:winapi_thunks.obj
 0002:00008584       ?candidate_modules@?1??try_get_AreFileApisANSI@@YAP6AHXZXZ@4QBW4module_id@?A0x391cf84c@@B 000000014004a584     libucrtd:winapi_thunks.obj
 0002:00008598       ?candidate_modules@?1??try_get_GetActiveWindow@@YAP6APEAUHWND__@@XZXZ@4QBW4module_id@?A0x391cf84c@@B 000000014004a598     libucrtd:winapi_thunks.obj
 0002:000085b0       ?candidate_modules@?1??try_get_GetLastActivePopup@@YAP6APEAUHWND__@@PEAU2@@ZXZ@4QBW4module_id@?A0x391cf84c@@B 000000014004a5b0     libucrtd:winapi_thunks.obj
 0002:000085d0       ?candidate_modules@?1??try_get_GetProcessWindowStation@@YAP6APEAUHWINSTA__@@XZXZ@4QBW4module_id@?A0x391cf84c@@B 000000014004a5d0     libucrtd:winapi_thunks.obj
 0002:000085f0       ?candidate_modules@?1??try_get_GetUserObjectInformationW@@YAP6AHPEAXH0KPEAK@ZXZ@4QBW4module_id@?A0x391cf84c@@B 000000014004a5f0     libucrtd:winapi_thunks.obj
 0002:00008618       ?candidate_modules@?1??try_get_InitializeCriticalSectionEx@@YAP6AHPEAU_RTL_CRITICAL_SECTION@@KK@ZXZ@4QBW4module_id@?A0x391cf84c@@B 000000014004a618     libucrtd:winapi_thunks.obj
 0002:00008620       ?candidate_modules@?1??try_get_LCMapStringEx@@YAP6AHPEB_WK0HPEA_WHPEAU_nlsversioninfo@@PEAX_J@ZXZ@4QBW4module_id@?A0x391cf84c@@B 000000014004a620     libucrtd:winapi_thunks.obj
 0002:00008638       ?candidate_modules@?1??try_get_LocaleNameToLCID@@YAP6AKPEB_WK@ZXZ@4QBW4module_id@?A0x391cf84c@@B 000000014004a638     libucrtd:winapi_thunks.obj
 0002:00008658       ?candidate_modules@?1??try_get_MessageBoxA@@YAP6AHPEAUHWND__@@PEBD1I@ZXZ@4QBW4module_id@?A0x391cf84c@@B 000000014004a658     libucrtd:winapi_thunks.obj
 0002:00008670       ?candidate_modules@?1??try_get_MessageBoxW@@YAP6AHPEAUHWND__@@PEB_W1I@ZXZ@4QBW4module_id@?A0x391cf84c@@B 000000014004a670     libucrtd:winapi_thunks.obj
 0002:00008684       ?candidate_modules@?1??try_get_AppPolicyGetProcessTerminationMethod@@YAP6AJPEAXPEAW4AppPolicyProcessTerminationMethod@@@ZXZ@4QBW4module_id@?A0x391cf84c@@B 000000014004a684     libucrtd:winapi_thunks.obj
 0002:000086b0       ?candidate_modules@?1??try_get_AppPolicyGetShowDeveloperDiagnostic@@YAP6AJPEAXPEAW4AppPolicyShowDeveloperDiagnostic@@@ZXZ@4QBW4module_id@?A0x391cf84c@@B 000000014004a6b0     libucrtd:winapi_thunks.obj
 0002:000086dc       ?candidate_modules@?1??try_get_AppPolicyGetWindowingModel@@YAP6AJPEAXPEAW4AppPolicyWindowingModel@@@ZXZ@4QBW4module_id@?A0x391cf84c@@B 000000014004a6dc     libucrtd:winapi_thunks.obj
 0002:00008700       $cppxdata$??$__acrt_lock_and_call@V<lambda_44731a7d0e6d81c3e6aa82d741081786>@@@@YAP6AXH@ZW4__acrt_lock_id@@$$QEAV<lambda_44731a7d0e6d81c3e6aa82d741081786>@@@Z 000000014004a700     libucrtd:signal.obj
 0002:000088d0       ?strings@?1??fp_format_nan_or_infinity@@YAHW4__acrt_fp_class@@_NPEAD_K1@Z@4QAY03QEBDA 000000014004a8d0     libucrtd:cvt.obj
 0002:0000a148       $cppxdata$?shortsort@@YAXPEAD0_KP6AHPEBX2@Z@Z 000000014004c148     libucrtd:qsort.obj
 0002:0000a530       ?LcidToLocaleNameTable@?A0x881e4c05@@3QBULcidToLocaleName@1@B 000000014004c530     libucrtd:lcidtoname_downlevel.obj
 0002:0000bf80       ?LocaleNameToIndexTable@?A0x881e4c05@@3QBULocaleNameIndex@1@B 000000014004df80     libucrtd:lcidtoname_downlevel.obj
 0002:0000d890       $cppxdata$?common_flush_all@@YAH_N@Z 000000014004f890     libucrtd:fflush.obj
 0002:0000d8b8       $cppxdata$??$__acrt_lock_stream_and_call@V<lambda_c5860995281e5c4ce005b3de8f5874ee>@@@@YAXQEAU_iobuf@@$$QEAV<lambda_c5860995281e5c4ce005b3de8f5874ee>@@@Z 000000014004f8b8     libucrtd:fflush.obj
 0002:0000d8e0       $cppxdata$??$__acrt_lock_and_call@V<lambda_ab61a845afdef5b7c387490eaf3616ee>@@@@YAXW4__acrt_lock_id@@$$QEAV<lambda_ab61a845afdef5b7c387490eaf3616ee>@@@Z 000000014004f8e0     libucrtd:fflush.obj
 0002:0000ea68       $cppxdata$?_mbstowcs_l_helper@@YA_KPEA_WPEBD_KAEAV__crt_cached_ptd_host@@@Z 0000000140050a68     libucrtd:mbstowcs.obj
 0002:0000ee10       $cppxdata$??$__acrt_lowio_lock_fh_and_call@V<lambda_3e4146214822e0ea86c47ff907aef2ff>@@@@YAHH$$QEAV<lambda_3e4146214822e0ea86c47ff907aef2ff>@@@Z 0000000140050e10     libucrtd:commit.obj
 0002:0000eeb0       $cppxdata$?write_double_translated_ansi_nolock@@YA?AUwrite_result@?A0x17268360@@HQEBDIAEAV__crt_cached_ptd_host@@@Z 0000000140050eb0     libucrtd:write.obj
 0002:0000f160       __real_ninf                0000000140051160     libucrtd:log10.obj
 0002:0000f170       __real_inf                 0000000140051170     libucrtd:log10.obj
 0002:0000f180       __real_neg_qnan            0000000140051180     libucrtd:log10.obj
 0002:0000f190       __real_qnanbit             0000000140051190     libucrtd:log10.obj
 0002:0000f1a0       __int_1023                 00000001400511a0     libucrtd:log10.obj
 0002:0000f1b0       __mask_001                 00000001400511b0     libucrtd:log10.obj
 0002:0000f1c0       __mask_mant                00000001400511c0     libucrtd:log10.obj
 0002:0000f1d0       __mask_mant_top8           00000001400511d0     libucrtd:log10.obj
 0002:0000f1e0       __mask_mant9               00000001400511e0     libucrtd:log10.obj
 0002:0000f1f0       __real_log10_e             00000001400511f0     libucrtd:log10.obj
 0002:0000f200       __real_log10_e_lead        0000000140051200     libucrtd:log10.obj
 0002:0000f210       __real_log10_e_tail        0000000140051210     libucrtd:log10.obj
 0002:0000f220       __real_log10_2_lead        0000000140051220     libucrtd:log10.obj
 0002:0000f230       __real_log10_2_tail        0000000140051230     libucrtd:log10.obj
 0002:0000f240       __real_two                 0000000140051240     libucrtd:log10.obj
 0002:0000f250       __real_one                 0000000140051250     libucrtd:log10.obj
 0002:0000f260       __real_half                0000000140051260     libucrtd:log10.obj
 0002:0000f270       __mask_100                 0000000140051270     libucrtd:log10.obj
 0002:0000f280       __real_1_over_512          0000000140051280     libucrtd:log10.obj
 0002:0000f290       __real_1_over_2            0000000140051290     libucrtd:log10.obj
 0002:0000f2a0       __real_1_over_3            00000001400512a0     libucrtd:log10.obj
 0002:0000f2b0       __real_1_over_4            00000001400512b0     libucrtd:log10.obj
 0002:0000f2c0       __real_1_over_5            00000001400512c0     libucrtd:log10.obj
 0002:0000f2d0       __real_1_over_6            00000001400512d0     libucrtd:log10.obj
 0002:0000f2e0       __real_neg_1023            00000001400512e0     libucrtd:log10.obj
 0002:0000f2f0       __mask_2045                00000001400512f0     libucrtd:log10.obj
 0002:0000f300       __real_threshold           0000000140051300     libucrtd:log10.obj
 0002:0000f310       __real_near_one_lt         0000000140051310     libucrtd:log10.obj
 0002:0000f320       __real_near_one_gt         0000000140051320     libucrtd:log10.obj
 0002:0000f330       __real_min_norm            0000000140051330     libucrtd:log10.obj
 0002:0000f340       __real_notsign             0000000140051340     libucrtd:log10.obj
 0002:0000f350       __real_ca1                 0000000140051350     libucrtd:log10.obj
 0002:0000f360       __real_ca2                 0000000140051360     libucrtd:log10.obj
 0002:0000f370       __real_ca3                 0000000140051370     libucrtd:log10.obj
 0002:0000f380       __real_ca4                 0000000140051380     libucrtd:log10.obj
 0002:0000f390       __mask_lower               0000000140051390     libucrtd:log10.obj
 0002:0000f3a0       __flag_x_zero              00000001400513a0     libucrtd:log10.obj
 0002:0000f3a4       __flag_x_neg               00000001400513a4     libucrtd:log10.obj
 0002:0000f3a8       __flag_x_nan               00000001400513a8     libucrtd:log10.obj
 0002:00010ec8       $cppxdata$??$__acrt_lowio_lock_fh_and_call@V<lambda_af29824b49a67d335554598d6cad2be6>@@@@YAHH$$QEAV<lambda_af29824b49a67d335554598d6cad2be6>@@@Z 0000000140052ec8     libucrtd:close.obj
 0002:00010f70       $cppxdata$??$console_output_reopen_and_retry@V<lambda_61c1b8a38cedca4df5fdc542e6ccae6d>@@@@YAHAEBV<lambda_61c1b8a38cedca4df5fdc542e6ccae6d>@@@Z 0000000140052f70     libucrtd:initcon.obj
 0002:00010fb0       __real@433fffffffffffff    0000000140052fb0     libucrtd:fpsr.obj
 0002:00010fb8       __real@c33fffffffffffff    0000000140052fb8     libucrtd:fpsr.obj
 0002:00011180       MoveSmall                  0000000140053180     libvcruntimed:memcpy.obj
 0002:000111c0       MoveSmallYmm               00000001400531c0     libvcruntimed:memcpy.obj
 0002:000111e4       MoveSmallYmmNT             00000001400531e4     libvcruntimed:memcpy.obj
 0002:00011208       MoveSmallXmm               0000000140053208     libvcruntimed:memcpy.obj
 0002:00011230       SetSmall                   0000000140053230     libvcruntimed:memset.obj
 0002:00011270       SetSmallYmm                0000000140053270     libvcruntimed:memset.obj
 0002:00011294       SetSmallYmmNT              0000000140053294     libvcruntimed:memset.obj
 0002:000112b8       SetSmallXmm                00000001400532b8     libvcruntimed:memset.obj
 0002:00011bb8       $unwind$SafeTruncateUInt64 0000000140053bb8     win32_handmade.obj
 0002:00011bb8       $unwind$?detach@?$__crt_unique_heap_ptr@DU__crt_internal_free_policy@@@@QEAAPEADXZ 0000000140053bb8     libucrtd:environment_initialization.obj
 0002:00011bb8       $unwind$?is_valid@?$__crt_unique_heap_ptr@PEADU__crt_internal_free_policy@@@@QEBA_NXZ 0000000140053bb8     libucrtd:environment_initialization.obj
 0002:00011bb8       $unwind$?has_surrogate@?A0xc60ee810@@YA_NPEAU_Mbstatet@@@Z 0000000140053bb8     libucrtd:c16rtomb.obj
 0002:00011bb8       $unwind$?is_first_surrogate@?A0xc60ee810@@YA_N_S@Z 0000000140053bb8     libucrtd:c16rtomb.obj
 0002:00011bb8       $unwind$?is_second_surrogate@?A0xc60ee810@@YA_N_S@Z 0000000140053bb8     libucrtd:c16rtomb.obj
 0002:00011bb8       $unwind$?is_zero@__crt_strtox@@YA_NAEBUbig_integer@1@@Z 0000000140053bb8     libucrtd:cfout.obj
 0002:00011bb8       $unwind$?__acrt_fp_classify@@YA?AW4__acrt_fp_class@@AEBN@Z 0000000140053bb8     libucrtd:cvt.obj
 0002:00011bb8       $unwind$?__acrt_fp_is_negative@@YA_NAEBN@Z 0000000140053bb8     libucrtd:cvt.obj
 0002:00011bb8       $unwind$_CrtSetDumpClient  0000000140053bb8     libucrtd:debug_heap.obj
 0002:00011bb8       $unwind$__acrt_get_locale_data_prefix 0000000140053bb8     libucrtd:debug_heap.obj
 0002:00011bb8       $unwind$?detach@?$__crt_unique_heap_ptr@U__acrt_ptd@@U__crt_internal_free_policy@@@@QEAAPEAU__acrt_ptd@@XZ 0000000140053bb8     libucrtd:per_thread_data.obj
 0002:00011bb8       $unwind$?is_valid@?$__crt_unique_heap_ptr@U__acrt_ptd@@U__crt_internal_free_policy@@@@QEBA_NXZ 0000000140053bb8     libucrtd:per_thread_data.obj
 0002:00011bb8       $unwind$_MallocaComputeSize 0000000140053bb8     libucrtd:getstringtypea.obj
 0002:00011bb8       $unwind$??B?$__crt_scoped_stack_ptr@_W@@QEBA_NXZ 0000000140053bb8     libucrtd:lcmapstringa.obj
 0002:00011bb8       $unwind$?detach@?$__crt_unique_heap_ptr@U__crt_multibyte_data@@U__crt_internal_free_policy@@@@QEAAPEAU__crt_multibyte_data@@XZ 0000000140053bb8     libucrtd:wsetlocale.obj
 0002:00011bb8       $unwind$?is_valid@?$__crt_unique_heap_ptr@U__crt_multibyte_data@@U__crt_internal_free_policy@@@@QEBA_NXZ 0000000140053bb8     libucrtd:wsetlocale.obj
 0002:00011bb8       $unwind$?detach@?$__crt_unique_heap_ptr@U__crt_lowio_handle_data@@U__crt_internal_free_policy@@@@QEAAPEAU__crt_lowio_handle_data@@XZ 0000000140053bb8     libucrtd:osfinfo.obj
 0002:00011bb8       $unwind$?is_valid@?$__crt_unique_heap_ptr@U__crt_lowio_handle_data@@U__crt_internal_free_policy@@@@QEBA_NXZ 0000000140053bb8     libucrtd:osfinfo.obj
 0002:00011bb8       $unwind$?setSBCS@@YAXPEAU__crt_multibyte_data@@@Z 0000000140053bb8     libucrtd:mbctype.obj
 0002:00011bb8       $unwind$__acrt_should_sync_with_global_locale 0000000140053bb8     libucrtd:mbctype.obj
 0002:00011bb8       $unwind$?detach@?$__crt_unique_heap_ptr@EU__crt_internal_free_policy@@@@QEAAPEAEXZ 0000000140053bb8     libucrtd:argv_parsing.obj
 0002:00011bb8       $unwind$?detach@?$__crt_unique_heap_ptr@PEADU__crt_internal_free_policy@@@@QEAAPEAPEADXZ 0000000140053bb8     libucrtd:argv_parsing.obj
 0002:00011bb8       $unwind$?is_valid@?$__crt_unique_heap_ptr@EU__crt_internal_free_policy@@@@QEBA_NXZ 0000000140053bb8     libucrtd:argv_parsing.obj
 0002:00011bb8       $unwind$?__crt_fast_encode_pointer@@YA?AU__crt_fast_encoded_nullptr_t@@$$T@Z 0000000140053bb8     libucrtd:exit.obj
 0002:00011bb8       $unwind$?__crt_interlocked_read_32@@YAHPEDH@Z 0000000140053bb8     libucrtd:exit.obj
 0002:00011bb8       $unwind$?detach@?$__crt_unique_heap_ptr@P6AXXZU__crt_internal_free_policy@@@@QEAAPEAP6AXXZXZ 0000000140053bb8     libucrtd:onexit.obj
 0002:00011bb8       $unwind$?detach@?$__crt_unique_heap_ptr@PEAU__crt_stdio_stream_data@@U__crt_internal_free_policy@@@@QEAAPEAPEAU__crt_stdio_stream_data@@XZ 0000000140053bb8     libucrtd:_file.obj
 0002:00011bb8       $unwind$??$read_va_arg@C@__crt_stdio_output@@YACAEAPEAD@Z 0000000140053bb8     libucrtd:output.obj
 0002:00011bb8       $unwind$??$read_va_arg@E@__crt_stdio_output@@YAEAEAPEAD@Z 0000000140053bb8     libucrtd:output.obj
 0002:00011bb8       $unwind$??$read_va_arg@F@__crt_stdio_output@@YAFAEAPEAD@Z 0000000140053bb8     libucrtd:output.obj
 0002:00011bb8       $unwind$??$read_va_arg@G@__crt_stdio_output@@YAGAEAPEAD@Z 0000000140053bb8     libucrtd:output.obj
 0002:00011bb8       $unwind$??$read_va_arg@H@__crt_stdio_output@@YAHAEAPEAD@Z 0000000140053bb8     libucrtd:output.obj
 0002:00011bb8       $unwind$??$read_va_arg@I@__crt_stdio_output@@YAIAEAPEAD@Z 0000000140053bb8     libucrtd:output.obj
 0002:00011bb8       $unwind$??$read_va_arg@PEAD@__crt_stdio_output@@YAPEADAEAPEAD@Z 0000000140053bb8     libucrtd:output.obj
 0002:00011bb8       $unwind$??$read_va_arg@PEAUansi_string@?1??type_case_Z@?$output_processor@DV?$string_output_adapter@D@__crt_stdio_output@@V?$format_validation_base@DV?$string_output_adapter@D@__crt_stdio_output@@@2@@__crt_stdio_output@@AEAA_NXZ@@__crt_stdio_output@@YAPEAUansi_string@?1??type_case_Z@?$output_processor@DV?$string_output_adapter@D@__crt_stdio_output@@V?$format_validation_base@DV?$string_output_adapter@D@__crt_stdio_output@@@2@@0@AEAA_NXZ@AEAPEAD@Z 0000000140053bb8     libucrtd:output.obj
 0002:00011bb8       $unwind$??$read_va_arg@PEAUansi_string@?1??type_case_Z@?$output_processor@_WV?$string_output_adapter@_W@__crt_stdio_output@@V?$format_validation_base@_WV?$string_output_adapter@_W@__crt_stdio_output@@@2@@__crt_stdio_output@@AEAA_NXZ@@__crt_stdio_output@@YAPEAUansi_string@?1??type_case_Z@?$output_processor@_WV?$string_output_adapter@_W@__crt_stdio_output@@V?$format_validation_base@_WV?$string_output_adapter@_W@__crt_stdio_output@@@2@@0@AEAA_NXZ@AEAPEAD@Z 0000000140053bb8     libucrtd:output.obj
 0002:00011bb8       $unwind$??$read_va_arg@PEAX@__crt_stdio_output@@YAPEAXAEAPEAD@Z 0000000140053bb8     libucrtd:output.obj
 0002:00011bb8       $unwind$??$read_va_arg@U_CRT_DOUBLE@@@__crt_stdio_output@@YA?AU_CRT_DOUBLE@@AEAPEAD@Z 0000000140053bb8     libucrtd:output.obj
 0002:00011bb8       $unwind$??$read_va_arg@_J@__crt_stdio_output@@YA_JAEAPEAD@Z 0000000140053bb8     libucrtd:output.obj
 0002:00011bb8       $unwind$??$read_va_arg@_K@__crt_stdio_output@@YA_KAEAPEAD@Z 0000000140053bb8     libucrtd:output.obj
 0002:00011bb8       $unwind$??$read_va_arg@_W@__crt_stdio_output@@YA_WAEAPEAD@Z 0000000140053bb8     libucrtd:output.obj
 0002:00011bb8       $unwind$?advance_to_next_pass@?$standard_base@DV?$string_output_adapter@D@__crt_stdio_output@@@__crt_stdio_output@@IEAA_NXZ 0000000140053bb8     libucrtd:output.obj
 0002:00011bb8       $unwind$?advance_to_next_pass@?$standard_base@_WV?$string_output_adapter@_W@__crt_stdio_output@@@__crt_stdio_output@@IEAA_NXZ 0000000140053bb8     libucrtd:output.obj
 0002:00011bb8       $unwind$?get@?$c_string_character_source@D@__crt_strtox@@QEAADXZ 0000000140053bb8     libucrtd:output.obj
 0002:00011bb8       $unwind$?get@?$c_string_character_source@_W@__crt_strtox@@QEAA_WXZ 0000000140053bb8     libucrtd:output.obj
 0002:00011bb8       $unwind$?valid@__crt_stdio_stream@@QEBA_NXZ 0000000140053bb8     libucrtd:output.obj
 0002:00011bb8       $unwind$_handle_nan        0000000140053bb8     libucrtd:libm_error.obj
 0002:00011bb8       $unwind$ReadNoFence64      0000000140053bb8     LIBCMTD:guard_support.obj
 0002:00011bb8       $unwind$?isEHs@__FrameHandler3@@SA_NPEBU_s_FuncInfo@@@Z 0000000140053bb8     libvcruntimed:frame.obj
 0002:00011bb8       $unwind$?isNoExcept@__FrameHandler3@@SA_NPEBU_s_FuncInfo@@@Z 0000000140053bb8     libvcruntimed:frame.obj
 0002:00011bb8       $unwind$?what@exception@std@@UEBAPEBDXZ 0000000140053bb8     libvcruntimed:frame.obj
 0002:00011bb8       $unwind$?detach@?$__crt_unique_heap_ptr@U__vcrt_ptd@@U__crt_internal_free_policy@@@@QEAAPEAU__vcrt_ptd@@XZ 0000000140053bb8     libvcruntimed:per_thread_data.obj
 0002:00011bb8       $unwind$?is_valid@?$__crt_unique_heap_ptr@U__vcrt_ptd@@U__crt_internal_free_policy@@@@QEBA_NXZ 0000000140053bb8     libvcruntimed:per_thread_data.obj
 0002:00011bb8       $unwind$?detach@?$__crt_unique_heap_ptr@DU__crt_public_free_policy@@@@QEAAPEADXZ 0000000140053bb8     libvcruntimed:std_exception.obj
 0002:00011bb8       $unwind$?is_valid@?$__crt_unique_heap_ptr@DU__crt_public_free_policy@@@@QEBA_NXZ 0000000140053bb8     libvcruntimed:std_exception.obj
 0002:00011bb8       $unwind$?__crt_interlocked_read_64@@YA_JPED_J@Z 0000000140053bb8     libvcruntimed:std_type_info.obj
 0002:00011bb8       $unwind$?is_valid@?$__crt_unique_heap_ptr@DU__crt_internal_free_policy@@@@QEBA_NXZ 0000000140053bb8     libvcruntimed:std_type_info.obj
 0002:00011bc0       $unwind$GetController      0000000140053bc0     win32_handmade.obj
 0002:00011bc0       $unwind$?siglookup@@YAPEAU__crt_signal_action_t@@HQEAU1@@Z 0000000140053bc0     libucrtd:signal.obj
 0002:00011bc0       $unwind$??R<lambda_cfae5a0e6efa98e0d1aa03c4cec8f74e>@@QEBA@D@Z 0000000140053bc0     libucrtd:argv_wildcards.obj
 0002:00011bc0       $unwind$?set_flags@__crt_stdio_stream@@QEBA_NJ@Z 0000000140053bc0     libucrtd:_sftbuf.obj
 0002:00011bc0       $unwind$?unset_flags@__crt_stdio_stream@@QEBA_NJ@Z 0000000140053bc0     libucrtd:_sftbuf.obj
 0002:00011bc0       $unwind$?check@?$cached@H@__crt_cached_ptd_host@@QEBA_NH@Z 0000000140053bc0     libucrtd:output.obj
 0002:00011bc0       $unwind$?has_flag@?$output_processor@DV?$string_output_adapter@D@__crt_stdio_output@@V?$format_validation_base@DV?$string_output_adapter@D@__crt_stdio_output@@@2@@__crt_stdio_output@@AEBA_NI@Z 0000000140053bc0     libucrtd:output.obj
 0002:00011bc0       $unwind$?has_flag@?$output_processor@_WV?$string_output_adapter@_W@__crt_stdio_output@@V?$format_validation_base@_WV?$string_output_adapter@_W@__crt_stdio_output@@@2@@__crt_stdio_output@@AEBA_NI@Z 0000000140053bc0     libucrtd:output.obj
 0002:00011bc8       $unwind$WinMain            0000000140053bc8     win32_handmade.obj
 0002:00011bdc       $unwind$?CatStrings@@YAX_KPEAD0101@Z 0000000140053bdc     win32_handmade.obj
 0002:00011be4       $unwind$?Win32GetEXEFileName@@YAXPEAUwin32_state@@@Z 0000000140053be4     win32_handmade.obj
 0002:00011bec       $unwind$?StringLength@@YAHPEAD@Z 0000000140053bec     win32_handmade.obj
 0002:00011bf4       $unwind$?Win32BuildEXEPathFileName@@YAXPEAUwin32_state@@PEADH1@Z 0000000140053bf4     win32_handmade.obj
 0002:00011bfc       $unwind$?DEBUGPlatformFreeFileMemory@@YAXPEAUthread_context@@PEAX@Z 0000000140053bfc     win32_handmade.obj
 0002:00011c04       $unwind$?DEBUGPlatformReadEntireFile@@YA?AUdebug_read_file_result@@PEAUthread_context@@PEAD@Z 0000000140053c04     win32_handmade.obj
 0002:00011c10       $unwind$?DEBUGPlatformWriteEntireFile@@YAHPEAUthread_context@@PEADIPEAX@Z 0000000140053c10     win32_handmade.obj
 0002:00011c18       $unwind$?Win32LoadGameCode@@YA?AUwin32_game_code@@PEAD00@Z 0000000140053c18     win32_handmade.obj
 0002:00011c2c       $unwind$?Win32UnloadGameCode@@YAXPEAUwin32_game_code@@@Z 0000000140053c2c     win32_handmade.obj
 0002:00011c34       $unwind$?Win32LoadXInput@@YAXXZ 0000000140053c34     win32_handmade.obj
 0002:00011c3c       $unwind$?Win32InitDSound@@YAXPEAUHWND__@@HH@Z 0000000140053c3c     win32_handmade.obj
 0002:00011c50       $unwind$?Win32GetWindowDimension@@YA?AUwin32_window_dimension@@PEAUHWND__@@@Z 0000000140053c50     win32_handmade.obj
 0002:00011c60       $unwind$?Win32ResizeDIBSection@@YAXPEAUwin32_offscreen_buffer@@HH@Z 0000000140053c60     win32_handmade.obj
 0002:00011c68       $unwind$?Win32DisplayBufferInWindow@@YAXPEAUwin32_offscreen_buffer@@PEAUHDC__@@HH@Z 0000000140053c68     win32_handmade.obj
 0002:00011c70       $unwind$?Win32MainWindowCallback@@YA_JPEAUHWND__@@I_K_J@Z 0000000140053c70     win32_handmade.obj
 0002:00011c80       $unwind$?Win32ClearBuffer@@YAXPEAUwin32_sound_output@@@Z 0000000140053c80     win32_handmade.obj
 0002:00011c88       $unwind$?Win32FillSoundBuffer@@YAXPEAUwin32_sound_output@@KKPEAUgame_sound_output_buffer@@@Z 0000000140053c88     win32_handmade.obj
 0002:00011c90       $unwind$?Win32ProcessXInputDigitalButton@@YAXKPEAUgame_button_state@@K0@Z 0000000140053c90     win32_handmade.obj
 0002:00011c98       $unwind$?Win32ProcessXInputStickValue@@YAMFF@Z 0000000140053c98     win32_handmade.obj
 0002:00011ca0       $unwind$?Win32GetInputFileLocation@@YAXPEAUwin32_state@@HHHPEAD@Z 0000000140053ca0     win32_handmade.obj
 0002:00011cb0       $unwind$?Win32GetReplayBuffer@@YAPEAUwin32_replay_buffer@@PEAUwin32_state@@I@Z 0000000140053cb0     win32_handmade.obj
 0002:00011cb8       $unwind$?Win32BeginRecordingInput@@YAXPEAUwin32_state@@H@Z 0000000140053cb8     win32_handmade.obj
 0002:00011ccc       $unwind$?Win32EndRecordingInput@@YAXPEAUwin32_state@@@Z 0000000140053ccc     win32_handmade.obj
 0002:00011cd4       $unwind$?Win32BeginInputPlayBack@@YAXPEAUwin32_state@@H@Z 0000000140053cd4     win32_handmade.obj
 0002:00011ce8       $unwind$?Win32EndInputPlayBack@@YAXPEAUwin32_state@@@Z 0000000140053ce8     win32_handmade.obj
 0002:00011cf0       $unwind$?Win32RecordInput@@YAXPEAUwin32_state@@PEAUgame_input@@@Z 0000000140053cf0     win32_handmade.obj
 0002:00011cf8       $unwind$?Win32PlayBackInput@@YAXPEAUwin32_state@@PEAUgame_input@@@Z 0000000140053cf8     win32_handmade.obj
 0002:00011d00       $unwind$?Win32ProcessPendingMessages@@YAXPEAUwin32_state@@PEAUgame_controller_input@@@Z 0000000140053d00     win32_handmade.obj
 0002:00011d08       $unwind$?Win32GetLastWriteTime@@YA?AU_FILETIME@@PEAD@Z 0000000140053d08     win32_handmade.obj
 0002:00011d18       $unwind$?Win32GetWallClock@@YA?AT_LARGE_INTEGER@@XZ 0000000140053d18     win32_handmade.obj
 0002:00011d18       $unwind$?initialize_multibyte@@YAHXZ 0000000140053d18     libucrtd:multibyte_initializer.obj
 0002:00011d18       $unwind$initialize_pointers 0000000140053d18     libucrtd:initialization.obj
 0002:00011d18       $unwind$__acrt_initialize_locks 0000000140053d18     libucrtd:locks.obj
 0002:00011d18       $unwind$__acrt_app_verifier_enabled 0000000140053d18     libucrtd:peb_access.obj
 0002:00011d18       $unwind$__acrt_is_secure_process 0000000140053d18     libucrtd:peb_access.obj
 0002:00011d18       $unwind$?internal_getptd_noexit@@YAPEAU__acrt_ptd@@XZ 0000000140053d18     libucrtd:per_thread_data.obj
 0002:00011d18       $unwind$?try_get_ptd_head@@YAPEAU__acrt_ptd@@XZ 0000000140053d18     libucrtd:per_thread_data.obj
 0002:00011d18       $unwind$__acrt_getptd      0000000140053d18     libucrtd:per_thread_data.obj
 0002:00011d18       $unwind$__acrt_getptd_head 0000000140053d18     libucrtd:per_thread_data.obj
 0002:00011d18       $unwind$?should_write_error_to_console@@YA_NXZ 0000000140053d18     libucrtd:report_runtime_error.obj
 0002:00011d18       $unwind$__acrt_AreFileApisANSI 0000000140053d18     libucrtd:winapi_thunks.obj
 0002:00011d18       $unwind$__acrt_can_show_message_box 0000000140053d18     libucrtd:winapi_thunks.obj
 0002:00011d18       $unwind$__acrt_initialize_multibyte 0000000140053d18     libucrtd:mbctype.obj
 0002:00011d18       $unwind$__acrt_update_thread_multibyte_data 0000000140053d18     libucrtd:mbctype.obj
 0002:00011d18       $unwind$__doserrno         0000000140053d18     libucrtd:errno.obj
 0002:00011d18       $unwind$_errno             0000000140053d18     libucrtd:errno.obj
 0002:00011d18       $unwind$_invalid_parameter_noinfo 0000000140053d18     libucrtd:invalid_parameter.obj
 0002:00011d18       $unwind$abort              0000000140053d18     libucrtd:abort.obj
 0002:00011d18       $unwind$?is_managed_app@@YA_NXZ 0000000140053d18     libucrtd:exit.obj
 0002:00011d18       $unwind$__acrt_uninitialize_stdio 0000000140053d18     libucrtd:_file.obj
 0002:00011d18       $unwind$_clrfp             0000000140053d18     libucrtd:fpctrl.obj
 0002:00011d18       $unwind$_statfp            0000000140053d18     libucrtd:fpctrl.obj
 0002:00011d18       $unwind$_clearfp           0000000140053d18     libucrtd:ieee.obj
 0002:00011d18       $unwind$?get_machine_sse_control@@YA?AW4__acrt_fenv_machine_sse_control@@XZ 0000000140053d18     libucrtd:_fenvutils.obj
 0002:00011d18       $unwind$?get_machine_sse_status@@YA?AW4__acrt_fenv_machine_sse_status@@XZ 0000000140053d18     libucrtd:_fenvutils.obj
 0002:00011d18       $unwind$__acrt_fenv_get_control 0000000140053d18     libucrtd:_fenvutils.obj
 0002:00011d18       $unwind$__acrt_fenv_get_status 0000000140053d18     libucrtd:_fenvutils.obj
 0002:00011d18       $unwind$__acrt_has_user_matherr 0000000140053d18     libucrtd:matherr.obj
 0002:00011d18       $unwind$__scrt_initialize_default_local_stdio_options 0000000140053d18     LIBCMTD:default_local_stdio_options.obj
 0002:00011d18       $unwind$?invoke_main@@YAHXZ 0000000140053d18     LIBCMTD:exe_winmain.obj
 0002:00011d18       $unwind$?set_commode@__scrt_file_policy@@SAXXZ 0000000140053d18     LIBCMTD:exe_winmain.obj
 0002:00011d18       $unwind$__security_init_cookie 0000000140053d18     LIBCMTD:gs_support.obj
 0002:00011d18       $unwind$_guard_icall_checks_enforced 0000000140053d18     LIBCMTD:guard_support.obj
 0002:00011d18       $unwind$__scrt_is_managed_app 0000000140053d18     LIBCMTD:utility_desktop.obj
 0002:00011d18       $unwind$__vcrt_initialize_locks 0000000140053d18     libvcruntimed:locks.obj
 0002:00011d18       $unwind$__vcrt_uninitialize_locks 0000000140053d18     libvcruntimed:locks.obj
 0002:00011d18       $unwind$__vcrt_getptd      0000000140053d18     libvcruntimed:per_thread_data.obj
 0002:00011d20       $unwind$?Win32GetSecondsElapsed@@YAMT_LARGE_INTEGER@@0@Z 0000000140053d20     win32_handmade.obj
 0002:00011d20       $unwind$?initialize@?$dual_state_global@PEAPEAD@__crt_state_management@@QEAAXQEAPEAD@Z 0000000140053d20     libucrtd:environment_initialization.obj
 0002:00011d20       $unwind$?store_first_surrogate@?A0xc60ee810@@YAX_SPEAU_Mbstatet@@@Z 0000000140053d20     libucrtd:c16rtomb.obj
 0002:00011d20       $unwind$??8__crt_strtox@@YA_NAEBUbig_integer@0@0@Z 0000000140053d20     libucrtd:cfout.obj
 0002:00011d20       $unwind$?wcsncnt@@YA_KPEB_W_K@Z 0000000140053d20     libucrtd:wcstombs.obj
 0002:00011d20       $unwind$?initialize@?$dual_state_global@P6AH_K@Z@__crt_state_management@@QEAAXQ6AH_K@Z@Z 0000000140053d20     libucrtd:new_handler.obj
 0002:00011d20       $unwind$?initialize@?$dual_state_global@PEAU__crt_locale_data@@@__crt_state_management@@QEAAXQEAU__crt_locale_data@@@Z 0000000140053d20     libucrtd:initialization.obj
 0002:00011d20       $unwind$?initialize@?$dual_state_global@PEAU__crt_multibyte_data@@@__crt_state_management@@QEAAXQEAU__crt_multibyte_data@@@Z 0000000140053d20     libucrtd:mbctype.obj
 0002:00011d20       $unwind$?initialize@?$dual_state_global@P6AXH@Z@__crt_state_management@@QEAAXQ6AXH@Z@Z 0000000140053d20     libucrtd:signal.obj
 0002:00011d20       $unwind$__strncnt          0000000140053d20     libucrtd:strncnt.obj
 0002:00011d20       $unwind$??$last_reached@$0A@@@YA_NQEBX0@Z 0000000140053d20     libucrtd:strnlen.obj
 0002:00011d20       $unwind$?compare_equals@?$__crt_simd_traits@$0A@E@@SA?AT__m128i@@T2@0@Z 0000000140053d20     libucrtd:strnlen.obj
 0002:00011d20       $unwind$?compare_equals@?$__crt_simd_traits@$0A@G@@SA?AT__m128i@@T2@0@Z 0000000140053d20     libucrtd:strnlen.obj
 0002:00011d20       $unwind$?initialize@?$dual_state_global@P6AHPEAU_exception@@@Z@__crt_state_management@@QEAAXQ6AHPEAU_exception@@@Z@Z 0000000140053d20     libucrtd:matherr.obj
 0002:00011d20       $unwind$__AdjustPointer    0000000140053d20     libvcruntimed:ehhelpers.obj
 0002:00011d20       $unwind$??8iterator@HandlerMap@__FrameHandler3@@QEBA_NAEBV012@@Z 0000000140053d20     libvcruntimed:frame.obj
 0002:00011d20       $unwind$??Miterator@TryBlockMap@__FrameHandler3@@QEBA_NAEBV012@@Z 0000000140053d20     libvcruntimed:frame.obj
 0002:00011d28       $unwind$??$ensure_buffer_is_big_enough@D@formatting_buffer@__crt_stdio_output@@QEAA_N_KAEAV__crt_cached_ptd_host@@@Z 0000000140053d28     libucrtd:output.obj
 0002:00011d28       $unwind$??$ensure_buffer_is_big_enough@_W@formatting_buffer@__crt_stdio_output@@QEAA_N_KAEAV__crt_cached_ptd_host@@@Z 0000000140053d28     libucrtd:output.obj
 0002:00011d28       $unwind$__ascii_wcsnicmp   0000000140053d28     libucrtd:wcsnicmp.obj
 0002:00011d28       $unwind$__GSHandlerCheckCommon 0000000140053d28     LIBCMTD:gshandler.obj
 0002:00011d30       $unwind$?shift_bytes@@YAXQEAD_K0H@Z 0000000140053d30     libucrtd:cvt.obj
 0002:00011d30       $unwind$??$message_box@$$TAEBQEB_WAEBQEB_WK@?$__crt_char_traits@_W@@SAH$$QEA$$TAEBQEB_W1$$QEAK@Z 0000000140053d30     libucrtd:crtmbox.obj
 0002:00011d30       $unwind$??$message_box@PEAUHWND__@@AEBQEB_WAEBQEB_WAEBI@?$__crt_char_traits@_W@@SAH$$QEAPEAUHWND__@@AEBQEB_W1AEBI@Z 0000000140053d30     libucrtd:crtmbox.obj
 0002:00011d30       $unwind$_invoke_watson     0000000140053d30     libucrtd:invalid_parameter.obj
 0002:00011d30       $unwind$??$tcsncpy_s@AEAPEAD_KAEAPEADAEB_K@?$__crt_char_traits@D@@SAHAEAPEAD$$QEA_K0AEB_K@Z 0000000140053d30     libucrtd:argv_wildcards.obj
 0002:00011d30       $unwind$??$tcsncpy_s@PEADAEB_KAEBQEBDAEB_K@?$__crt_char_traits@D@@SAH$$QEAPEADAEB_KAEBQEBD1@Z 0000000140053d30     libucrtd:argv_wildcards.obj
 0002:00011d30       $unwind$??$tcsncpy_s@PEAD_KAEBQEBDAEB_K@?$__crt_char_traits@D@@SAH$$QEAPEAD$$QEA_KAEBQEBDAEB_K@Z 0000000140053d30     libucrtd:argv_wildcards.obj
 0002:00011d30       $unwind$strncpy_s          0000000140053d30     libucrtd:strncpy_s.obj
 0002:00011d30       $unwind$wcsncpy_s          0000000140053d30     libucrtd:wcsncpy_s.obj
 0002:00011d30       $unwind$__GSHandlerCheck   0000000140053d30     LIBCMTD:gshandler.obj
 0002:00011d30       $unwind$?BuildCatchObject@__FrameHandler3@@SAXPEAUEHExceptionRecord@@PEAXPEBU_s_HandlerType@@PEBU_s_CatchableType@@@Z 0000000140053d30     libvcruntimed:frame.obj
 0002:00011d38       $xdatasym                  0000000140053d38     LIBCMTD:chkstk.obj
 0002:00011d40       $xdatasym                  0000000140053d40     LIBCMTD:amdsecgs.obj
 0002:00011d48       $unwind$__dcrt_lowio_ensure_console_output_initialized 0000000140053d48     libucrtd:initcon.obj
 0002:00011d48       $unwind$__dcrt_terminate_console_output 0000000140053d48     libucrtd:initcon.obj
 0002:00011d48       $unwind$??$get_environment_from_os@$$V@?$__crt_char_traits@D@@SAPEADXZ 0000000140053d48     libucrtd:environment_initialization.obj
 0002:00011d48       $unwind$__dcrt_uninitialize_environments_nolock 0000000140053d48     libucrtd:environment_initialization.obj
 0002:00011d48       $unwind$_initialize_narrow_environment 0000000140053d48     libucrtd:environment_initialization.obj
 0002:00011d48       $unwind$__acrt_initialize_heap 0000000140053d48     libucrtd:heap_handle.obj
 0002:00011d48       $unwind$_query_new_mode    0000000140053d48     libucrtd:new_mode.obj
 0002:00011d48       $unwind$__acrt_initialize  0000000140053d48     libucrtd:initialization.obj
 0002:00011d48       $unwind$initialize_c       0000000140053d48     libucrtd:initialization.obj
 0002:00011d48       $unwind$initialize_global_variables 0000000140053d48     libucrtd:initialization.obj
 0002:00011d48       $unwind$__acrt_getptd_noexit 0000000140053d48     libucrtd:per_thread_data.obj
 0002:00011d48       $unwind$__acrt_initialize_ptd 0000000140053d48     libucrtd:per_thread_data.obj
 0002:00011d48       $unwind$__acrt_get_developer_information_policy 0000000140053d48     libucrtd:win_policies.obj
 0002:00011d48       $unwind$__acrt_get_process_end_policy 0000000140053d48     libucrtd:win_policies.obj
 0002:00011d48       $unwind$__acrt_get_windowing_model_policy 0000000140053d48     libucrtd:win_policies.obj
 0002:00011d48       $unwind$?try_get_AppPolicyGetProcessTerminationMethod@@YAP6AJPEAXPEAW4AppPolicyProcessTerminationMethod@@@ZXZ 0000000140053d48     libucrtd:winapi_thunks.obj
 0002:00011d48       $unwind$?try_get_AppPolicyGetShowDeveloperDiagnostic@@YAP6AJPEAXPEAW4AppPolicyShowDeveloperDiagnostic@@@ZXZ 0000000140053d48     libucrtd:winapi_thunks.obj
 0002:00011d48       $unwind$?try_get_AppPolicyGetWindowingModel@@YAP6AJPEAXPEAW4AppPolicyWindowingModel@@@ZXZ 0000000140053d48     libucrtd:winapi_thunks.obj
 0002:00011d48       $unwind$?try_get_AreFileApisANSI@@YAP6AHXZXZ 0000000140053d48     libucrtd:winapi_thunks.obj
 0002:00011d48       $unwind$?try_get_GetActiveWindow@@YAP6APEAUHWND__@@XZXZ 0000000140053d48     libucrtd:winapi_thunks.obj
 0002:00011d48       $unwind$?try_get_GetLastActivePopup@@YAP6APEAUHWND__@@PEAU1@@ZXZ 0000000140053d48     libucrtd:winapi_thunks.obj
 0002:00011d48       $unwind$?try_get_GetProcessWindowStation@@YAP6APEAUHWINSTA__@@XZXZ 0000000140053d48     libucrtd:winapi_thunks.obj
 0002:00011d48       $unwind$?try_get_GetUserObjectInformationW@@YAP6AHPEAXH0KPEAK@ZXZ 0000000140053d48     libucrtd:winapi_thunks.obj
 0002:00011d48       $unwind$?try_get_InitializeCriticalSectionEx@@YAP6AHPEAU_RTL_CRITICAL_SECTION@@KK@ZXZ 0000000140053d48     libucrtd:winapi_thunks.obj
 0002:00011d48       $unwind$?try_get_LCMapStringEx@@YAP6AHPEB_WK0HPEA_WHPEAU_nlsversioninfo@@PEAX_J@ZXZ 0000000140053d48     libucrtd:winapi_thunks.obj
 0002:00011d48       $unwind$?try_get_LocaleNameToLCID@@YAP6AKPEB_WK@ZXZ 0000000140053d48     libucrtd:winapi_thunks.obj
 0002:00011d48       $unwind$?try_get_MessageBoxA@@YAP6AHPEAUHWND__@@PEBD1I@ZXZ 0000000140053d48     libucrtd:winapi_thunks.obj
 0002:00011d48       $unwind$?try_get_MessageBoxW@@YAP6AHPEAUHWND__@@PEB_W1I@ZXZ 0000000140053d48     libucrtd:winapi_thunks.obj
 0002:00011d48       $unwind$__fpecode          0000000140053d48     libucrtd:signal.obj
 0002:00011d48       $unwind$__acrt_initialize_command_line 0000000140053d48     libucrtd:argv_data.obj
 0002:00011d48       $unwind$_get_narrow_winmain_command_line 0000000140053d48     libucrtd:argv_winmain.obj
 0002:00011d48       $unwind$?should_call_terminate_process@@YA_NXZ 0000000140053d48     libucrtd:exit.obj
 0002:00011d48       $unwind$_c_exit            0000000140053d48     libucrtd:exit.obj
 0002:00011d48       $unwind$_cexit             0000000140053d48     libucrtd:exit.obj
 0002:00011d48       $unwind$_flushall          0000000140053d48     libucrtd:fflush.obj
 0002:00011d48       $unwind$fegetround         0000000140053d48     libucrtd:fegetround.obj
 0002:00011d48       $unwind$?__scrt_common_main@@YAHXZ 0000000140053d48     LIBCMTD:exe_winmain.obj
 0002:00011d48       $unwind$?configure_argv@__scrt_narrow_argv_policy@@SAHXZ 0000000140053d48     LIBCMTD:exe_winmain.obj
 0002:00011d48       $unwind$?initialize_environment@__scrt_narrow_environment_policy@@SAHXZ 0000000140053d48     LIBCMTD:exe_winmain.obj
 0002:00011d48       $unwind$?post_pgo_initialization@@YAHXZ 0000000140053d48     LIBCMTD:exe_winmain.obj
 0002:00011d48       $unwind$?pre_c_initialization@@YAHXZ 0000000140053d48     LIBCMTD:exe_winmain.obj
 0002:00011d48       $unwind$?pre_cpp_initialization@@YAXXZ 0000000140053d48     LIBCMTD:exe_winmain.obj
 0002:00011d48       $unwind$?set_app_type@__scrt_winmain_policy@@SAXXZ 0000000140053d48     LIBCMTD:exe_winmain.obj
 0002:00011d48       $unwind$?set_fmode@__scrt_file_policy@@SAXXZ 0000000140053d48     LIBCMTD:exe_winmain.obj
 0002:00011d48       $unwind$__report_rangecheckfailure 0000000140053d48     LIBCMTD:gs_report.obj
 0002:00011d48       $unwind$?__scrt_initialize_type_info@@YAXXZ 0000000140053d48     LIBCMTD:tncleanup.obj
 0002:00011d48       $unwind$__scrt_initialize_mta 0000000140053d48     LIBCMTD:utility_desktop.obj
 0002:00011d48       $unwind$__scrt_set_unhandled_exception_filter 0000000140053d48     LIBCMTD:utility_desktop.obj
 0002:00011d48       $unwind$__current_exception 0000000140053d48     libvcruntimed:ehhelpers.obj
 0002:00011d48       $unwind$__current_exception_context 0000000140053d48     libvcruntimed:ehhelpers.obj
 0002:00011d48       $xdatasym$_CallSettingFrame 0000000140053d48     libvcruntimed:handlers.obj
 0002:00011d48       $unwind$__vcrt_initialize  0000000140053d48     libvcruntimed:initialization.obj
 0002:00011d48       $unwind$__vcrt_initialize_ptd 0000000140053d48     libvcruntimed:per_thread_data.obj
 0002:00011d48       $unwind$__vcrt_uninitialize_ptd 0000000140053d48     libvcruntimed:per_thread_data.obj
 0002:00011d48       $unwind$_GetImageBase      0000000140053d48     libvcruntimed:risctrnsctrl.obj
 0002:00011d48       $unwind$_GetThrowImageBase 0000000140053d48     libvcruntimed:risctrnsctrl.obj
 0002:00011d48       $unwind$?try_get_FlsAlloc@@YAP6AKP6AXPEAX@Z@ZXZ 0000000140053d48     libvcruntimed:winapi_downlevel.obj
 0002:00011d48       $unwind$?try_get_FlsFree@@YAP6AHK@ZXZ 0000000140053d48     libvcruntimed:winapi_downlevel.obj
 0002:00011d48       $unwind$?try_get_FlsGetValue@@YAP6APEAXK@ZXZ 0000000140053d48     libvcruntimed:winapi_downlevel.obj
 0002:00011d48       $unwind$?try_get_FlsSetValue@@YAP6AHKPEAX@ZXZ 0000000140053d48     libvcruntimed:winapi_downlevel.obj
 0002:00011d48       $unwind$?try_get_InitializeCriticalSectionEx@@YAP6AHPEAU_RTL_CRITICAL_SECTION@@KK@ZXZ 0000000140053d48     libvcruntimed:winapi_downlevel.obj
 0002:00011d50       $unwind$?__scrt_common_main_seh@@YAHXZ 0000000140053d50     LIBCMTD:exe_winmain.obj
 0002:00011d70       $unwind$?filt$0@?0??is_bad_read_pointer@@YA_NQEBX_K@Z@4HA 0000000140053d70     libucrtd:debug_heap.obj
 0002:00011d70       $unwind$_free_dbg$fin$0    0000000140053d70     libucrtd:debug_heap.obj
 0002:00011d70       $unwind$_query_new_handler$fin$0 0000000140053d70     libucrtd:new_handler.obj
 0002:00011d70       $unwind$?fin$0@?0???$?RV<lambda_0ae27a3a962d80f24befdcbee591983d>@@AEAV<lambda_8d0ee55de4b1038c4002e0adecdf1839>@@V<lambda_dc504788e8f1664fe9b84e20bfb512f2>@@@?$__crt_seh_guarded_call@X@@QEAAX$$QEAV<lambda_0ae27a3a962d80f24befdcbee591983d>@@AEAV<lambda_8d0ee55de4b1038c4002e0adecdf1839>@@$$QEAV<lambda_dc504788e8f1664fe9b84e20bfb512f2>@@@Z@4HA 0000000140053d70     libucrtd:per_thread_data.obj
 0002:00011d70       $unwind$?fin$0@?0???$?RV<lambda_2d41944a1d46af3157314b8a01080d33>@@AEAV<lambda_8f455de75cd7d7f24b4096f044d8b9e6>@@V<lambda_aa500f224e6afead328df44964fe2772>@@@?$__crt_seh_guarded_call@X@@QEAAX$$QEAV<lambda_2d41944a1d46af3157314b8a01080d33>@@AEAV<lambda_8f455de75cd7d7f24b4096f044d8b9e6>@@$$QEAV<lambda_aa500f224e6afead328df44964fe2772>@@@Z@4HA 0000000140053d70     libucrtd:per_thread_data.obj
 0002:00011d70       $unwind$?fin$0@?0???$?RV<lambda_74a0ef281e44d15e1136f792f539efb3>@@AEAV<lambda_e157831efee4ea0afb0a2ace5dd5fd0d>@@V<lambda_04ddeca75b7c13fd67716e8dfcef87ee>@@@?$__crt_seh_guarded_call@X@@QEAAX$$QEAV<lambda_74a0ef281e44d15e1136f792f539efb3>@@AEAV<lambda_e157831efee4ea0afb0a2ace5dd5fd0d>@@$$QEAV<lambda_04ddeca75b7c13fd67716e8dfcef87ee>@@@Z@4HA 0000000140053d70     libucrtd:per_thread_data.obj
 0002:00011d70       $unwind$?fin$0@?0???$?RV<lambda_aa87e3671a710a21b5dc78c0bdf72e11>@@AEAV<lambda_92619d2358a28f41a33ba319515a20b9>@@V<lambda_6992ecaafeb10aed2b74cb1fae11a551>@@@?$__crt_seh_guarded_call@X@@QEAAX$$QEAV<lambda_aa87e3671a710a21b5dc78c0bdf72e11>@@AEAV<lambda_92619d2358a28f41a33ba319515a20b9>@@$$QEAV<lambda_6992ecaafeb10aed2b74cb1fae11a551>@@@Z@4HA 0000000140053d70     libucrtd:per_thread_data.obj
 0002:00011d70       $unwind$__acrt_update_thread_locale_data$fin$0 0000000140053d70     libucrtd:locale_refcounting.obj
 0002:00011d70       $unwind$?fin$0@?0???$?RV<lambda_410d79af7f07d98d83a3f525b3859a53>@@AEAV<lambda_3e16ef9562a7dcce91392c22ab16ea36>@@V<lambda_38119f0e861e05405d8a144b9b982f0a>@@@?$__crt_seh_guarded_call@X@@QEAAX$$QEAV<lambda_410d79af7f07d98d83a3f525b3859a53>@@AEAV<lambda_3e16ef9562a7dcce91392c22ab16ea36>@@$$QEAV<lambda_38119f0e861e05405d8a144b9b982f0a>@@@Z@4HA 0000000140053d70     libucrtd:wsetlocale.obj
 0002:00011d70       $unwind$?fin$0@?0???$?RV<lambda_19eaff14c5fe7be5b1b106a862eb1091>@@AEAV<lambda_af29824b49a67d335554598d6cad2be6>@@V<lambda_3ce37f5b621ab310299ea5f68cbdf3bb>@@@?$__crt_seh_guarded_call@H@@QEAAH$$QEAV<lambda_19eaff14c5fe7be5b1b106a862eb1091>@@AEAV<lambda_af29824b49a67d335554598d6cad2be6>@@$$QEAV<lambda_3ce37f5b621ab310299ea5f68cbdf3bb>@@@Z@4HA 0000000140053d70     libucrtd:close.obj
 0002:00011d70       $unwind$?fin$0@?0???$?RV<lambda_7d29013d608e9f25a034de83c9b9e983>@@AEAV<lambda_3e4146214822e0ea86c47ff907aef2ff>@@V<lambda_b869e5a4e1069fcb5c3da79c0d999133>@@@?$__crt_seh_guarded_call@H@@QEAAH$$QEAV<lambda_7d29013d608e9f25a034de83c9b9e983>@@AEAV<lambda_3e4146214822e0ea86c47ff907aef2ff>@@$$QEAV<lambda_b869e5a4e1069fcb5c3da79c0d999133>@@@Z@4HA 0000000140053d70     libucrtd:commit.obj
 0002:00011d70       $unwind$__acrt_initialize_lowio$fin$0 0000000140053d70     libucrtd:ioinit.obj
 0002:00011d70       $unwind$?fin$0@?0???$?RV<lambda_efa02eb69bf647d2f7ff0dd6f1103f72>@@AEAV<lambda_bd5a608237428601b7e45fbdc72b1ae8>@@V<lambda_728235dc0fc2b1f82d1fa5b3e7102d8f>@@@?$__crt_seh_guarded_call@X@@QEAAX$$QEAV<lambda_efa02eb69bf647d2f7ff0dd6f1103f72>@@AEAV<lambda_bd5a608237428601b7e45fbdc72b1ae8>@@$$QEAV<lambda_728235dc0fc2b1f82d1fa5b3e7102d8f>@@@Z@4HA 0000000140053d70     libucrtd:mbctype.obj
 0002:00011d70       $unwind$?fin$0@?0??update_thread_multibyte_data_internal@@YAPEAU__crt_multibyte_data@@QEAU__acrt_ptd@@QEAPEAU1@@Z@4HA 0000000140053d70     libucrtd:mbctype.obj
 0002:00011d70       $unwind$?fin$0@?0???$?RV<lambda_450d765d439847d4c735a33c368b5fc0>@@AEAV<lambda_44731a7d0e6d81c3e6aa82d741081786>@@V<lambda_601a2a7da3b7a96e9554ac7215c4b07c>@@@?$__crt_seh_guarded_call@P6AXH@Z@@QEAAP6AXH@Z$$QEAV<lambda_450d765d439847d4c735a33c368b5fc0>@@AEAV<lambda_44731a7d0e6d81c3e6aa82d741081786>@@$$QEAV<lambda_601a2a7da3b7a96e9554ac7215c4b07c>@@@Z@4HA 0000000140053d70     libucrtd:signal.obj
 0002:00011d70       $unwind$terminate$filt$0   0000000140053d70     libucrtd:terminate.obj
 0002:00011d70       $unwind$?filt$0@?0???R<lambda_6e4b09c48022b2350581041d5f6b0c4c>@@QEBA@XZ@4HA 0000000140053d70     libucrtd:exit.obj
 0002:00011d70       $unwind$?fin$0@?0???$?RV<lambda_d80eeec6fff315bfe5c115232f3240e3>@@AEAV<lambda_6e4b09c48022b2350581041d5f6b0c4c>@@V<lambda_2358e3775559c9db80273638284d5e45>@@@?$__crt_seh_guarded_call@X@@QEAAX$$QEAV<lambda_d80eeec6fff315bfe5c115232f3240e3>@@AEAV<lambda_6e4b09c48022b2350581041d5f6b0c4c>@@$$QEAV<lambda_2358e3775559c9db80273638284d5e45>@@@Z@4HA 0000000140053d70     libucrtd:exit.obj
 0002:00011d70       $unwind$?dtor$0@?0???R<lambda_d121dba8a4adeaf3a9819e48611155df>@@QEBA@XZ@4HA 0000000140053d70     libucrtd:onexit.obj
 0002:00011d70       $unwind$?fin$0@?0???$?RV<lambda_6a47f4c8fd0152770a780fc1d70204eb>@@AEAV<lambda_d121dba8a4adeaf3a9819e48611155df>@@V<lambda_6aaa2265f5b6a89667e7d7630012e97a>@@@?$__crt_seh_guarded_call@H@@QEAAH$$QEAV<lambda_6a47f4c8fd0152770a780fc1d70204eb>@@AEAV<lambda_d121dba8a4adeaf3a9819e48611155df>@@$$QEAV<lambda_6aaa2265f5b6a89667e7d7630012e97a>@@@Z@4HA 0000000140053d70     libucrtd:onexit.obj
 0002:00011d70       $unwind$?fin$0@?0???$?RV<lambda_80060f20ac3990516b753a27f211934c>@@AEAV<lambda_208ce30acdd7200aa596f2796f4d5154>@@V<lambda_fd91b99c0687e8936f1d70d7d9b78e69>@@@?$__crt_seh_guarded_call@H@@QEAAH$$QEAV<lambda_80060f20ac3990516b753a27f211934c>@@AEAV<lambda_208ce30acdd7200aa596f2796f4d5154>@@$$QEAV<lambda_fd91b99c0687e8936f1d70d7d9b78e69>@@@Z@4HA 0000000140053d70     libucrtd:onexit.obj
 0002:00011d70       $unwind$_fcloseall$fin$0   0000000140053d70     libucrtd:closeall.obj
 0002:00011d70       $unwind$?fin$0@?0???$?RV<lambda_842d9ff0dc9ef11c61343bbaebe7f885>@@AEAV<lambda_c5860995281e5c4ce005b3de8f5874ee>@@V<lambda_d90129c13df834fdcbf8d2b88dafcf2d>@@@?$__crt_seh_guarded_call@X@@QEAAX$$QEAV<lambda_842d9ff0dc9ef11c61343bbaebe7f885>@@AEAV<lambda_c5860995281e5c4ce005b3de8f5874ee>@@$$QEAV<lambda_d90129c13df834fdcbf8d2b88dafcf2d>@@@Z@4HA 0000000140053d70     libucrtd:fflush.obj
 0002:00011d70       $unwind$?fin$0@?0???$?RV<lambda_886d6c58226a84441f68b9f2b8217b83>@@AEAV<lambda_ab61a845afdef5b7c387490eaf3616ee>@@V<lambda_f7f22ab5edc0698d5f6905b0d3f44752>@@@?$__crt_seh_guarded_call@X@@QEAAX$$QEAV<lambda_886d6c58226a84441f68b9f2b8217b83>@@AEAV<lambda_ab61a845afdef5b7c387490eaf3616ee>@@$$QEAV<lambda_f7f22ab5edc0698d5f6905b0d3f44752>@@@Z@4HA 0000000140053d70     libucrtd:fflush.obj
 0002:00011d70       $unwind$?dtor$0@?0??shortsort@@YAXPEAD0_KP6AHPEBX2@Z@Z@4HA 0000000140053d70     libucrtd:qsort.obj
 0002:00011d70       $unwind$_ctrlfp$filt$0     0000000140053d70     libucrtd:fpctrl.obj
 0002:00011d70       $unwind$?filt$0@?0??__scrt_common_main_seh@@YAHXZ@4HA 0000000140053d70     LIBCMTD:exe_winmain.obj
 0002:00011d70       $unwind$_IsNonwritableInCurrentImage$filt$0 0000000140053d70     LIBCMTD:pesect.obj
 0002:00011d70       $unwind$__scrt_is_nonwritable_in_current_image$filt$0 0000000140053d70     LIBCMTD:utility.obj
 0002:00011d70       $unwind$__DestructExceptionObject$filt$0 0000000140053d70     libvcruntimed:ehhelpers.obj
 0002:00011d70       $unwind$?filt$0@?0???$BuildCatchObjectHelperInternal@V__FrameHandler3@@@@YAHPEAUEHExceptionRecord@@PEAXPEBU_s_HandlerType@@PEBU_s_CatchableType@@@Z@4HA 0000000140053d70     libvcruntimed:frame.obj
 0002:00011d70       $unwind$?filt$0@?0???$BuildCatchObjectInternal@V__FrameHandler3@@@@YAXPEAUEHExceptionRecord@@PEAXPEBU_s_HandlerType@@PEBU_s_CatchableType@@@Z@4HA 0000000140053d70     libvcruntimed:frame.obj
 0002:00011d70       $unwind$?filt$0@?0??CxxCallCatchBlock@__FrameHandler3@@SAPEAXPEAU_EXCEPTION_RECORD@@@Z@4HA 0000000140053d70     libvcruntimed:frame.obj
 0002:00011d70       $unwind$?filt$0@?0??FrameUnwindToState@__FrameHandler3@@SAXPEA_KPEAU_xDISPATCHER_CONTEXT@@PEBU_s_FuncInfo@@H@Z@4HA 0000000140053d70     libvcruntimed:frame.obj
 0002:00011d70       $unwind$?fin$1@?0??CxxCallCatchBlock@__FrameHandler3@@SAPEAXPEAU_EXCEPTION_RECORD@@@Z@4HA 0000000140053d70     libvcruntimed:frame.obj
 0002:00011d70       $unwind$?fin$1@?0??FrameUnwindToState@__FrameHandler3@@SAXPEA_KPEAU_xDISPATCHER_CONTEXT@@PEBU_s_FuncInfo@@H@Z@4HA 0000000140053d70     libvcruntimed:frame.obj
 0002:00011d78       $unwind$??$tcslen@AEAPEAD@?$__crt_char_traits@D@@SA_KAEAPEAD@Z 0000000140053d78     libucrtd:environment_initialization.obj
 0002:00011d78       $unwind$??$uninitialize_environment_internal@D@@YAXAEAPEAPEAD@Z 0000000140053d78     libucrtd:environment_initialization.obj
 0002:00011d78       $unwind$??$uninitialize_environment_internal@_W@@YAXAEAPEAPEA_W@Z 0000000140053d78     libucrtd:environment_initialization.obj
 0002:00011d78       $unwind$??B?$__crt_unique_heap_ptr@PEADU__crt_internal_free_policy@@@@QEBA_NXZ 0000000140053d78     libucrtd:environment_initialization.obj
 0002:00011d78       $unwind$?value@?$dual_state_global@PEAPEAD@__crt_state_management@@QEAAAEAPEAPEADXZ 0000000140053d78     libucrtd:environment_initialization.obj
 0002:00011d78       $unwind$??1?$__crt_unique_handle_t@Uenvironment_strings_traits@?A0x1bf47908@@@@QEAA@XZ 0000000140053d78     libucrtd:get_environment_from_os.obj
 0002:00011d78       $unwind$?close@?$__crt_unique_handle_t@Uenvironment_strings_traits@?A0x1bf47908@@@@QEAAXXZ 0000000140053d78     libucrtd:get_environment_from_os.obj
 0002:00011d78       $unwind$?close@environment_strings_traits@?A0x1bf47908@@SA_NPEA_W@Z 0000000140053d78     libucrtd:get_environment_from_os.obj
 0002:00011d78       $unwind$??0big_integer@__crt_strtox@@QEAA@XZ 0000000140053d78     libucrtd:cfout.obj
 0002:00011d78       $unwind$??0scoped_fp_state_reset@?A0x71ca7cfb@@QEAA@XZ 0000000140053d78     libucrtd:cfout.obj
 0002:00011d78       $unwind$??1scoped_fp_state_reset@?A0x71ca7cfb@@QEAA@XZ 0000000140053d78     libucrtd:cfout.obj
 0002:00011d78       $unwind$??1_LocaleUpdate@@QEAA@XZ 0000000140053d78     libucrtd:debug_heap.obj
 0002:00011d78       $unwind$malloc             0000000140053d78     libucrtd:malloc.obj
 0002:00011d78       $unwind$??$__crt_fast_decode_pointer@P6AH_K@Z@@YAP6AH_K@ZQ6AH0@Z@Z 0000000140053d78     libucrtd:new_handler.obj
 0002:00011d78       $unwind$?value@?$dual_state_global@P6AH_K@Z@__crt_state_management@@QEAAAEAP6AH_K@ZXZ 0000000140053d78     libucrtd:new_handler.obj
 0002:00011d78       $unwind$__acrt_initialize_new_handler 0000000140053d78     libucrtd:new_handler.obj
 0002:00011d78       $unwind$?value@?$dual_state_global@J@__crt_state_management@@QEAAAEAJXZ 0000000140053d78     libucrtd:new_mode.obj
 0002:00011d78       $unwind$?set_to_nullptr@?$__crt_win32_buffer@DU__crt_win32_buffer_no_resizing@@@@QEAAXXZ 0000000140053d78     libucrtd:getmodulefilenamea.obj
 0002:00011d78       $unwind$??$?BX@__crt_fast_encoded_nullptr_t@@QEBAPEAXXZ 0000000140053d78     libucrtd:initialization.obj
 0002:00011d78       $unwind$??$__crt_fast_encode_pointer@PEAX@@YAPEAXQEAX@Z 0000000140053d78     libucrtd:initialization.obj
 0002:00011d78       $unwind$??1?$__crt_unique_heap_ptr@U__acrt_ptd@@U__crt_internal_free_policy@@@@QEAA@XZ 0000000140053d78     libucrtd:per_thread_data.obj
 0002:00011d78       $unwind$??B?$__crt_unique_heap_ptr@U__acrt_ptd@@U__crt_internal_free_policy@@@@QEBA_NXZ 0000000140053d78     libucrtd:per_thread_data.obj
 0002:00011d78       $unwind$??R<lambda_04ddeca75b7c13fd67716e8dfcef87ee>@@QEBA@XZ 0000000140053d78     libucrtd:per_thread_data.obj
 0002:00011d78       $unwind$??R<lambda_0ae27a3a962d80f24befdcbee591983d>@@QEBA@XZ 0000000140053d78     libucrtd:per_thread_data.obj
 0002:00011d78       $unwind$??R<lambda_2d41944a1d46af3157314b8a01080d33>@@QEBA@XZ 0000000140053d78     libucrtd:per_thread_data.obj
 0002:00011d78       $unwind$??R<lambda_6992ecaafeb10aed2b74cb1fae11a551>@@QEBA@XZ 0000000140053d78     libucrtd:per_thread_data.obj
 0002:00011d78       $unwind$??R<lambda_74a0ef281e44d15e1136f792f539efb3>@@QEBA@XZ 0000000140053d78     libucrtd:per_thread_data.obj
 0002:00011d78       $unwind$??R<lambda_8f455de75cd7d7f24b4096f044d8b9e6>@@QEBA@XZ 0000000140053d78     libucrtd:per_thread_data.obj
 0002:00011d78       $unwind$??R<lambda_92619d2358a28f41a33ba319515a20b9>@@QEBA@XZ 0000000140053d78     libucrtd:per_thread_data.obj
 0002:00011d78       $unwind$??R<lambda_aa500f224e6afead328df44964fe2772>@@QEBA@XZ 0000000140053d78     libucrtd:per_thread_data.obj
 0002:00011d78       $unwind$??R<lambda_aa87e3671a710a21b5dc78c0bdf72e11>@@QEBA@XZ 0000000140053d78     libucrtd:per_thread_data.obj
 0002:00011d78       $unwind$??R<lambda_dc504788e8f1664fe9b84e20bfb512f2>@@QEBA@XZ 0000000140053d78     libucrtd:per_thread_data.obj
 0002:00011d78       $unwind$?destroy_fls@@YAXPEAX@Z 0000000140053d78     libucrtd:per_thread_data.obj
 0002:00011d78       $unwind$?appmodel_get_policy@developer_information_policy_properties@?1??__acrt_get_developer_information_policy@@YA?AW4developer_information_policy@@XZ@SAJPEAW4AppPolicyShowDeveloperDiagnostic@@@Z 0000000140053d78     libucrtd:win_policies.obj
 0002:00011d78       $unwind$?appmodel_get_policy@process_end_policy_properties@?1??__acrt_get_process_end_policy@@YA?AW4process_end_policy@@XZ@SAJPEAW4AppPolicyProcessTerminationMethod@@@Z 0000000140053d78     libucrtd:win_policies.obj
 0002:00011d78       $unwind$?appmodel_get_policy@windowing_model_policy_properties@?1??__acrt_get_windowing_model_policy@@YA?AW4windowing_model_policy@@XZ@SAJPEAW4AppPolicyWindowingModel@@@Z 0000000140053d78     libucrtd:win_policies.obj
 0002:00011d78       $unwind$??$__crt_fast_decode_pointer@PEAX@@YAPEAXQEAX@Z 0000000140053d78     libucrtd:winapi_thunks.obj
 0002:00011d78       $unwind$__acrt_FlsAlloc    0000000140053d78     libucrtd:winapi_thunks.obj
 0002:00011d78       $unwind$??1?$__crt_scoped_stack_ptr@_W@@QEAA@XZ 0000000140053d78     libucrtd:getstringtypea.obj
 0002:00011d78       $unwind$__acrt_locale_free_monetary 0000000140053d78     libucrtd:initmon.obj
 0002:00011d78       $unwind$__acrt_locale_free_numeric 0000000140053d78     libucrtd:initnum.obj
 0002:00011d78       $unwind$??$free_crt_array@D$01@@YAXAEAY01PEAD@Z 0000000140053d78     libucrtd:inittime.obj
 0002:00011d78       $unwind$??$free_crt_array@D$06@@YAXAEAY06PEAD@Z 0000000140053d78     libucrtd:inittime.obj
 0002:00011d78       $unwind$??$free_crt_array@D$0M@@@YAXAEAY0M@PEAD@Z 0000000140053d78     libucrtd:inittime.obj
 0002:00011d78       $unwind$??$free_crt_array@_W$01@@YAXAEAY01PEA_W@Z 0000000140053d78     libucrtd:inittime.obj
 0002:00011d78       $unwind$??$free_crt_array@_W$06@@YAXAEAY06PEA_W@Z 0000000140053d78     libucrtd:inittime.obj
 0002:00011d78       $unwind$??$free_crt_array@_W$0M@@@YAXAEAY0M@PEA_W@Z 0000000140053d78     libucrtd:inittime.obj
 0002:00011d78       $unwind$__acrt_locale_free_time 0000000140053d78     libucrtd:inittime.obj
 0002:00011d78       $unwind$__acrt_locale_free_lc_time_if_unreferenced 0000000140053d78     libucrtd:locale_refcounting.obj
 0002:00011d78       $unwind$??1?$__crt_unique_heap_ptr@U__crt_multibyte_data@@U__crt_internal_free_policy@@@@QEAA@XZ 0000000140053d78     libucrtd:wsetlocale.obj
 0002:00011d78       $unwind$??B?$__crt_unique_heap_ptr@U__crt_multibyte_data@@U__crt_internal_free_policy@@@@QEBA_NXZ 0000000140053d78     libucrtd:wsetlocale.obj
 0002:00011d78       $unwind$??R<lambda_38119f0e861e05405d8a144b9b982f0a>@@QEBA@XZ 0000000140053d78     libucrtd:wsetlocale.obj
 0002:00011d78       $unwind$??R<lambda_410d79af7f07d98d83a3f525b3859a53>@@QEBA@XZ 0000000140053d78     libucrtd:wsetlocale.obj
 0002:00011d78       $unwind$?value@?$dual_state_global@PEAU__crt_locale_data@@@__crt_state_management@@QEAAAEAPEAU__crt_locale_data@@XZ 0000000140053d78     libucrtd:wsetlocale.obj
 0002:00011d78       $unwind$??R<lambda_19eaff14c5fe7be5b1b106a862eb1091>@@QEBA@XZ 0000000140053d78     libucrtd:close.obj
 0002:00011d78       $unwind$??R<lambda_3ce37f5b621ab310299ea5f68cbdf3bb>@@QEBA@XZ 0000000140053d78     libucrtd:close.obj
 0002:00011d78       $unwind$??R<lambda_7d29013d608e9f25a034de83c9b9e983>@@QEBA@XZ 0000000140053d78     libucrtd:commit.obj
 0002:00011d78       $unwind$??R<lambda_b869e5a4e1069fcb5c3da79c0d999133>@@QEBA@XZ 0000000140053d78     libucrtd:commit.obj
 0002:00011d78       $unwind$??1?$__crt_unique_heap_ptr@U__crt_lowio_handle_data@@U__crt_internal_free_policy@@@@QEAA@XZ 0000000140053d78     libucrtd:osfinfo.obj
 0002:00011d78       $unwind$??B?$__crt_unique_heap_ptr@U__crt_lowio_handle_data@@U__crt_internal_free_policy@@@@QEBA_NXZ 0000000140053d78     libucrtd:osfinfo.obj
 0002:00011d78       $unwind$?value@?$dual_state_global@H@__crt_state_management@@QEAAAEAHXZ 0000000140053d78     libucrtd:setmode.obj
 0002:00011d78       $unwind$??R<lambda_728235dc0fc2b1f82d1fa5b3e7102d8f>@@QEBA@XZ 0000000140053d78     libucrtd:mbctype.obj
 0002:00011d78       $unwind$??R<lambda_efa02eb69bf647d2f7ff0dd6f1103f72>@@QEBA@XZ 0000000140053d78     libucrtd:mbctype.obj
 0002:00011d78       $unwind$?value@?$dual_state_global@PEAE@__crt_state_management@@QEAAAEAPEAEXZ 0000000140053d78     libucrtd:mbctype.obj
 0002:00011d78       $unwind$?value@?$dual_state_global@PEAU__crt_multibyte_data@@@__crt_state_management@@QEAAAEAPEAU__crt_multibyte_data@@XZ 0000000140053d78     libucrtd:mbctype.obj
 0002:00011d78       $unwind$??$output_debug_string@AEBQEB_W@?$__crt_char_traits@_W@@SAXAEBQEB_W@Z 0000000140053d78     libucrtd:crtmbox.obj
 0002:00011d78       $unwind$??$tcslen@AEAY0BAF@D@?$__crt_char_traits@D@@SA_KAEAY0BAF@D@Z 0000000140053d78     libucrtd:dbgrpt.obj
 0002:00011d78       $unwind$??$tcslen@AEAY0BAF@_W@?$__crt_char_traits@_W@@SA_KAEAY0BAF@_W@Z 0000000140053d78     libucrtd:dbgrpt.obj
 0002:00011d78       $unwind$??$tcslen@AEBQEBD@?$__crt_char_traits@D@@SA_KAEBQEBD@Z 0000000140053d78     libucrtd:dbgrpt.obj
 0002:00011d78       $unwind$??$tcslen@AEBQEB_W@?$__crt_char_traits@_W@@SA_KAEBQEB_W@Z 0000000140053d78     libucrtd:dbgrpt.obj
 0002:00011d78       $unwind$??$__crt_fast_decode_pointer@P6AXPEB_W00I_K@Z@@YAP6AXPEB_W00I_K@ZQ6AX000I1@Z@Z 0000000140053d78     libucrtd:invalid_parameter.obj
 0002:00011d78       $unwind$??0__crt_scoped_get_last_error_reset@@QEAA@XZ 0000000140053d78     libucrtd:invalid_parameter.obj
 0002:00011d78       $unwind$??1__crt_scoped_get_last_error_reset@@QEAA@XZ 0000000140053d78     libucrtd:invalid_parameter.obj
 0002:00011d78       $unwind$?check_synchronize_per_thread_data@__crt_cached_ptd_host@@AEAAPEAU__acrt_ptd@@XZ 0000000140053d78     libucrtd:invalid_parameter.obj
 0002:00011d78       $unwind$?get_current_global_state_index@__crt_cached_ptd_host@@QEAA_KXZ 0000000140053d78     libucrtd:invalid_parameter.obj
 0002:00011d78       $unwind$?get_raw_ptd@__crt_cached_ptd_host@@QEAAPEAU__acrt_ptd@@XZ 0000000140053d78     libucrtd:invalid_parameter.obj
 0002:00011d78       $unwind$?get_raw_ptd_noexit@__crt_cached_ptd_host@@QEAAPEAU__acrt_ptd@@XZ 0000000140053d78     libucrtd:invalid_parameter.obj
 0002:00011d78       $unwind$?try_synchronize_per_thread_data@__crt_cached_ptd_host@@AEAAPEAU__acrt_ptd@@XZ 0000000140053d78     libucrtd:invalid_parameter.obj
 0002:00011d78       $unwind$??$?B$$A6AXH@Z@__crt_fast_encoded_nullptr_t@@QEBAP6AXH@ZXZ 0000000140053d78     libucrtd:signal.obj
 0002:00011d78       $unwind$??$__crt_fast_decode_pointer@P6AXH@Z@@YAP6AXH@ZQ6AXH@Z@Z 0000000140053d78     libucrtd:signal.obj
 0002:00011d78       $unwind$??$__crt_fast_encode_pointer@P6AXH@Z@@YAP6AXH@ZQ6AXH@Z@Z 0000000140053d78     libucrtd:signal.obj
 0002:00011d78       $unwind$??R<lambda_44731a7d0e6d81c3e6aa82d741081786>@@QEBA@XZ 0000000140053d78     libucrtd:signal.obj
 0002:00011d78       $unwind$??R<lambda_450d765d439847d4c735a33c368b5fc0>@@QEBA@XZ 0000000140053d78     libucrtd:signal.obj
 0002:00011d78       $unwind$??R<lambda_601a2a7da3b7a96e9554ac7215c4b07c>@@QEBA@XZ 0000000140053d78     libucrtd:signal.obj
 0002:00011d78       $unwind$?value@?$dual_state_global@P6AXH@Z@__crt_state_management@@QEAAAEAP6AXH@ZXZ 0000000140053d78     libucrtd:signal.obj
 0002:00011d78       $unwind$__acrt_initialize_signal_handlers 0000000140053d78     libucrtd:signal.obj
 0002:00011d78       $unwind$??$set_program_name@PEAD@?$__crt_char_traits@D@@SAX$$QEAPEAD@Z 0000000140053d78     libucrtd:argv_parsing.obj
 0002:00011d78       $unwind$??1?$__crt_unique_heap_ptr@EU__crt_internal_free_policy@@@@QEAA@XZ 0000000140053d78     libucrtd:argv_parsing.obj
 0002:00011d78       $unwind$??1?$__crt_unique_heap_ptr@PEADU__crt_internal_free_policy@@@@QEAA@XZ 0000000140053d78     libucrtd:argv_parsing.obj
 0002:00011d78       $unwind$??B?$__crt_unique_heap_ptr@EU__crt_internal_free_policy@@@@QEBA_NXZ 0000000140053d78     libucrtd:argv_parsing.obj
 0002:00011d78       $unwind$??1?$__crt_unique_handle_t@U__crt_findfile_traits@@@@QEAA@XZ 0000000140053d78     libucrtd:argv_wildcards.obj
 0002:00011d78       $unwind$?close@?$__crt_unique_handle_t@U__crt_findfile_traits@@@@QEAAXXZ 0000000140053d78     libucrtd:argv_wildcards.obj
 0002:00011d78       $unwind$?set_to_nullptr@?$__crt_win32_buffer@DU__crt_win32_buffer_internal_dynamic_resizing@@@@QEAAXXZ 0000000140053d78     libucrtd:argv_wildcards.obj
 0002:00011d78       $unwind$?set_to_nullptr@?$__crt_win32_buffer@_WU__crt_win32_buffer_internal_dynamic_resizing@@@@QEAAXXZ 0000000140053d78     libucrtd:argv_wildcards.obj
 0002:00011d78       $unwind$??$?B$$A6AXPEAXK0@Z@__crt_fast_encoded_nullptr_t@@QEBAP6AXPEAXK0@ZXZ 0000000140053d78     libucrtd:exit.obj
 0002:00011d78       $unwind$??$__crt_fast_decode_pointer@P6AXPEAXK0@Z@@YAP6AXPEAXK0@ZQ6AX0K0@Z@Z 0000000140053d78     libucrtd:exit.obj
 0002:00011d78       $unwind$??$__crt_fast_encode_pointer@P6AXPEAXK0@Z@@YAP6AXPEAXK0@ZQ6AX0K0@Z@Z 0000000140053d78     libucrtd:exit.obj
 0002:00011d78       $unwind$??$__crt_interlocked_read@J@@YAJPEDJ@Z 0000000140053d78     libucrtd:exit.obj
 0002:00011d78       $unwind$??1?$__crt_unique_handle_t@U__crt_hmodule_traits@@@@QEAA@XZ 0000000140053d78     libucrtd:exit.obj
 0002:00011d78       $unwind$??R<lambda_2358e3775559c9db80273638284d5e45>@@QEBA@XZ 0000000140053d78     libucrtd:exit.obj
 0002:00011d78       $unwind$??R<lambda_d80eeec6fff315bfe5c115232f3240e3>@@QEBA@XZ 0000000140053d78     libucrtd:exit.obj
 0002:00011d78       $unwind$?close@?$__crt_unique_handle_t@U__crt_hmodule_traits@@@@QEAAXXZ 0000000140053d78     libucrtd:exit.obj
 0002:00011d78       $unwind$??$?B$$A6AXXZ@__crt_fast_encoded_nullptr_t@@QEBAP6AXXZXZ 0000000140053d78     libucrtd:onexit.obj
 0002:00011d78       $unwind$??$?BP6AXXZ@__crt_fast_encoded_nullptr_t@@QEBAPEAP6AXXZXZ 0000000140053d78     libucrtd:onexit.obj
 0002:00011d78       $unwind$??$__crt_fast_decode_pointer@P6AXXZ@@YAP6AXXZQ6AXXZ@Z 0000000140053d78     libucrtd:onexit.obj
 0002:00011d78       $unwind$??$__crt_fast_decode_pointer@PEAP6AXXZ@@YAPEAP6AXXZQEAP6AXXZ@Z 0000000140053d78     libucrtd:onexit.obj
 0002:00011d78       $unwind$??$__crt_fast_encode_pointer@P6AHXZ@@YAP6AHXZQ6AHXZ@Z 0000000140053d78     libucrtd:onexit.obj
 0002:00011d78       $unwind$??$__crt_fast_encode_pointer@P6AXXZ@@YAP6AXXZQ6AXXZ@Z 0000000140053d78     libucrtd:onexit.obj
 0002:00011d78       $unwind$??$__crt_fast_encode_pointer@PEAP6AXXZ@@YAPEAP6AXXZQEAP6AXXZ@Z 0000000140053d78     libucrtd:onexit.obj
 0002:00011d78       $unwind$??1?$__crt_unique_heap_ptr@P6AXXZU__crt_internal_free_policy@@@@QEAA@XZ 0000000140053d78     libucrtd:onexit.obj
 0002:00011d78       $unwind$??R<lambda_6a47f4c8fd0152770a780fc1d70204eb>@@QEBA@XZ 0000000140053d78     libucrtd:onexit.obj
 0002:00011d78       $unwind$??R<lambda_6aaa2265f5b6a89667e7d7630012e97a>@@QEBA@XZ 0000000140053d78     libucrtd:onexit.obj
 0002:00011d78       $unwind$??R<lambda_80060f20ac3990516b753a27f211934c>@@QEBA@XZ 0000000140053d78     libucrtd:onexit.obj
 0002:00011d78       $unwind$??R<lambda_fd91b99c0687e8936f1d70d7d9b78e69>@@QEBA@XZ 0000000140053d78     libucrtd:onexit.obj
 0002:00011d78       $unwind$_crt_atexit        0000000140053d78     libucrtd:onexit.obj
 0002:00011d78       $unwind$??1?$__crt_unique_heap_ptr@PEAU__crt_stdio_stream_data@@U__crt_internal_free_policy@@@@QEAA@XZ 0000000140053d78     libucrtd:_file.obj
 0002:00011d78       $unwind$?has_crt_buffer@__crt_stdio_stream@@QEBA_NXZ 0000000140053d78     libucrtd:_freebuf.obj
 0002:00011d78       $unwind$??R<lambda_842d9ff0dc9ef11c61343bbaebe7f885>@@QEBA@XZ 0000000140053d78     libucrtd:fflush.obj
 0002:00011d78       $unwind$??R<lambda_886d6c58226a84441f68b9f2b8217b83>@@QEBA@XZ 0000000140053d78     libucrtd:fflush.obj
 0002:00011d78       $unwind$??R<lambda_d90129c13df834fdcbf8d2b88dafcf2d>@@QEBA@XZ 0000000140053d78     libucrtd:fflush.obj
 0002:00011d78       $unwind$??R<lambda_f7f22ab5edc0698d5f6905b0d3f44752>@@QEBA@XZ 0000000140053d78     libucrtd:fflush.obj
 0002:00011d78       $unwind$?lowio_handle@__crt_stdio_stream@@QEBAHXZ 0000000140053d78     libucrtd:fileno.obj
 0002:00011d78       $unwind$??$count@D@formatting_buffer@__crt_stdio_output@@QEBA_KXZ 0000000140053d78     libucrtd:output.obj
 0002:00011d78       $unwind$??$count@_W@formatting_buffer@__crt_stdio_output@@QEBA_KXZ 0000000140053d78     libucrtd:output.obj
 0002:00011d78       $unwind$??$data@D@formatting_buffer@__crt_stdio_output@@QEAAPEADXZ 0000000140053d78     libucrtd:output.obj
 0002:00011d78       $unwind$??$data@_W@formatting_buffer@__crt_stdio_output@@QEAAPEA_WXZ 0000000140053d78     libucrtd:output.obj
 0002:00011d78       $unwind$??$scratch_count@D@formatting_buffer@__crt_stdio_output@@QEBA_KXZ 0000000140053d78     libucrtd:output.obj
 0002:00011d78       $unwind$??1?$common_data@D@__crt_stdio_output@@QEAA@XZ 0000000140053d78     libucrtd:output.obj
 0002:00011d78       $unwind$??1?$common_data@_W@__crt_stdio_output@@QEAA@XZ 0000000140053d78     libucrtd:output.obj
 0002:00011d78       $unwind$??1?$format_validation_base@DV?$string_output_adapter@D@__crt_stdio_output@@@__crt_stdio_output@@QEAA@XZ 0000000140053d78     libucrtd:output.obj
 0002:00011d78       $unwind$??1?$format_validation_base@_WV?$string_output_adapter@_W@__crt_stdio_output@@@__crt_stdio_output@@QEAA@XZ 0000000140053d78     libucrtd:output.obj
 0002:00011d78       $unwind$??1?$output_adapter_data@DV?$string_output_adapter@D@__crt_stdio_output@@@__crt_stdio_output@@QEAA@XZ 0000000140053d78     libucrtd:output.obj
 0002:00011d78       $unwind$??1?$output_adapter_data@_WV?$string_output_adapter@_W@__crt_stdio_output@@@__crt_stdio_output@@QEAA@XZ 0000000140053d78     libucrtd:output.obj
 0002:00011d78       $unwind$??1?$output_processor@DV?$string_output_adapter@D@__crt_stdio_output@@V?$format_validation_base@DV?$string_output_adapter@D@__crt_stdio_output@@@2@@__crt_stdio_output@@QEAA@XZ 0000000140053d78     libucrtd:output.obj
 0002:00011d78       $unwind$??1?$output_processor@_WV?$string_output_adapter@_W@__crt_stdio_output@@V?$format_validation_base@_WV?$string_output_adapter@_W@__crt_stdio_output@@@2@@__crt_stdio_output@@QEAA@XZ 0000000140053d78     libucrtd:output.obj
 0002:00011d78       $unwind$??1?$standard_base@DV?$string_output_adapter@D@__crt_stdio_output@@@__crt_stdio_output@@QEAA@XZ 0000000140053d78     libucrtd:output.obj
 0002:00011d78       $unwind$??1?$standard_base@_WV?$string_output_adapter@_W@__crt_stdio_output@@@__crt_stdio_output@@QEAA@XZ 0000000140053d78     libucrtd:output.obj
 0002:00011d78       $unwind$??1formatting_buffer@__crt_stdio_output@@QEAA@XZ 0000000140053d78     libucrtd:output.obj
 0002:00011d78       $unwind$?get_flags@__crt_stdio_stream@@QEBAJXZ 0000000140053d78     libucrtd:output.obj
 0002:00011d78       $unwind$?get_locale@__crt_cached_ptd_host@@QEAAPEAU__crt_locale_pointers@@XZ 0000000140053d78     libucrtd:output.obj
 0002:00011d78       $unwind$?state_case_precision@?$output_processor@DV?$string_output_adapter@D@__crt_stdio_output@@V?$format_validation_base@DV?$string_output_adapter@D@__crt_stdio_output@@@2@@__crt_stdio_output@@AEAA_NXZ 0000000140053d78     libucrtd:output.obj
 0002:00011d78       $unwind$?state_case_precision@?$output_processor@_WV?$string_output_adapter@_W@__crt_stdio_output@@V?$format_validation_base@_WV?$string_output_adapter@_W@__crt_stdio_output@@@2@@__crt_stdio_output@@AEAA_NXZ 0000000140053d78     libucrtd:output.obj
 0002:00011d78       $unwind$?state_case_width@?$output_processor@DV?$string_output_adapter@D@__crt_stdio_output@@V?$format_validation_base@DV?$string_output_adapter@D@__crt_stdio_output@@@2@@__crt_stdio_output@@AEAA_NXZ 0000000140053d78     libucrtd:output.obj
 0002:00011d78       $unwind$?state_case_width@?$output_processor@_WV?$string_output_adapter@_W@__crt_stdio_output@@V?$format_validation_base@_WV?$string_output_adapter@_W@__crt_stdio_output@@@2@@__crt_stdio_output@@AEAA_NXZ 0000000140053d78     libucrtd:output.obj
 0002:00011d78       $unwind$?tchar_string@?$common_data@D@__crt_stdio_output@@IEAAAEAPEADXZ 0000000140053d78     libucrtd:output.obj
 0002:00011d78       $unwind$?tchar_string@?$common_data@_W@__crt_stdio_output@@IEAAAEAPEA_WXZ 0000000140053d78     libucrtd:output.obj
 0002:00011d78       $unwind$?type_case_X@?$output_processor@DV?$string_output_adapter@D@__crt_stdio_output@@V?$format_validation_base@DV?$string_output_adapter@D@__crt_stdio_output@@@2@@__crt_stdio_output@@AEAA_NXZ 0000000140053d78     libucrtd:output.obj
 0002:00011d78       $unwind$?type_case_X@?$output_processor@_WV?$string_output_adapter@_W@__crt_stdio_output@@V?$format_validation_base@_WV?$string_output_adapter@_W@__crt_stdio_output@@@2@@__crt_stdio_output@@AEAA_NXZ 0000000140053d78     libucrtd:output.obj
 0002:00011d78       $unwind$?type_case_c@?$output_processor@DV?$string_output_adapter@D@__crt_stdio_output@@V?$format_validation_base@DV?$string_output_adapter@D@__crt_stdio_output@@@2@@__crt_stdio_output@@AEAA_NXZ 0000000140053d78     libucrtd:output.obj
 0002:00011d78       $unwind$?type_case_c@?$output_processor@_WV?$string_output_adapter@_W@__crt_stdio_output@@V?$format_validation_base@_WV?$string_output_adapter@_W@__crt_stdio_output@@@2@@__crt_stdio_output@@AEAA_NXZ 0000000140053d78     libucrtd:output.obj
 0002:00011d78       $unwind$?type_case_d@?$output_processor@DV?$string_output_adapter@D@__crt_stdio_output@@V?$format_validation_base@DV?$string_output_adapter@D@__crt_stdio_output@@@2@@__crt_stdio_output@@AEAA_NXZ 0000000140053d78     libucrtd:output.obj
 0002:00011d78       $unwind$?type_case_d@?$output_processor@_WV?$string_output_adapter@_W@__crt_stdio_output@@V?$format_validation_base@_WV?$string_output_adapter@_W@__crt_stdio_output@@@2@@__crt_stdio_output@@AEAA_NXZ 0000000140053d78     libucrtd:output.obj
 0002:00011d78       $unwind$?type_case_o@?$output_processor@DV?$string_output_adapter@D@__crt_stdio_output@@V?$format_validation_base@DV?$string_output_adapter@D@__crt_stdio_output@@@2@@__crt_stdio_output@@AEAA_NXZ 0000000140053d78     libucrtd:output.obj
